ARM GAS  D:\cygwin64\tmp\ccbcDu34.s 			page 1


   1              		.cpu cortex-m4
   2              		.eabi_attribute 27, 1
   3              		.eabi_attribute 28, 1
   4              		.eabi_attribute 20, 1
   5              		.eabi_attribute 21, 1
   6              		.eabi_attribute 23, 3
   7              		.eabi_attribute 24, 1
   8              		.eabi_attribute 25, 1
   9              		.eabi_attribute 26, 1
  10              		.eabi_attribute 30, 1
  11              		.eabi_attribute 34, 1
  12              		.eabi_attribute 18, 4
  13              		.file	"event_buffer.c"
  14              		.text
  15              	.Ltext0:
  16              		.cfi_sections	.debug_frame
  17              		.section	.text.event_init,"ax",%progbits
  18              		.align	1
  19              		.global	event_init
  20              		.syntax unified
  21              		.thumb
  22              		.thumb_func
  23              		.fpu fpv4-sp-d16
  25              	event_init:
  26              	.LFB275:
  27              		.file 1 "Middlewares/ST/STM32_SPWF0xSy/Utils/event_buffer.c"
   1:Middlewares/ST/STM32_SPWF0xSy/Utils/event_buffer.c **** /**
   2:Middlewares/ST/STM32_SPWF0xSy/Utils/event_buffer.c ****  ******************************************************************************
   3:Middlewares/ST/STM32_SPWF0xSy/Utils/event_buffer.c ****  * @file    event_buffer.c
   4:Middlewares/ST/STM32_SPWF0xSy/Utils/event_buffer.c ****  * @author  Central LAB
   5:Middlewares/ST/STM32_SPWF0xSy/Utils/event_buffer.c ****  * @version V2.1.0
   6:Middlewares/ST/STM32_SPWF0xSy/Utils/event_buffer.c ****  * @date    17-May-2016
   7:Middlewares/ST/STM32_SPWF0xSy/Utils/event_buffer.c ****  * @brief   Implements the Event Buffer management of the Wi-Fi module
   8:Middlewares/ST/STM32_SPWF0xSy/Utils/event_buffer.c ****  ******************************************************************************
   9:Middlewares/ST/STM32_SPWF0xSy/Utils/event_buffer.c ****  * @attention
  10:Middlewares/ST/STM32_SPWF0xSy/Utils/event_buffer.c ****  *
  11:Middlewares/ST/STM32_SPWF0xSy/Utils/event_buffer.c ****  * <h2><center>&copy; COPYRIGHT(c) 2015 STMicroelectronics</center></h2>
  12:Middlewares/ST/STM32_SPWF0xSy/Utils/event_buffer.c ****  *
  13:Middlewares/ST/STM32_SPWF0xSy/Utils/event_buffer.c ****  * Redistribution and use in source and binary forms, with or without modification,
  14:Middlewares/ST/STM32_SPWF0xSy/Utils/event_buffer.c ****  * are permitted provided that the following conditions are met:
  15:Middlewares/ST/STM32_SPWF0xSy/Utils/event_buffer.c ****  *   1. Redistributions of source code must retain the above copyright notice,
  16:Middlewares/ST/STM32_SPWF0xSy/Utils/event_buffer.c ****  *      this list of conditions and the following disclaimer.
  17:Middlewares/ST/STM32_SPWF0xSy/Utils/event_buffer.c ****  *   2. Redistributions in binary form must reproduce the above copyright notice,
  18:Middlewares/ST/STM32_SPWF0xSy/Utils/event_buffer.c ****  *      this list of conditions and the following disclaimer in the documentation
  19:Middlewares/ST/STM32_SPWF0xSy/Utils/event_buffer.c ****  *      and/or other materials provided with the distribution.
  20:Middlewares/ST/STM32_SPWF0xSy/Utils/event_buffer.c ****  *   3. Neither the name of STMicroelectronics nor the names of its contributors
  21:Middlewares/ST/STM32_SPWF0xSy/Utils/event_buffer.c ****  *      may be used to endorse or promote products derived from this software
  22:Middlewares/ST/STM32_SPWF0xSy/Utils/event_buffer.c ****  *      without specific prior written permission.
  23:Middlewares/ST/STM32_SPWF0xSy/Utils/event_buffer.c ****  *
  24:Middlewares/ST/STM32_SPWF0xSy/Utils/event_buffer.c ****  * THIS SOFTWARE IS PROVIDED BY THE COPYRIGHT HOLDERS AND CONTRIBUTORS "AS IS"
  25:Middlewares/ST/STM32_SPWF0xSy/Utils/event_buffer.c ****  * AND ANY EXPRESS OR IMPLIED WARRANTIES, INCLUDING, BUT NOT LIMITED TO, THE
  26:Middlewares/ST/STM32_SPWF0xSy/Utils/event_buffer.c ****  * IMPLIED WARRANTIES OF MERCHANTABILITY AND FITNESS FOR A PARTICULAR PURPOSE ARE
  27:Middlewares/ST/STM32_SPWF0xSy/Utils/event_buffer.c ****  * DISCLAIMED. IN NO EVENT SHALL THE COPYRIGHT HOLDER OR CONTRIBUTORS BE LIABLE
  28:Middlewares/ST/STM32_SPWF0xSy/Utils/event_buffer.c ****  * FOR ANY DIRECT, INDIRECT, INCIDENTAL, SPECIAL, EXEMPLARY, OR CONSEQUENTIAL
  29:Middlewares/ST/STM32_SPWF0xSy/Utils/event_buffer.c ****  * DAMAGES (INCLUDING, BUT NOT LIMITED TO, PROCUREMENT OF SUBSTITUTE GOODS OR
  30:Middlewares/ST/STM32_SPWF0xSy/Utils/event_buffer.c ****  * SERVICES; LOSS OF USE, DATA, OR PROFITS; OR BUSINESS INTERRUPTION) HOWEVER
  31:Middlewares/ST/STM32_SPWF0xSy/Utils/event_buffer.c ****  * CAUSED AND ON ANY THEORY OF LIABILITY, WHETHER IN CONTRACT, STRICT LIABILITY,
ARM GAS  D:\cygwin64\tmp\ccbcDu34.s 			page 2


  32:Middlewares/ST/STM32_SPWF0xSy/Utils/event_buffer.c ****  * OR TORT (INCLUDING NEGLIGENCE OR OTHERWISE) ARISING IN ANY WAY OUT OF THE USE
  33:Middlewares/ST/STM32_SPWF0xSy/Utils/event_buffer.c ****  * OF THIS SOFTWARE, EVEN IF ADVISED OF THE POSSIBILITY OF SUCH DAMAGE.
  34:Middlewares/ST/STM32_SPWF0xSy/Utils/event_buffer.c ****  *
  35:Middlewares/ST/STM32_SPWF0xSy/Utils/event_buffer.c ****  ******************************************************************************
  36:Middlewares/ST/STM32_SPWF0xSy/Utils/event_buffer.c ****  */
  37:Middlewares/ST/STM32_SPWF0xSy/Utils/event_buffer.c **** 
  38:Middlewares/ST/STM32_SPWF0xSy/Utils/event_buffer.c **** #include <stdio.h>
  39:Middlewares/ST/STM32_SPWF0xSy/Utils/event_buffer.c **** #include <stdlib.h>
  40:Middlewares/ST/STM32_SPWF0xSy/Utils/event_buffer.c **** #include "event_buffer.h"
  41:Middlewares/ST/STM32_SPWF0xSy/Utils/event_buffer.c **** #include "wifi_module.h"
  42:Middlewares/ST/STM32_SPWF0xSy/Utils/event_buffer.c **** #include "wifi_globals.h"
  43:Middlewares/ST/STM32_SPWF0xSy/Utils/event_buffer.c **** 
  44:Middlewares/ST/STM32_SPWF0xSy/Utils/event_buffer.c **** /** @addtogroup BSP
  45:Middlewares/ST/STM32_SPWF0xSy/Utils/event_buffer.c **** * @{
  46:Middlewares/ST/STM32_SPWF0xSy/Utils/event_buffer.c **** */ 
  47:Middlewares/ST/STM32_SPWF0xSy/Utils/event_buffer.c **** 
  48:Middlewares/ST/STM32_SPWF0xSy/Utils/event_buffer.c **** /** @defgroup  NUCLEO_WIFI_BUFFER_MGMT
  49:Middlewares/ST/STM32_SPWF0xSy/Utils/event_buffer.c ****   * @brief Wi-Fi_driver modules
  50:Middlewares/ST/STM32_SPWF0xSy/Utils/event_buffer.c ****   * @{
  51:Middlewares/ST/STM32_SPWF0xSy/Utils/event_buffer.c ****   */ 
  52:Middlewares/ST/STM32_SPWF0xSy/Utils/event_buffer.c **** 
  53:Middlewares/ST/STM32_SPWF0xSy/Utils/event_buffer.c **** /** @defgroup NUCLEO_WIFI_BUFFER_MGMT_Private_Defines
  54:Middlewares/ST/STM32_SPWF0xSy/Utils/event_buffer.c ****   * @{
  55:Middlewares/ST/STM32_SPWF0xSy/Utils/event_buffer.c ****   */
  56:Middlewares/ST/STM32_SPWF0xSy/Utils/event_buffer.c **** 
  57:Middlewares/ST/STM32_SPWF0xSy/Utils/event_buffer.c **** /**
  58:Middlewares/ST/STM32_SPWF0xSy/Utils/event_buffer.c ****   * @}
  59:Middlewares/ST/STM32_SPWF0xSy/Utils/event_buffer.c ****   */
  60:Middlewares/ST/STM32_SPWF0xSy/Utils/event_buffer.c **** 
  61:Middlewares/ST/STM32_SPWF0xSy/Utils/event_buffer.c **** /** @defgroup NUCLEO_WIFI_BUFFER_MGMT_Private_Variables
  62:Middlewares/ST/STM32_SPWF0xSy/Utils/event_buffer.c ****   * @{
  63:Middlewares/ST/STM32_SPWF0xSy/Utils/event_buffer.c ****   */
  64:Middlewares/ST/STM32_SPWF0xSy/Utils/event_buffer.c **** 
  65:Middlewares/ST/STM32_SPWF0xSy/Utils/event_buffer.c **** #define ELEMENT_SIZE sizeof(wifi_event_TypeDef)   //1
  66:Middlewares/ST/STM32_SPWF0xSy/Utils/event_buffer.c **** 
  67:Middlewares/ST/STM32_SPWF0xSy/Utils/event_buffer.c **** #ifdef USE_STM32L0XX_NUCLEO
  68:Middlewares/ST/STM32_SPWF0xSy/Utils/event_buffer.c **** static wifi_event_TypeDef event_buffer[10];  /* Used to store various events. Its size varies in ca
  69:Middlewares/ST/STM32_SPWF0xSy/Utils/event_buffer.c **** #else
  70:Middlewares/ST/STM32_SPWF0xSy/Utils/event_buffer.c **** static wifi_event_TypeDef event_buffer[50];
  71:Middlewares/ST/STM32_SPWF0xSy/Utils/event_buffer.c **** #endif
  72:Middlewares/ST/STM32_SPWF0xSy/Utils/event_buffer.c **** 
  73:Middlewares/ST/STM32_SPWF0xSy/Utils/event_buffer.c **** /**
  74:Middlewares/ST/STM32_SPWF0xSy/Utils/event_buffer.c ****   * @}
  75:Middlewares/ST/STM32_SPWF0xSy/Utils/event_buffer.c ****   */
  76:Middlewares/ST/STM32_SPWF0xSy/Utils/event_buffer.c **** 
  77:Middlewares/ST/STM32_SPWF0xSy/Utils/event_buffer.c **** /** @defgroup NUCLEO_WIFI_BUFFER_MGMT_Private_Functions
  78:Middlewares/ST/STM32_SPWF0xSy/Utils/event_buffer.c ****   * @{
  79:Middlewares/ST/STM32_SPWF0xSy/Utils/event_buffer.c ****   */
  80:Middlewares/ST/STM32_SPWF0xSy/Utils/event_buffer.c **** 
  81:Middlewares/ST/STM32_SPWF0xSy/Utils/event_buffer.c **** /**
  82:Middlewares/ST/STM32_SPWF0xSy/Utils/event_buffer.c ****   * @brief  init
  83:Middlewares/ST/STM32_SPWF0xSy/Utils/event_buffer.c ****   *         Initialize a circular buffer of type wifi_event_buffer
  84:Middlewares/ST/STM32_SPWF0xSy/Utils/event_buffer.c ****   * @param  *buffer : pointer to event buffer
  85:Middlewares/ST/STM32_SPWF0xSy/Utils/event_buffer.c ****   * @param  size    : Number of events in Event_Buffer
  86:Middlewares/ST/STM32_SPWF0xSy/Utils/event_buffer.c ****   * @retval None
  87:Middlewares/ST/STM32_SPWF0xSy/Utils/event_buffer.c ****   */
  88:Middlewares/ST/STM32_SPWF0xSy/Utils/event_buffer.c **** void event_init(wifi_event_buffer *buffer, int size) 
ARM GAS  D:\cygwin64\tmp\ccbcDu34.s 			page 3


  89:Middlewares/ST/STM32_SPWF0xSy/Utils/event_buffer.c **** {
  28              		.loc 1 89 0
  29              		.cfi_startproc
  30              		@ args = 0, pretend = 0, frame = 0
  31              		@ frame_needed = 0, uses_anonymous_args = 0
  32              		@ link register save eliminated.
  33              	.LVL0:
  90:Middlewares/ST/STM32_SPWF0xSy/Utils/event_buffer.c ****     uint32_t element_size;
  91:Middlewares/ST/STM32_SPWF0xSy/Utils/event_buffer.c ****     element_size = sizeof(wifi_event_TypeDef);
  92:Middlewares/ST/STM32_SPWF0xSy/Utils/event_buffer.c ****     buffer->size = element_size*size;
  34              		.loc 1 92 0
  35 0000 C900     		lsls	r1, r1, #3
  36              	.LVL1:
  37 0002 89B2     		uxth	r1, r1
  38 0004 8180     		strh	r1, [r0, #4]	@ movhi
  93:Middlewares/ST/STM32_SPWF0xSy/Utils/event_buffer.c ****     buffer->start = 0;
  39              		.loc 1 93 0
  40 0006 0023     		movs	r3, #0
  41 0008 0380     		strh	r3, [r0]	@ movhi
  94:Middlewares/ST/STM32_SPWF0xSy/Utils/event_buffer.c ****     buffer->count = 0;
  42              		.loc 1 94 0
  43 000a C380     		strh	r3, [r0, #6]	@ movhi
  95:Middlewares/ST/STM32_SPWF0xSy/Utils/event_buffer.c ****     buffer->end = 0;
  44              		.loc 1 95 0
  45 000c 4380     		strh	r3, [r0, #2]	@ movhi
  96:Middlewares/ST/STM32_SPWF0xSy/Utils/event_buffer.c ****     buffer->element = event_buffer;
  46              		.loc 1 96 0
  47 000e 014B     		ldr	r3, .L2
  48 0010 8360     		str	r3, [r0, #8]
  49 0012 7047     		bx	lr
  50              	.L3:
  51              		.align	2
  52              	.L2:
  53 0014 00000000 		.word	.LANCHOR0
  54              		.cfi_endproc
  55              	.LFE275:
  57              		.section	.text.event_full,"ax",%progbits
  58              		.align	1
  59              		.global	event_full
  60              		.syntax unified
  61              		.thumb
  62              		.thumb_func
  63              		.fpu fpv4-sp-d16
  65              	event_full:
  66              	.LFB276:
  97:Middlewares/ST/STM32_SPWF0xSy/Utils/event_buffer.c **** }
  98:Middlewares/ST/STM32_SPWF0xSy/Utils/event_buffer.c **** 
  99:Middlewares/ST/STM32_SPWF0xSy/Utils/event_buffer.c **** /**
 100:Middlewares/ST/STM32_SPWF0xSy/Utils/event_buffer.c ****   * @brief  full
 101:Middlewares/ST/STM32_SPWF0xSy/Utils/event_buffer.c ****   *         indicates if the given buffer is full or not
 102:Middlewares/ST/STM32_SPWF0xSy/Utils/event_buffer.c ****   * @param  *buffer : pointer to event buffer
 103:Middlewares/ST/STM32_SPWF0xSy/Utils/event_buffer.c ****   * @retval status of event_buffer (=1 if full =0 if otherwise)
 104:Middlewares/ST/STM32_SPWF0xSy/Utils/event_buffer.c ****   */
 105:Middlewares/ST/STM32_SPWF0xSy/Utils/event_buffer.c **** int event_full(wifi_event_buffer *buffer) 
 106:Middlewares/ST/STM32_SPWF0xSy/Utils/event_buffer.c **** {
  67              		.loc 1 106 0
  68              		.cfi_startproc
ARM GAS  D:\cygwin64\tmp\ccbcDu34.s 			page 4


  69              		@ args = 0, pretend = 0, frame = 0
  70              		@ frame_needed = 0, uses_anonymous_args = 0
  71              		@ link register save eliminated.
  72              	.LVL2:
 107:Middlewares/ST/STM32_SPWF0xSy/Utils/event_buffer.c ****   int bufsize = buffer->size;
  73              		.loc 1 107 0
  74 0000 8388     		ldrh	r3, [r0, #4]
  75              	.LVL3:
 108:Middlewares/ST/STM32_SPWF0xSy/Utils/event_buffer.c ****   return buffer->count == (bufsize/ELEMENT_SIZE) ? 1 : 0;
  76              		.loc 1 108 0
  77 0002 C088     		ldrh	r0, [r0, #6]
  78              	.LVL4:
  79 0004 80B2     		uxth	r0, r0
  80 0006 C3F3CC03 		ubfx	r3, r3, #3, #13
  81              	.LVL5:
 109:Middlewares/ST/STM32_SPWF0xSy/Utils/event_buffer.c **** }
  82              		.loc 1 109 0
  83 000a 9842     		cmp	r0, r3
  84 000c 14BF     		ite	ne
  85 000e 0020     		movne	r0, #0
  86 0010 0120     		moveq	r0, #1
  87 0012 7047     		bx	lr
  88              		.cfi_endproc
  89              	.LFE276:
  91              		.section	.text.event_empty,"ax",%progbits
  92              		.align	1
  93              		.global	event_empty
  94              		.syntax unified
  95              		.thumb
  96              		.thumb_func
  97              		.fpu fpv4-sp-d16
  99              	event_empty:
 100              	.LFB277:
 110:Middlewares/ST/STM32_SPWF0xSy/Utils/event_buffer.c **** 
 111:Middlewares/ST/STM32_SPWF0xSy/Utils/event_buffer.c **** /**
 112:Middlewares/ST/STM32_SPWF0xSy/Utils/event_buffer.c ****   * @brief  empty
 113:Middlewares/ST/STM32_SPWF0xSy/Utils/event_buffer.c ****   *         indicates if the given buffer is empty or not
 114:Middlewares/ST/STM32_SPWF0xSy/Utils/event_buffer.c ****   * @param  *buffer : pointer to event buffer
 115:Middlewares/ST/STM32_SPWF0xSy/Utils/event_buffer.c ****   * @retval status of event_buffer (=1 if empty =0 if otherwise)
 116:Middlewares/ST/STM32_SPWF0xSy/Utils/event_buffer.c ****   */
 117:Middlewares/ST/STM32_SPWF0xSy/Utils/event_buffer.c **** int event_empty(wifi_event_buffer *buffer) {
 101              		.loc 1 117 0
 102              		.cfi_startproc
 103              		@ args = 0, pretend = 0, frame = 0
 104              		@ frame_needed = 0, uses_anonymous_args = 0
 105              		@ link register save eliminated.
 106              	.LVL6:
 118:Middlewares/ST/STM32_SPWF0xSy/Utils/event_buffer.c ****     return buffer->count == 0 ? 1 : 0;
 107              		.loc 1 118 0
 108 0000 C088     		ldrh	r0, [r0, #6]
 109              	.LVL7:
 110 0002 80B2     		uxth	r0, r0
 119:Middlewares/ST/STM32_SPWF0xSy/Utils/event_buffer.c **** }
 111              		.loc 1 119 0
 112 0004 B0FA80F0 		clz	r0, r0
 113 0008 4009     		lsrs	r0, r0, #5
 114 000a 7047     		bx	lr
ARM GAS  D:\cygwin64\tmp\ccbcDu34.s 			page 5


 115              		.cfi_endproc
 116              	.LFE277:
 118              		.section	.text.push_eventbuffer_queue,"ax",%progbits
 119              		.align	1
 120              		.global	push_eventbuffer_queue
 121              		.syntax unified
 122              		.thumb
 123              		.thumb_func
 124              		.fpu fpv4-sp-d16
 126              	push_eventbuffer_queue:
 127              	.LFB278:
 120:Middlewares/ST/STM32_SPWF0xSy/Utils/event_buffer.c **** 
 121:Middlewares/ST/STM32_SPWF0xSy/Utils/event_buffer.c **** /**
 122:Middlewares/ST/STM32_SPWF0xSy/Utils/event_buffer.c ****   * @brief  push_buffer
 123:Middlewares/ST/STM32_SPWF0xSy/Utils/event_buffer.c ****   *         pushes the data structure onto the circular buffer (queues it)
 124:Middlewares/ST/STM32_SPWF0xSy/Utils/event_buffer.c ****   * @param  *buffer : pointer to event buffer
 125:Middlewares/ST/STM32_SPWF0xSy/Utils/event_buffer.c ****   * @param  data : data to be Queued in event_buffer
 126:Middlewares/ST/STM32_SPWF0xSy/Utils/event_buffer.c ****   * @retval None
 127:Middlewares/ST/STM32_SPWF0xSy/Utils/event_buffer.c ****   */
 128:Middlewares/ST/STM32_SPWF0xSy/Utils/event_buffer.c **** void push_eventbuffer_queue(wifi_event_buffer *buffer, wifi_event_TypeDef data) 
 129:Middlewares/ST/STM32_SPWF0xSy/Utils/event_buffer.c **** {
 128              		.loc 1 129 0
 129              		.cfi_startproc
 130              		@ args = 0, pretend = 0, frame = 8
 131              		@ frame_needed = 0, uses_anonymous_args = 0
 132              	.LVL8:
 133 0000 30B5     		push	{r4, r5, lr}
 134              	.LCFI0:
 135              		.cfi_def_cfa_offset 12
 136              		.cfi_offset 4, -12
 137              		.cfi_offset 5, -8
 138              		.cfi_offset 14, -4
 139 0002 83B0     		sub	sp, sp, #12
 140              	.LCFI1:
 141              		.cfi_def_cfa_offset 24
 142 0004 0446     		mov	r4, r0
 143 0006 02AB     		add	r3, sp, #8
 144 0008 03E90600 		stmdb	r3, {r1, r2}
 130:Middlewares/ST/STM32_SPWF0xSy/Utils/event_buffer.c ****   int bufsize;
 131:Middlewares/ST/STM32_SPWF0xSy/Utils/event_buffer.c ****   uint32_t index;
 132:Middlewares/ST/STM32_SPWF0xSy/Utils/event_buffer.c ****   
 133:Middlewares/ST/STM32_SPWF0xSy/Utils/event_buffer.c ****   if (event_full(buffer))
 145              		.loc 1 133 0
 146 000c FFF7FEFF 		bl	event_full
 147              	.LVL9:
 148 0010 0028     		cmp	r0, #0
 149 0012 3AD1     		bne	.L6
 134:Middlewares/ST/STM32_SPWF0xSy/Utils/event_buffer.c ****     {
 135:Middlewares/ST/STM32_SPWF0xSy/Utils/event_buffer.c ****       return;
 136:Middlewares/ST/STM32_SPWF0xSy/Utils/event_buffer.c ****     } 
 137:Middlewares/ST/STM32_SPWF0xSy/Utils/event_buffer.c ****   else 
 138:Middlewares/ST/STM32_SPWF0xSy/Utils/event_buffer.c ****     {
 139:Middlewares/ST/STM32_SPWF0xSy/Utils/event_buffer.c ****       index=buffer->end/ELEMENT_SIZE;
 150              		.loc 1 139 0
 151 0014 6288     		ldrh	r2, [r4, #2]
 152 0016 C2F3CC02 		ubfx	r2, r2, #3, #13
 153              	.LVL10:
ARM GAS  D:\cygwin64\tmp\ccbcDu34.s 			page 6


 140:Middlewares/ST/STM32_SPWF0xSy/Utils/event_buffer.c ****       buffer->element[index].data_length = data.data_length;
 154              		.loc 1 140 0
 155 001a A168     		ldr	r1, [r4, #8]
 156 001c D300     		lsls	r3, r2, #3
 157 001e 1944     		add	r1, r1, r3
 158 0020 BDF80400 		ldrh	r0, [sp, #4]
 159 0024 8880     		strh	r0, [r1, #4]	@ movhi
 141:Middlewares/ST/STM32_SPWF0xSy/Utils/event_buffer.c ****       buffer->element[index].wind64_pending_packet_no = data.wind64_pending_packet_no;
 160              		.loc 1 141 0
 161 0026 A168     		ldr	r1, [r4, #8]
 162 0028 1944     		add	r1, r1, r3
 163 002a 9DF80200 		ldrb	r0, [sp, #2]	@ zero_extendqisi2
 164 002e 8870     		strb	r0, [r1, #2]
 142:Middlewares/ST/STM32_SPWF0xSy/Utils/event_buffer.c ****       buffer->element[index].socket_id = data.socket_id;
 165              		.loc 1 142 0
 166 0030 A168     		ldr	r1, [r4, #8]
 167 0032 1944     		add	r1, r1, r3
 168 0034 9DF80100 		ldrb	r0, [sp, #1]	@ zero_extendqisi2
 169 0038 4D78     		ldrb	r5, [r1, #1]	@ zero_extendqisi2
 170 003a 60F30305 		bfi	r5, r0, #0, #4
 171 003e 4D70     		strb	r5, [r1, #1]
 143:Middlewares/ST/STM32_SPWF0xSy/Utils/event_buffer.c ****       buffer->element[index].server_id = data.server_id;
 172              		.loc 1 143 0
 173 0040 A168     		ldr	r1, [r4, #8]
 174 0042 1944     		add	r1, r1, r3
 175 0044 0009     		lsrs	r0, r0, #4
 176 0046 4D78     		ldrb	r5, [r1, #1]	@ zero_extendqisi2
 177 0048 60F30715 		bfi	r5, r0, #4, #4
 178 004c 4D70     		strb	r5, [r1, #1]
 144:Middlewares/ST/STM32_SPWF0xSy/Utils/event_buffer.c ****       buffer->element[index].wind = data.wind;
 179              		.loc 1 144 0
 180 004e A168     		ldr	r1, [r4, #8]
 181 0050 9DF80000 		ldrb	r0, [sp]	@ zero_extendqisi2
 182 0054 01F83200 		strb	r0, [r1, r2, lsl #3]
 145:Middlewares/ST/STM32_SPWF0xSy/Utils/event_buffer.c ****       buffer->element[index].event = data.event;
 183              		.loc 1 145 0
 184 0058 A268     		ldr	r2, [r4, #8]
 185              	.LVL11:
 186 005a 1344     		add	r3, r3, r2
 187 005c 9DF80620 		ldrb	r2, [sp, #6]	@ zero_extendqisi2
 188 0060 9A71     		strb	r2, [r3, #6]
 146:Middlewares/ST/STM32_SPWF0xSy/Utils/event_buffer.c ****       buffer->count++;
 189              		.loc 1 146 0
 190 0062 E388     		ldrh	r3, [r4, #6]
 191 0064 9BB2     		uxth	r3, r3
 192 0066 0133     		adds	r3, r3, #1
 193 0068 9BB2     		uxth	r3, r3
 194 006a E380     		strh	r3, [r4, #6]	@ movhi
 147:Middlewares/ST/STM32_SPWF0xSy/Utils/event_buffer.c ****       buffer->end = buffer->end + ELEMENT_SIZE;
 195              		.loc 1 147 0
 196 006c 6388     		ldrh	r3, [r4, #2]
 197 006e 9BB2     		uxth	r3, r3
 198 0070 0833     		adds	r3, r3, #8
 199 0072 9BB2     		uxth	r3, r3
 200 0074 6380     		strh	r3, [r4, #2]	@ movhi
 148:Middlewares/ST/STM32_SPWF0xSy/Utils/event_buffer.c ****       
 149:Middlewares/ST/STM32_SPWF0xSy/Utils/event_buffer.c ****       //wrap around if max size is reached
ARM GAS  D:\cygwin64\tmp\ccbcDu34.s 			page 7


 150:Middlewares/ST/STM32_SPWF0xSy/Utils/event_buffer.c ****       bufsize = (buffer->size);
 201              		.loc 1 150 0
 202 0076 A388     		ldrh	r3, [r4, #4]
 203 0078 9AB2     		uxth	r2, r3
 204              	.LVL12:
 151:Middlewares/ST/STM32_SPWF0xSy/Utils/event_buffer.c ****       buffer->end %= bufsize;
 205              		.loc 1 151 0
 206 007a 6388     		ldrh	r3, [r4, #2]
 207 007c 99B2     		uxth	r1, r3
 208 007e 91FBF2F3 		sdiv	r3, r1, r2
 209 0082 02FB1313 		mls	r3, r2, r3, r1
 210 0086 9BB2     		uxth	r3, r3
 211 0088 6380     		strh	r3, [r4, #2]	@ movhi
 212              	.LVL13:
 213              	.L6:
 152:Middlewares/ST/STM32_SPWF0xSy/Utils/event_buffer.c ****     }
 153:Middlewares/ST/STM32_SPWF0xSy/Utils/event_buffer.c **** }
 214              		.loc 1 153 0
 215 008a 03B0     		add	sp, sp, #12
 216              	.LCFI2:
 217              		.cfi_def_cfa_offset 12
 218              		@ sp needed
 219 008c 30BD     		pop	{r4, r5, pc}
 220              		.cfi_endproc
 221              	.LFE278:
 223              		.section	.text.pop_eventbuffer_queue,"ax",%progbits
 224              		.align	1
 225              		.global	pop_eventbuffer_queue
 226              		.syntax unified
 227              		.thumb
 228              		.thumb_func
 229              		.fpu fpv4-sp-d16
 231              	pop_eventbuffer_queue:
 232              	.LFB279:
 154:Middlewares/ST/STM32_SPWF0xSy/Utils/event_buffer.c **** 
 155:Middlewares/ST/STM32_SPWF0xSy/Utils/event_buffer.c **** /**
 156:Middlewares/ST/STM32_SPWF0xSy/Utils/event_buffer.c ****   * @brief  pop_buffer_queue
 157:Middlewares/ST/STM32_SPWF0xSy/Utils/event_buffer.c ****   *         dequeues the circular buffer
 158:Middlewares/ST/STM32_SPWF0xSy/Utils/event_buffer.c ****   * @param  *buffer : pointer to event buffer
 159:Middlewares/ST/STM32_SPWF0xSy/Utils/event_buffer.c ****   * @retval None
 160:Middlewares/ST/STM32_SPWF0xSy/Utils/event_buffer.c ****   */ 
 161:Middlewares/ST/STM32_SPWF0xSy/Utils/event_buffer.c **** wifi_event_TypeDef * pop_eventbuffer_queue(wifi_event_buffer *buffer) 
 162:Middlewares/ST/STM32_SPWF0xSy/Utils/event_buffer.c **** {
 233              		.loc 1 162 0
 234              		.cfi_startproc
 235              		@ args = 0, pretend = 0, frame = 0
 236              		@ frame_needed = 0, uses_anonymous_args = 0
 237              	.LVL14:
 238 0000 70B5     		push	{r4, r5, r6, lr}
 239              	.LCFI3:
 240              		.cfi_def_cfa_offset 16
 241              		.cfi_offset 4, -16
 242              		.cfi_offset 5, -12
 243              		.cfi_offset 6, -8
 244              		.cfi_offset 14, -4
 245 0002 0446     		mov	r4, r0
 163:Middlewares/ST/STM32_SPWF0xSy/Utils/event_buffer.c ****   int bufsize;
ARM GAS  D:\cygwin64\tmp\ccbcDu34.s 			page 8


 164:Middlewares/ST/STM32_SPWF0xSy/Utils/event_buffer.c ****   uint32_t index;
 165:Middlewares/ST/STM32_SPWF0xSy/Utils/event_buffer.c **** 
 166:Middlewares/ST/STM32_SPWF0xSy/Utils/event_buffer.c ****   if (event_empty(buffer)) 
 246              		.loc 1 166 0
 247 0004 FFF7FEFF 		bl	event_empty
 248              	.LVL15:
 249 0008 0028     		cmp	r0, #0
 250 000a 2FD1     		bne	.L11
 167:Middlewares/ST/STM32_SPWF0xSy/Utils/event_buffer.c ****     {
 168:Middlewares/ST/STM32_SPWF0xSy/Utils/event_buffer.c ****       //printf("\r\Event Buffer Empty!!\r\n");
 169:Middlewares/ST/STM32_SPWF0xSy/Utils/event_buffer.c ****       return NULL;
 170:Middlewares/ST/STM32_SPWF0xSy/Utils/event_buffer.c ****     } 
 171:Middlewares/ST/STM32_SPWF0xSy/Utils/event_buffer.c ****   else
 172:Middlewares/ST/STM32_SPWF0xSy/Utils/event_buffer.c ****     {
 173:Middlewares/ST/STM32_SPWF0xSy/Utils/event_buffer.c ****       /* First in First Out*/
 174:Middlewares/ST/STM32_SPWF0xSy/Utils/event_buffer.c ****       index=buffer->start/ELEMENT_SIZE;
 251              		.loc 1 174 0
 252 000c 2288     		ldrh	r2, [r4]
 253 000e C2F3CC02 		ubfx	r2, r2, #3, #13
 254              	.LVL16:
 175:Middlewares/ST/STM32_SPWF0xSy/Utils/event_buffer.c ****       element.data_length = buffer->element[index].data_length;
 255              		.loc 1 175 0
 256 0012 A568     		ldr	r5, [r4, #8]
 257 0014 05EBC203 		add	r3, r5, r2, lsl #3
 258 0018 9988     		ldrh	r1, [r3, #4]
 259 001a 1548     		ldr	r0, .L13
 260 001c 8180     		strh	r1, [r0, #4]	@ movhi
 176:Middlewares/ST/STM32_SPWF0xSy/Utils/event_buffer.c ****       element.socket_id = buffer->element[index].socket_id;
 261              		.loc 1 176 0
 262 001e 5E78     		ldrb	r6, [r3, #1]	@ zero_extendqisi2
 263 0020 4178     		ldrb	r1, [r0, #1]	@ zero_extendqisi2
 264 0022 66F30301 		bfi	r1, r6, #0, #4
 265 0026 4170     		strb	r1, [r0, #1]
 177:Middlewares/ST/STM32_SPWF0xSy/Utils/event_buffer.c ****       element.server_id = buffer->element[index].server_id;
 266              		.loc 1 177 0
 267 0028 5978     		ldrb	r1, [r3, #1]	@ zero_extendqisi2
 268 002a 0909     		lsrs	r1, r1, #4
 269 002c 4678     		ldrb	r6, [r0, #1]	@ zero_extendqisi2
 270 002e 61F30716 		bfi	r6, r1, #4, #4
 271 0032 4670     		strb	r6, [r0, #1]
 178:Middlewares/ST/STM32_SPWF0xSy/Utils/event_buffer.c ****       element.wind64_pending_packet_no = buffer->element[index].wind64_pending_packet_no;
 272              		.loc 1 178 0
 273 0034 9978     		ldrb	r1, [r3, #2]	@ zero_extendqisi2
 274 0036 8170     		strb	r1, [r0, #2]
 179:Middlewares/ST/STM32_SPWF0xSy/Utils/event_buffer.c ****       element.wind = buffer->element[index].wind;
 275              		.loc 1 179 0
 276 0038 15F83220 		ldrb	r2, [r5, r2, lsl #3]	@ zero_extendqisi2
 277              	.LVL17:
 278 003c 0270     		strb	r2, [r0]
 180:Middlewares/ST/STM32_SPWF0xSy/Utils/event_buffer.c ****       element.event = buffer->element[index].event;
 279              		.loc 1 180 0
 280 003e 9B79     		ldrb	r3, [r3, #6]	@ zero_extendqisi2
 281 0040 8371     		strb	r3, [r0, #6]
 181:Middlewares/ST/STM32_SPWF0xSy/Utils/event_buffer.c ****       buffer->start = buffer->start + ELEMENT_SIZE;
 282              		.loc 1 181 0
 283 0042 2388     		ldrh	r3, [r4]
 284 0044 9BB2     		uxth	r3, r3
ARM GAS  D:\cygwin64\tmp\ccbcDu34.s 			page 9


 285 0046 0833     		adds	r3, r3, #8
 286 0048 9BB2     		uxth	r3, r3
 287 004a 2380     		strh	r3, [r4]	@ movhi
 182:Middlewares/ST/STM32_SPWF0xSy/Utils/event_buffer.c ****       buffer->count--;
 288              		.loc 1 182 0
 289 004c E388     		ldrh	r3, [r4, #6]
 290 004e 9BB2     		uxth	r3, r3
 291 0050 013B     		subs	r3, r3, #1
 292 0052 9BB2     		uxth	r3, r3
 293 0054 E380     		strh	r3, [r4, #6]	@ movhi
 183:Middlewares/ST/STM32_SPWF0xSy/Utils/event_buffer.c **** 
 184:Middlewares/ST/STM32_SPWF0xSy/Utils/event_buffer.c ****       bufsize = (buffer->size);
 294              		.loc 1 184 0
 295 0056 A388     		ldrh	r3, [r4, #4]
 296 0058 9AB2     		uxth	r2, r3
 297              	.LVL18:
 185:Middlewares/ST/STM32_SPWF0xSy/Utils/event_buffer.c ****       buffer->start %= bufsize;
 298              		.loc 1 185 0
 299 005a 2388     		ldrh	r3, [r4]
 300 005c 99B2     		uxth	r1, r3
 301 005e 91FBF2F3 		sdiv	r3, r1, r2
 302 0062 02FB1313 		mls	r3, r2, r3, r1
 303 0066 9BB2     		uxth	r3, r3
 304 0068 2380     		strh	r3, [r4]	@ movhi
 186:Middlewares/ST/STM32_SPWF0xSy/Utils/event_buffer.c ****       return &element;
 305              		.loc 1 186 0
 306 006a 70BD     		pop	{r4, r5, r6, pc}
 307              	.LVL19:
 308              	.L11:
 169:Middlewares/ST/STM32_SPWF0xSy/Utils/event_buffer.c ****     } 
 309              		.loc 1 169 0
 310 006c 0020     		movs	r0, #0
 187:Middlewares/ST/STM32_SPWF0xSy/Utils/event_buffer.c ****     }
 188:Middlewares/ST/STM32_SPWF0xSy/Utils/event_buffer.c **** }
 311              		.loc 1 188 0
 312 006e 70BD     		pop	{r4, r5, r6, pc}
 313              	.LVL20:
 314              	.L14:
 315              		.align	2
 316              	.L13:
 317 0070 00000000 		.word	element
 318              		.cfi_endproc
 319              	.LFE279:
 321              		.section	.text.reset_event,"ax",%progbits
 322              		.align	1
 323              		.global	reset_event
 324              		.syntax unified
 325              		.thumb
 326              		.thumb_func
 327              		.fpu fpv4-sp-d16
 329              	reset_event:
 330              	.LFB280:
 189:Middlewares/ST/STM32_SPWF0xSy/Utils/event_buffer.c **** 
 190:Middlewares/ST/STM32_SPWF0xSy/Utils/event_buffer.c **** /**
 191:Middlewares/ST/STM32_SPWF0xSy/Utils/event_buffer.c ****   * @brief  reset_event
 192:Middlewares/ST/STM32_SPWF0xSy/Utils/event_buffer.c ****   *         sets an event to default values
 193:Middlewares/ST/STM32_SPWF0xSy/Utils/event_buffer.c ****   * @param  *r_event : event to reset
ARM GAS  D:\cygwin64\tmp\ccbcDu34.s 			page 10


 194:Middlewares/ST/STM32_SPWF0xSy/Utils/event_buffer.c ****   * @retval None
 195:Middlewares/ST/STM32_SPWF0xSy/Utils/event_buffer.c ****   */ 
 196:Middlewares/ST/STM32_SPWF0xSy/Utils/event_buffer.c **** void reset_event(wifi_event_TypeDef *r_event)
 197:Middlewares/ST/STM32_SPWF0xSy/Utils/event_buffer.c **** {
 331              		.loc 1 197 0
 332              		.cfi_startproc
 333              		@ args = 0, pretend = 0, frame = 0
 334              		@ frame_needed = 0, uses_anonymous_args = 0
 335              		@ link register save eliminated.
 336              	.LVL21:
 198:Middlewares/ST/STM32_SPWF0xSy/Utils/event_buffer.c ****   r_event->data_length = 0;
 337              		.loc 1 198 0
 338 0000 0023     		movs	r3, #0
 339 0002 8380     		strh	r3, [r0, #4]	@ movhi
 199:Middlewares/ST/STM32_SPWF0xSy/Utils/event_buffer.c ****   r_event->event       = WIFI_NO_EVENT; 
 340              		.loc 1 199 0
 341 0004 8371     		strb	r3, [r0, #6]
 200:Middlewares/ST/STM32_SPWF0xSy/Utils/event_buffer.c ****   r_event->socket_id   = 9;              //Socket ID 0-7
 342              		.loc 1 200 0
 343 0006 4278     		ldrb	r2, [r0, #1]	@ zero_extendqisi2
 344 0008 0923     		movs	r3, #9
 345 000a 63F30302 		bfi	r2, r3, #0, #4
 346 000e 4270     		strb	r2, [r0, #1]
 201:Middlewares/ST/STM32_SPWF0xSy/Utils/event_buffer.c ****   r_event->wind64_pending_packet_no = 9; //Max pending packets = 4
 347              		.loc 1 201 0
 348 0010 8370     		strb	r3, [r0, #2]
 202:Middlewares/ST/STM32_SPWF0xSy/Utils/event_buffer.c ****   r_event->wind        = 99;             //any default value
 349              		.loc 1 202 0
 350 0012 6323     		movs	r3, #99
 351 0014 0370     		strb	r3, [r0]
 352 0016 7047     		bx	lr
 353              		.cfi_endproc
 354              	.LFE280:
 356              		.section	.bss.event_buffer,"aw",%nobits
 357              		.align	2
 358              		.set	.LANCHOR0,. + 0
 361              	event_buffer:
 362 0000 00000000 		.space	400
 362      00000000 
 362      00000000 
 362      00000000 
 362      00000000 
 363              		.text
 364              	.Letext0:
 365              		.file 2 "c:\\program files (x86)\\gnu tools arm embedded\\6 2017-q2-update\\arm-none-eabi\\include
 366              		.file 3 "c:\\program files (x86)\\gnu tools arm embedded\\6 2017-q2-update\\arm-none-eabi\\include
 367              		.file 4 "c:\\program files (x86)\\gnu tools arm embedded\\6 2017-q2-update\\arm-none-eabi\\include
 368              		.file 5 "c:\\program files (x86)\\gnu tools arm embedded\\6 2017-q2-update\\lib\\gcc\\arm-none-eab
 369              		.file 6 "c:\\program files (x86)\\gnu tools arm embedded\\6 2017-q2-update\\arm-none-eabi\\include
 370              		.file 7 "c:\\program files (x86)\\gnu tools arm embedded\\6 2017-q2-update\\arm-none-eabi\\include
 371              		.file 8 "c:\\program files (x86)\\gnu tools arm embedded\\6 2017-q2-update\\arm-none-eabi\\include
 372              		.file 9 "Drivers/CMSIS/Include/core_cm4.h"
 373              		.file 10 "Drivers/CMSIS/Device/ST/STM32F4xx/Include/system_stm32f4xx.h"
 374              		.file 11 "Drivers/CMSIS/Device/ST/STM32F4xx/Include/stm32f401xe.h"
 375              		.file 12 "Drivers/CMSIS/Device/ST/STM32F4xx/Include/stm32f4xx.h"
 376              		.file 13 "Drivers/STM32F4xx_HAL_Driver/Inc/stm32f4xx_hal_def.h"
 377              		.file 14 "Drivers/STM32F4xx_HAL_Driver/Inc/stm32f4xx_hal_dma.h"
ARM GAS  D:\cygwin64\tmp\ccbcDu34.s 			page 11


 378              		.file 15 "Drivers/STM32F4xx_HAL_Driver/Inc/stm32f4xx_hal_tim.h"
 379              		.file 16 "Drivers/STM32F4xx_HAL_Driver/Inc/stm32f4xx_hal_uart.h"
 380              		.file 17 "Drivers/STM32F4xx_HAL_Driver/Inc/stm32f4xx_hal.h"
 381              		.file 18 "Drivers/STM32F4xx_HAL_Driver/Inc/stm32f4xx_hal_spi.h"
 382              		.file 19 "Middlewares/ST/STM32_SPWF0xSy/Inc/wifi_interface.h"
 383              		.file 20 "Middlewares/ST/STM32_SPWF0xSy/Utils/event_buffer.h"
 384              		.file 21 "c:\\program files (x86)\\gnu tools arm embedded\\6 2017-q2-update\\arm-none-eabi\\includ
 385              		.file 22 "Middlewares/ST/STM32_SPWF0xSy/Inc/wifi_module.h"
 386              		.file 23 "Middlewares/ST/STM32_SPWF0xSy/Utils/wifi_globals.h"
 387              		.file 24 "Drivers/STM32F4xx_HAL_Driver/Inc/stm32f4xx_ll_dma.h"
ARM GAS  D:\cygwin64\tmp\ccbcDu34.s 			page 12

