ARM GAS  /tmp/ccm2BlVe.s 			page 1


   1              		.cpu cortex-m4
   2              		.eabi_attribute 27, 1
   3              		.eabi_attribute 28, 1
   4              		.eabi_attribute 20, 1
   5              		.eabi_attribute 21, 1
   6              		.eabi_attribute 23, 3
   7              		.eabi_attribute 24, 1
   8              		.eabi_attribute 25, 1
   9              		.eabi_attribute 26, 1
  10              		.eabi_attribute 30, 1
  11              		.eabi_attribute 34, 1
  12              		.eabi_attribute 18, 4
  13              		.file	"event_buffer.c"
  14              		.text
  15              	.Ltext0:
  16              		.cfi_sections	.debug_frame
  17              		.section	.text.event_init,"ax",%progbits
  18              		.align	1
  19              		.global	event_init
  20              		.arch armv7e-m
  21              		.syntax unified
  22              		.thumb
  23              		.thumb_func
  24              		.fpu fpv4-sp-d16
  26              	event_init:
  27              	.LVL0:
  28              	.LFB279:
  29              		.file 1 "Middlewares/ST/STM32_SPWF0xSy/Utils/event_buffer.c"
   1:Middlewares/ST/STM32_SPWF0xSy/Utils/event_buffer.c **** /**
   2:Middlewares/ST/STM32_SPWF0xSy/Utils/event_buffer.c ****  ******************************************************************************
   3:Middlewares/ST/STM32_SPWF0xSy/Utils/event_buffer.c ****  * @file    event_buffer.c
   4:Middlewares/ST/STM32_SPWF0xSy/Utils/event_buffer.c ****  * @author  Central LAB
   5:Middlewares/ST/STM32_SPWF0xSy/Utils/event_buffer.c ****  * @version V2.1.0
   6:Middlewares/ST/STM32_SPWF0xSy/Utils/event_buffer.c ****  * @date    17-May-2016
   7:Middlewares/ST/STM32_SPWF0xSy/Utils/event_buffer.c ****  * @brief   Implements the Event Buffer management of the Wi-Fi module
   8:Middlewares/ST/STM32_SPWF0xSy/Utils/event_buffer.c ****  ******************************************************************************
   9:Middlewares/ST/STM32_SPWF0xSy/Utils/event_buffer.c ****  * @attention
  10:Middlewares/ST/STM32_SPWF0xSy/Utils/event_buffer.c ****  *
  11:Middlewares/ST/STM32_SPWF0xSy/Utils/event_buffer.c ****  * <h2><center>&copy; COPYRIGHT(c) 2015 STMicroelectronics</center></h2>
  12:Middlewares/ST/STM32_SPWF0xSy/Utils/event_buffer.c ****  *
  13:Middlewares/ST/STM32_SPWF0xSy/Utils/event_buffer.c ****  * Redistribution and use in source and binary forms, with or without modification,
  14:Middlewares/ST/STM32_SPWF0xSy/Utils/event_buffer.c ****  * are permitted provided that the following conditions are met:
  15:Middlewares/ST/STM32_SPWF0xSy/Utils/event_buffer.c ****  *   1. Redistributions of source code must retain the above copyright notice,
  16:Middlewares/ST/STM32_SPWF0xSy/Utils/event_buffer.c ****  *      this list of conditions and the following disclaimer.
  17:Middlewares/ST/STM32_SPWF0xSy/Utils/event_buffer.c ****  *   2. Redistributions in binary form must reproduce the above copyright notice,
  18:Middlewares/ST/STM32_SPWF0xSy/Utils/event_buffer.c ****  *      this list of conditions and the following disclaimer in the documentation
  19:Middlewares/ST/STM32_SPWF0xSy/Utils/event_buffer.c ****  *      and/or other materials provided with the distribution.
  20:Middlewares/ST/STM32_SPWF0xSy/Utils/event_buffer.c ****  *   3. Neither the name of STMicroelectronics nor the names of its contributors
  21:Middlewares/ST/STM32_SPWF0xSy/Utils/event_buffer.c ****  *      may be used to endorse or promote products derived from this software
  22:Middlewares/ST/STM32_SPWF0xSy/Utils/event_buffer.c ****  *      without specific prior written permission.
  23:Middlewares/ST/STM32_SPWF0xSy/Utils/event_buffer.c ****  *
  24:Middlewares/ST/STM32_SPWF0xSy/Utils/event_buffer.c ****  * THIS SOFTWARE IS PROVIDED BY THE COPYRIGHT HOLDERS AND CONTRIBUTORS "AS IS"
  25:Middlewares/ST/STM32_SPWF0xSy/Utils/event_buffer.c ****  * AND ANY EXPRESS OR IMPLIED WARRANTIES, INCLUDING, BUT NOT LIMITED TO, THE
  26:Middlewares/ST/STM32_SPWF0xSy/Utils/event_buffer.c ****  * IMPLIED WARRANTIES OF MERCHANTABILITY AND FITNESS FOR A PARTICULAR PURPOSE ARE
  27:Middlewares/ST/STM32_SPWF0xSy/Utils/event_buffer.c ****  * DISCLAIMED. IN NO EVENT SHALL THE COPYRIGHT HOLDER OR CONTRIBUTORS BE LIABLE
  28:Middlewares/ST/STM32_SPWF0xSy/Utils/event_buffer.c ****  * FOR ANY DIRECT, INDIRECT, INCIDENTAL, SPECIAL, EXEMPLARY, OR CONSEQUENTIAL
  29:Middlewares/ST/STM32_SPWF0xSy/Utils/event_buffer.c ****  * DAMAGES (INCLUDING, BUT NOT LIMITED TO, PROCUREMENT OF SUBSTITUTE GOODS OR
ARM GAS  /tmp/ccm2BlVe.s 			page 2


  30:Middlewares/ST/STM32_SPWF0xSy/Utils/event_buffer.c ****  * SERVICES; LOSS OF USE, DATA, OR PROFITS; OR BUSINESS INTERRUPTION) HOWEVER
  31:Middlewares/ST/STM32_SPWF0xSy/Utils/event_buffer.c ****  * CAUSED AND ON ANY THEORY OF LIABILITY, WHETHER IN CONTRACT, STRICT LIABILITY,
  32:Middlewares/ST/STM32_SPWF0xSy/Utils/event_buffer.c ****  * OR TORT (INCLUDING NEGLIGENCE OR OTHERWISE) ARISING IN ANY WAY OUT OF THE USE
  33:Middlewares/ST/STM32_SPWF0xSy/Utils/event_buffer.c ****  * OF THIS SOFTWARE, EVEN IF ADVISED OF THE POSSIBILITY OF SUCH DAMAGE.
  34:Middlewares/ST/STM32_SPWF0xSy/Utils/event_buffer.c ****  *
  35:Middlewares/ST/STM32_SPWF0xSy/Utils/event_buffer.c ****  ******************************************************************************
  36:Middlewares/ST/STM32_SPWF0xSy/Utils/event_buffer.c ****  */
  37:Middlewares/ST/STM32_SPWF0xSy/Utils/event_buffer.c **** 
  38:Middlewares/ST/STM32_SPWF0xSy/Utils/event_buffer.c **** #include <stdio.h>
  39:Middlewares/ST/STM32_SPWF0xSy/Utils/event_buffer.c **** #include <stdlib.h>
  40:Middlewares/ST/STM32_SPWF0xSy/Utils/event_buffer.c **** #include "event_buffer.h"
  41:Middlewares/ST/STM32_SPWF0xSy/Utils/event_buffer.c **** #include "wifi_module.h"
  42:Middlewares/ST/STM32_SPWF0xSy/Utils/event_buffer.c **** #include "wifi_globals.h"
  43:Middlewares/ST/STM32_SPWF0xSy/Utils/event_buffer.c **** 
  44:Middlewares/ST/STM32_SPWF0xSy/Utils/event_buffer.c **** /** @addtogroup BSP
  45:Middlewares/ST/STM32_SPWF0xSy/Utils/event_buffer.c **** * @{
  46:Middlewares/ST/STM32_SPWF0xSy/Utils/event_buffer.c **** */ 
  47:Middlewares/ST/STM32_SPWF0xSy/Utils/event_buffer.c **** 
  48:Middlewares/ST/STM32_SPWF0xSy/Utils/event_buffer.c **** /** @defgroup  NUCLEO_WIFI_BUFFER_MGMT
  49:Middlewares/ST/STM32_SPWF0xSy/Utils/event_buffer.c ****   * @brief Wi-Fi_driver modules
  50:Middlewares/ST/STM32_SPWF0xSy/Utils/event_buffer.c ****   * @{
  51:Middlewares/ST/STM32_SPWF0xSy/Utils/event_buffer.c ****   */ 
  52:Middlewares/ST/STM32_SPWF0xSy/Utils/event_buffer.c **** 
  53:Middlewares/ST/STM32_SPWF0xSy/Utils/event_buffer.c **** /** @defgroup NUCLEO_WIFI_BUFFER_MGMT_Private_Defines
  54:Middlewares/ST/STM32_SPWF0xSy/Utils/event_buffer.c ****   * @{
  55:Middlewares/ST/STM32_SPWF0xSy/Utils/event_buffer.c ****   */
  56:Middlewares/ST/STM32_SPWF0xSy/Utils/event_buffer.c **** 
  57:Middlewares/ST/STM32_SPWF0xSy/Utils/event_buffer.c **** /**
  58:Middlewares/ST/STM32_SPWF0xSy/Utils/event_buffer.c ****   * @}
  59:Middlewares/ST/STM32_SPWF0xSy/Utils/event_buffer.c ****   */
  60:Middlewares/ST/STM32_SPWF0xSy/Utils/event_buffer.c **** 
  61:Middlewares/ST/STM32_SPWF0xSy/Utils/event_buffer.c **** /** @defgroup NUCLEO_WIFI_BUFFER_MGMT_Private_Variables
  62:Middlewares/ST/STM32_SPWF0xSy/Utils/event_buffer.c ****   * @{
  63:Middlewares/ST/STM32_SPWF0xSy/Utils/event_buffer.c ****   */
  64:Middlewares/ST/STM32_SPWF0xSy/Utils/event_buffer.c **** 
  65:Middlewares/ST/STM32_SPWF0xSy/Utils/event_buffer.c **** #define ELEMENT_SIZE sizeof(wifi_event_TypeDef)   //1
  66:Middlewares/ST/STM32_SPWF0xSy/Utils/event_buffer.c **** 
  67:Middlewares/ST/STM32_SPWF0xSy/Utils/event_buffer.c **** #ifdef USE_STM32L0XX_NUCLEO
  68:Middlewares/ST/STM32_SPWF0xSy/Utils/event_buffer.c **** static wifi_event_TypeDef event_buffer[10];  /* Used to store various events. Its size varies in ca
  69:Middlewares/ST/STM32_SPWF0xSy/Utils/event_buffer.c **** #else
  70:Middlewares/ST/STM32_SPWF0xSy/Utils/event_buffer.c **** static wifi_event_TypeDef event_buffer[50];
  71:Middlewares/ST/STM32_SPWF0xSy/Utils/event_buffer.c **** #endif
  72:Middlewares/ST/STM32_SPWF0xSy/Utils/event_buffer.c **** 
  73:Middlewares/ST/STM32_SPWF0xSy/Utils/event_buffer.c **** /**
  74:Middlewares/ST/STM32_SPWF0xSy/Utils/event_buffer.c ****   * @}
  75:Middlewares/ST/STM32_SPWF0xSy/Utils/event_buffer.c ****   */
  76:Middlewares/ST/STM32_SPWF0xSy/Utils/event_buffer.c **** 
  77:Middlewares/ST/STM32_SPWF0xSy/Utils/event_buffer.c **** /** @defgroup NUCLEO_WIFI_BUFFER_MGMT_Private_Functions
  78:Middlewares/ST/STM32_SPWF0xSy/Utils/event_buffer.c ****   * @{
  79:Middlewares/ST/STM32_SPWF0xSy/Utils/event_buffer.c ****   */
  80:Middlewares/ST/STM32_SPWF0xSy/Utils/event_buffer.c **** 
  81:Middlewares/ST/STM32_SPWF0xSy/Utils/event_buffer.c **** /**
  82:Middlewares/ST/STM32_SPWF0xSy/Utils/event_buffer.c ****   * @brief  init
  83:Middlewares/ST/STM32_SPWF0xSy/Utils/event_buffer.c ****   *         Initialize a circular buffer of type wifi_event_buffer
  84:Middlewares/ST/STM32_SPWF0xSy/Utils/event_buffer.c ****   * @param  *buffer : pointer to event buffer
  85:Middlewares/ST/STM32_SPWF0xSy/Utils/event_buffer.c ****   * @param  size    : Number of events in Event_Buffer
  86:Middlewares/ST/STM32_SPWF0xSy/Utils/event_buffer.c ****   * @retval None
ARM GAS  /tmp/ccm2BlVe.s 			page 3


  87:Middlewares/ST/STM32_SPWF0xSy/Utils/event_buffer.c ****   */
  88:Middlewares/ST/STM32_SPWF0xSy/Utils/event_buffer.c **** void event_init(wifi_event_buffer *buffer, int size) 
  89:Middlewares/ST/STM32_SPWF0xSy/Utils/event_buffer.c **** {
  30              		.loc 1 89 1 view -0
  31              		.cfi_startproc
  32              		@ args = 0, pretend = 0, frame = 0
  33              		@ frame_needed = 0, uses_anonymous_args = 0
  34              		@ link register save eliminated.
  90:Middlewares/ST/STM32_SPWF0xSy/Utils/event_buffer.c ****     uint32_t element_size;
  35              		.loc 1 90 5 view .LVU1
  91:Middlewares/ST/STM32_SPWF0xSy/Utils/event_buffer.c ****     element_size = sizeof(wifi_event_TypeDef);
  36              		.loc 1 91 5 view .LVU2
  92:Middlewares/ST/STM32_SPWF0xSy/Utils/event_buffer.c ****     buffer->size = element_size*size;
  37              		.loc 1 92 5 view .LVU3
  38              		.loc 1 92 18 is_stmt 0 view .LVU4
  39 0000 C900     		lsls	r1, r1, #3
  40              	.LVL1:
  41              		.loc 1 92 18 view .LVU5
  42 0002 89B2     		uxth	r1, r1
  43 0004 8180     		strh	r1, [r0, #4]	@ movhi
  93:Middlewares/ST/STM32_SPWF0xSy/Utils/event_buffer.c ****     buffer->start = 0;
  44              		.loc 1 93 5 is_stmt 1 view .LVU6
  45              		.loc 1 93 19 is_stmt 0 view .LVU7
  46 0006 0023     		movs	r3, #0
  47 0008 0380     		strh	r3, [r0]	@ movhi
  94:Middlewares/ST/STM32_SPWF0xSy/Utils/event_buffer.c ****     buffer->count = 0;
  48              		.loc 1 94 5 is_stmt 1 view .LVU8
  49              		.loc 1 94 19 is_stmt 0 view .LVU9
  50 000a C380     		strh	r3, [r0, #6]	@ movhi
  95:Middlewares/ST/STM32_SPWF0xSy/Utils/event_buffer.c ****     buffer->end = 0;
  51              		.loc 1 95 5 is_stmt 1 view .LVU10
  52              		.loc 1 95 17 is_stmt 0 view .LVU11
  53 000c 4380     		strh	r3, [r0, #2]	@ movhi
  96:Middlewares/ST/STM32_SPWF0xSy/Utils/event_buffer.c ****     buffer->element = event_buffer;
  54              		.loc 1 96 5 is_stmt 1 view .LVU12
  55              		.loc 1 96 21 is_stmt 0 view .LVU13
  56 000e 014B     		ldr	r3, .L2
  57 0010 8360     		str	r3, [r0, #8]
  97:Middlewares/ST/STM32_SPWF0xSy/Utils/event_buffer.c **** }
  58              		.loc 1 97 1 view .LVU14
  59 0012 7047     		bx	lr
  60              	.L3:
  61              		.align	2
  62              	.L2:
  63 0014 00000000 		.word	.LANCHOR0
  64              		.cfi_endproc
  65              	.LFE279:
  67              		.section	.text.event_full,"ax",%progbits
  68              		.align	1
  69              		.global	event_full
  70              		.syntax unified
  71              		.thumb
  72              		.thumb_func
  73              		.fpu fpv4-sp-d16
  75              	event_full:
  76              	.LVL2:
  77              	.LFB280:
ARM GAS  /tmp/ccm2BlVe.s 			page 4


  98:Middlewares/ST/STM32_SPWF0xSy/Utils/event_buffer.c **** 
  99:Middlewares/ST/STM32_SPWF0xSy/Utils/event_buffer.c **** /**
 100:Middlewares/ST/STM32_SPWF0xSy/Utils/event_buffer.c ****   * @brief  full
 101:Middlewares/ST/STM32_SPWF0xSy/Utils/event_buffer.c ****   *         indicates if the given buffer is full or not
 102:Middlewares/ST/STM32_SPWF0xSy/Utils/event_buffer.c ****   * @param  *buffer : pointer to event buffer
 103:Middlewares/ST/STM32_SPWF0xSy/Utils/event_buffer.c ****   * @retval status of event_buffer (=1 if full =0 if otherwise)
 104:Middlewares/ST/STM32_SPWF0xSy/Utils/event_buffer.c ****   */
 105:Middlewares/ST/STM32_SPWF0xSy/Utils/event_buffer.c **** int event_full(wifi_event_buffer *buffer) 
 106:Middlewares/ST/STM32_SPWF0xSy/Utils/event_buffer.c **** {
  78              		.loc 1 106 1 is_stmt 1 view -0
  79              		.cfi_startproc
  80              		@ args = 0, pretend = 0, frame = 0
  81              		@ frame_needed = 0, uses_anonymous_args = 0
  82              		@ link register save eliminated.
 107:Middlewares/ST/STM32_SPWF0xSy/Utils/event_buffer.c ****   int bufsize = buffer->size;
  83              		.loc 1 107 3 view .LVU16
  84              		.loc 1 107 23 is_stmt 0 view .LVU17
  85 0000 8388     		ldrh	r3, [r0, #4]
  86              	.LVL3:
 108:Middlewares/ST/STM32_SPWF0xSy/Utils/event_buffer.c ****   return buffer->count == (bufsize/ELEMENT_SIZE) ? 1 : 0;
  87              		.loc 1 108 3 is_stmt 1 view .LVU18
  88              		.loc 1 108 16 is_stmt 0 view .LVU19
  89 0002 C088     		ldrh	r0, [r0, #6]
  90              	.LVL4:
  91              		.loc 1 108 16 view .LVU20
  92 0004 80B2     		uxth	r0, r0
  93              		.loc 1 108 35 view .LVU21
  94 0006 C3F3CC03 		ubfx	r3, r3, #3, #13
  95              	.LVL5:
 109:Middlewares/ST/STM32_SPWF0xSy/Utils/event_buffer.c **** }
  96              		.loc 1 109 1 view .LVU22
  97 000a 9842     		cmp	r0, r3
  98 000c 14BF     		ite	ne
  99 000e 0020     		movne	r0, #0
 100 0010 0120     		moveq	r0, #1
 101 0012 7047     		bx	lr
 102              		.cfi_endproc
 103              	.LFE280:
 105              		.section	.text.event_empty,"ax",%progbits
 106              		.align	1
 107              		.global	event_empty
 108              		.syntax unified
 109              		.thumb
 110              		.thumb_func
 111              		.fpu fpv4-sp-d16
 113              	event_empty:
 114              	.LVL6:
 115              	.LFB281:
 110:Middlewares/ST/STM32_SPWF0xSy/Utils/event_buffer.c **** 
 111:Middlewares/ST/STM32_SPWF0xSy/Utils/event_buffer.c **** /**
 112:Middlewares/ST/STM32_SPWF0xSy/Utils/event_buffer.c ****   * @brief  empty
 113:Middlewares/ST/STM32_SPWF0xSy/Utils/event_buffer.c ****   *         indicates if the given buffer is empty or not
 114:Middlewares/ST/STM32_SPWF0xSy/Utils/event_buffer.c ****   * @param  *buffer : pointer to event buffer
 115:Middlewares/ST/STM32_SPWF0xSy/Utils/event_buffer.c ****   * @retval status of event_buffer (=1 if empty =0 if otherwise)
 116:Middlewares/ST/STM32_SPWF0xSy/Utils/event_buffer.c ****   */
 117:Middlewares/ST/STM32_SPWF0xSy/Utils/event_buffer.c **** int event_empty(wifi_event_buffer *buffer) {
 116              		.loc 1 117 44 is_stmt 1 view -0
ARM GAS  /tmp/ccm2BlVe.s 			page 5


 117              		.cfi_startproc
 118              		@ args = 0, pretend = 0, frame = 0
 119              		@ frame_needed = 0, uses_anonymous_args = 0
 120              		@ link register save eliminated.
 118:Middlewares/ST/STM32_SPWF0xSy/Utils/event_buffer.c ****     return buffer->count == 0 ? 1 : 0;
 121              		.loc 1 118 5 view .LVU24
 122              		.loc 1 118 18 is_stmt 0 view .LVU25
 123 0000 C088     		ldrh	r0, [r0, #6]
 124              	.LVL7:
 125              		.loc 1 118 18 view .LVU26
 126 0002 80B2     		uxth	r0, r0
 119:Middlewares/ST/STM32_SPWF0xSy/Utils/event_buffer.c **** }
 127              		.loc 1 119 1 view .LVU27
 128 0004 B0FA80F0 		clz	r0, r0
 129 0008 4009     		lsrs	r0, r0, #5
 130 000a 7047     		bx	lr
 131              		.cfi_endproc
 132              	.LFE281:
 134              		.section	.text.push_eventbuffer_queue,"ax",%progbits
 135              		.align	1
 136              		.global	push_eventbuffer_queue
 137              		.syntax unified
 138              		.thumb
 139              		.thumb_func
 140              		.fpu fpv4-sp-d16
 142              	push_eventbuffer_queue:
 143              	.LVL8:
 144              	.LFB282:
 120:Middlewares/ST/STM32_SPWF0xSy/Utils/event_buffer.c **** 
 121:Middlewares/ST/STM32_SPWF0xSy/Utils/event_buffer.c **** /**
 122:Middlewares/ST/STM32_SPWF0xSy/Utils/event_buffer.c ****   * @brief  push_buffer
 123:Middlewares/ST/STM32_SPWF0xSy/Utils/event_buffer.c ****   *         pushes the data structure onto the circular buffer (queues it)
 124:Middlewares/ST/STM32_SPWF0xSy/Utils/event_buffer.c ****   * @param  *buffer : pointer to event buffer
 125:Middlewares/ST/STM32_SPWF0xSy/Utils/event_buffer.c ****   * @param  data : data to be Queued in event_buffer
 126:Middlewares/ST/STM32_SPWF0xSy/Utils/event_buffer.c ****   * @retval None
 127:Middlewares/ST/STM32_SPWF0xSy/Utils/event_buffer.c ****   */
 128:Middlewares/ST/STM32_SPWF0xSy/Utils/event_buffer.c **** void push_eventbuffer_queue(wifi_event_buffer *buffer, wifi_event_TypeDef data) 
 129:Middlewares/ST/STM32_SPWF0xSy/Utils/event_buffer.c **** {
 145              		.loc 1 129 1 is_stmt 1 view -0
 146              		.cfi_startproc
 147              		@ args = 0, pretend = 0, frame = 8
 148              		@ frame_needed = 0, uses_anonymous_args = 0
 149              		.loc 1 129 1 is_stmt 0 view .LVU29
 150 0000 10B5     		push	{r4, lr}
 151              	.LCFI0:
 152              		.cfi_def_cfa_offset 8
 153              		.cfi_offset 4, -8
 154              		.cfi_offset 14, -4
 155 0002 82B0     		sub	sp, sp, #8
 156              	.LCFI1:
 157              		.cfi_def_cfa_offset 16
 158 0004 0446     		mov	r4, r0
 159 0006 02AB     		add	r3, sp, #8
 160 0008 03E90600 		stmdb	r3, {r1, r2}
 130:Middlewares/ST/STM32_SPWF0xSy/Utils/event_buffer.c ****   int bufsize;
 161              		.loc 1 130 3 is_stmt 1 view .LVU30
 131:Middlewares/ST/STM32_SPWF0xSy/Utils/event_buffer.c ****   uint32_t index;
ARM GAS  /tmp/ccm2BlVe.s 			page 6


 162              		.loc 1 131 3 view .LVU31
 132:Middlewares/ST/STM32_SPWF0xSy/Utils/event_buffer.c ****   
 133:Middlewares/ST/STM32_SPWF0xSy/Utils/event_buffer.c ****   if (event_full(buffer))
 163              		.loc 1 133 3 view .LVU32
 164              		.loc 1 133 7 is_stmt 0 view .LVU33
 165 000c FFF7FEFF 		bl	event_full
 166              	.LVL9:
 167              		.loc 1 133 6 view .LVU34
 168 0010 0028     		cmp	r0, #0
 169 0012 3ED1     		bne	.L6
 134:Middlewares/ST/STM32_SPWF0xSy/Utils/event_buffer.c ****     {
 135:Middlewares/ST/STM32_SPWF0xSy/Utils/event_buffer.c ****       return;
 136:Middlewares/ST/STM32_SPWF0xSy/Utils/event_buffer.c ****     } 
 137:Middlewares/ST/STM32_SPWF0xSy/Utils/event_buffer.c ****   else 
 138:Middlewares/ST/STM32_SPWF0xSy/Utils/event_buffer.c ****     {
 139:Middlewares/ST/STM32_SPWF0xSy/Utils/event_buffer.c ****       index=buffer->end/ELEMENT_SIZE;
 170              		.loc 1 139 7 is_stmt 1 view .LVU35
 171              		.loc 1 139 19 is_stmt 0 view .LVU36
 172 0014 6388     		ldrh	r3, [r4, #2]
 173              		.loc 1 139 24 view .LVU37
 174 0016 C3F3CC03 		ubfx	r3, r3, #3, #13
 175              	.LVL10:
 140:Middlewares/ST/STM32_SPWF0xSy/Utils/event_buffer.c ****       buffer->element[index].data_length = data.data_length;
 176              		.loc 1 140 7 is_stmt 1 view .LVU38
 177              		.loc 1 140 13 is_stmt 0 view .LVU39
 178 001a A268     		ldr	r2, [r4, #8]
 179              		.loc 1 140 22 view .LVU40
 180 001c 02EBC302 		add	r2, r2, r3, lsl #3
 181              		.loc 1 140 48 view .LVU41
 182 0020 BDF80410 		ldrh	r1, [sp, #4]
 183              		.loc 1 140 42 view .LVU42
 184 0024 9180     		strh	r1, [r2, #4]	@ movhi
 141:Middlewares/ST/STM32_SPWF0xSy/Utils/event_buffer.c ****       buffer->element[index].wind64_pending_packet_no = data.wind64_pending_packet_no;
 185              		.loc 1 141 7 is_stmt 1 view .LVU43
 186              		.loc 1 141 13 is_stmt 0 view .LVU44
 187 0026 A268     		ldr	r2, [r4, #8]
 188              		.loc 1 141 22 view .LVU45
 189 0028 02EBC302 		add	r2, r2, r3, lsl #3
 190              		.loc 1 141 61 view .LVU46
 191 002c 9DF80210 		ldrb	r1, [sp, #2]	@ zero_extendqisi2
 192              		.loc 1 141 55 view .LVU47
 193 0030 9170     		strb	r1, [r2, #2]
 142:Middlewares/ST/STM32_SPWF0xSy/Utils/event_buffer.c ****       buffer->element[index].socket_id = data.socket_id;
 194              		.loc 1 142 7 is_stmt 1 view .LVU48
 195              		.loc 1 142 13 is_stmt 0 view .LVU49
 196 0032 A268     		ldr	r2, [r4, #8]
 197              		.loc 1 142 22 view .LVU50
 198 0034 02EBC302 		add	r2, r2, r3, lsl #3
 199              		.loc 1 142 46 view .LVU51
 200 0038 9DF80110 		ldrb	r1, [sp, #1]	@ zero_extendqisi2
 201              		.loc 1 142 40 view .LVU52
 202 003c 5078     		ldrb	r0, [r2, #1]	@ zero_extendqisi2
 203 003e 61F30300 		bfi	r0, r1, #0, #4
 204 0042 5070     		strb	r0, [r2, #1]
 143:Middlewares/ST/STM32_SPWF0xSy/Utils/event_buffer.c ****       buffer->element[index].server_id = data.server_id;
 205              		.loc 1 143 7 is_stmt 1 view .LVU53
 206              		.loc 1 143 13 is_stmt 0 view .LVU54
ARM GAS  /tmp/ccm2BlVe.s 			page 7


 207 0044 A268     		ldr	r2, [r4, #8]
 208              		.loc 1 143 22 view .LVU55
 209 0046 02EBC302 		add	r2, r2, r3, lsl #3
 210              		.loc 1 143 46 view .LVU56
 211 004a 0909     		lsrs	r1, r1, #4
 212              		.loc 1 143 40 view .LVU57
 213 004c 5078     		ldrb	r0, [r2, #1]	@ zero_extendqisi2
 214 004e 61F30710 		bfi	r0, r1, #4, #4
 215 0052 5070     		strb	r0, [r2, #1]
 144:Middlewares/ST/STM32_SPWF0xSy/Utils/event_buffer.c ****       buffer->element[index].wind = data.wind;
 216              		.loc 1 144 7 is_stmt 1 view .LVU58
 217              		.loc 1 144 13 is_stmt 0 view .LVU59
 218 0054 A268     		ldr	r2, [r4, #8]
 219              		.loc 1 144 41 view .LVU60
 220 0056 9DF80010 		ldrb	r1, [sp]	@ zero_extendqisi2
 221              		.loc 1 144 35 view .LVU61
 222 005a 02F83310 		strb	r1, [r2, r3, lsl #3]
 145:Middlewares/ST/STM32_SPWF0xSy/Utils/event_buffer.c ****       buffer->element[index].event = data.event;
 223              		.loc 1 145 7 is_stmt 1 view .LVU62
 224              		.loc 1 145 13 is_stmt 0 view .LVU63
 225 005e A268     		ldr	r2, [r4, #8]
 226              		.loc 1 145 22 view .LVU64
 227 0060 02EBC303 		add	r3, r2, r3, lsl #3
 228              	.LVL11:
 229              		.loc 1 145 42 view .LVU65
 230 0064 9DF80620 		ldrb	r2, [sp, #6]	@ zero_extendqisi2
 231              		.loc 1 145 36 view .LVU66
 232 0068 9A71     		strb	r2, [r3, #6]
 146:Middlewares/ST/STM32_SPWF0xSy/Utils/event_buffer.c ****       buffer->count++;
 233              		.loc 1 146 7 is_stmt 1 view .LVU67
 234              		.loc 1 146 13 is_stmt 0 view .LVU68
 235 006a E388     		ldrh	r3, [r4, #6]
 236 006c 9BB2     		uxth	r3, r3
 237              		.loc 1 146 20 view .LVU69
 238 006e 0133     		adds	r3, r3, #1
 239 0070 9BB2     		uxth	r3, r3
 240 0072 E380     		strh	r3, [r4, #6]	@ movhi
 147:Middlewares/ST/STM32_SPWF0xSy/Utils/event_buffer.c ****       buffer->end = buffer->end + ELEMENT_SIZE;
 241              		.loc 1 147 7 is_stmt 1 view .LVU70
 242              		.loc 1 147 27 is_stmt 0 view .LVU71
 243 0074 6388     		ldrh	r3, [r4, #2]
 244 0076 9BB2     		uxth	r3, r3
 245              		.loc 1 147 33 view .LVU72
 246 0078 0833     		adds	r3, r3, #8
 247 007a 9BB2     		uxth	r3, r3
 248              		.loc 1 147 19 view .LVU73
 249 007c 6380     		strh	r3, [r4, #2]	@ movhi
 148:Middlewares/ST/STM32_SPWF0xSy/Utils/event_buffer.c ****       
 149:Middlewares/ST/STM32_SPWF0xSy/Utils/event_buffer.c ****       //wrap around if max size is reached
 150:Middlewares/ST/STM32_SPWF0xSy/Utils/event_buffer.c ****       bufsize = (buffer->size);
 250              		.loc 1 150 7 is_stmt 1 view .LVU74
 251              		.loc 1 150 24 is_stmt 0 view .LVU75
 252 007e A388     		ldrh	r3, [r4, #4]
 253 0080 9AB2     		uxth	r2, r3
 254              	.LVL12:
 151:Middlewares/ST/STM32_SPWF0xSy/Utils/event_buffer.c ****       buffer->end %= bufsize;
 255              		.loc 1 151 7 is_stmt 1 view .LVU76
ARM GAS  /tmp/ccm2BlVe.s 			page 8


 256              		.loc 1 151 19 is_stmt 0 view .LVU77
 257 0082 6388     		ldrh	r3, [r4, #2]
 258 0084 99B2     		uxth	r1, r3
 259 0086 91FBF2F3 		sdiv	r3, r1, r2
 260 008a 02FB1313 		mls	r3, r2, r3, r1
 261 008e 9BB2     		uxth	r3, r3
 262 0090 6380     		strh	r3, [r4, #2]	@ movhi
 263              	.LVL13:
 264              	.L6:
 152:Middlewares/ST/STM32_SPWF0xSy/Utils/event_buffer.c ****     }
 153:Middlewares/ST/STM32_SPWF0xSy/Utils/event_buffer.c **** }
 265              		.loc 1 153 1 view .LVU78
 266 0092 02B0     		add	sp, sp, #8
 267              	.LCFI2:
 268              		.cfi_def_cfa_offset 8
 269              		@ sp needed
 270 0094 10BD     		pop	{r4, pc}
 271              		.loc 1 153 1 view .LVU79
 272              		.cfi_endproc
 273              	.LFE282:
 275              		.section	.text.pop_eventbuffer_queue,"ax",%progbits
 276              		.align	1
 277              		.global	pop_eventbuffer_queue
 278              		.syntax unified
 279              		.thumb
 280              		.thumb_func
 281              		.fpu fpv4-sp-d16
 283              	pop_eventbuffer_queue:
 284              	.LVL14:
 285              	.LFB283:
 154:Middlewares/ST/STM32_SPWF0xSy/Utils/event_buffer.c **** 
 155:Middlewares/ST/STM32_SPWF0xSy/Utils/event_buffer.c **** /**
 156:Middlewares/ST/STM32_SPWF0xSy/Utils/event_buffer.c ****   * @brief  pop_buffer_queue
 157:Middlewares/ST/STM32_SPWF0xSy/Utils/event_buffer.c ****   *         dequeues the circular buffer
 158:Middlewares/ST/STM32_SPWF0xSy/Utils/event_buffer.c ****   * @param  *buffer : pointer to event buffer
 159:Middlewares/ST/STM32_SPWF0xSy/Utils/event_buffer.c ****   * @retval None
 160:Middlewares/ST/STM32_SPWF0xSy/Utils/event_buffer.c ****   */ 
 161:Middlewares/ST/STM32_SPWF0xSy/Utils/event_buffer.c **** wifi_event_TypeDef * pop_eventbuffer_queue(wifi_event_buffer *buffer) 
 162:Middlewares/ST/STM32_SPWF0xSy/Utils/event_buffer.c **** {
 286              		.loc 1 162 1 is_stmt 1 view -0
 287              		.cfi_startproc
 288              		@ args = 0, pretend = 0, frame = 0
 289              		@ frame_needed = 0, uses_anonymous_args = 0
 290              		.loc 1 162 1 is_stmt 0 view .LVU81
 291 0000 70B5     		push	{r4, r5, r6, lr}
 292              	.LCFI3:
 293              		.cfi_def_cfa_offset 16
 294              		.cfi_offset 4, -16
 295              		.cfi_offset 5, -12
 296              		.cfi_offset 6, -8
 297              		.cfi_offset 14, -4
 298 0002 0446     		mov	r4, r0
 163:Middlewares/ST/STM32_SPWF0xSy/Utils/event_buffer.c ****   int bufsize;
 299              		.loc 1 163 3 is_stmt 1 view .LVU82
 164:Middlewares/ST/STM32_SPWF0xSy/Utils/event_buffer.c ****   uint32_t index;
 300              		.loc 1 164 3 view .LVU83
 165:Middlewares/ST/STM32_SPWF0xSy/Utils/event_buffer.c **** 
ARM GAS  /tmp/ccm2BlVe.s 			page 9


 166:Middlewares/ST/STM32_SPWF0xSy/Utils/event_buffer.c ****   if (event_empty(buffer)) 
 301              		.loc 1 166 3 view .LVU84
 302              		.loc 1 166 7 is_stmt 0 view .LVU85
 303 0004 FFF7FEFF 		bl	event_empty
 304              	.LVL15:
 305              		.loc 1 166 6 view .LVU86
 306 0008 0028     		cmp	r0, #0
 307 000a 2FD1     		bne	.L11
 167:Middlewares/ST/STM32_SPWF0xSy/Utils/event_buffer.c ****     {
 168:Middlewares/ST/STM32_SPWF0xSy/Utils/event_buffer.c ****       //printf("\r\Event Buffer Empty!!\r\n");
 169:Middlewares/ST/STM32_SPWF0xSy/Utils/event_buffer.c ****       return NULL;
 170:Middlewares/ST/STM32_SPWF0xSy/Utils/event_buffer.c ****     } 
 171:Middlewares/ST/STM32_SPWF0xSy/Utils/event_buffer.c ****   else
 172:Middlewares/ST/STM32_SPWF0xSy/Utils/event_buffer.c ****     {
 173:Middlewares/ST/STM32_SPWF0xSy/Utils/event_buffer.c ****       /* First in First Out*/
 174:Middlewares/ST/STM32_SPWF0xSy/Utils/event_buffer.c ****       index=buffer->start/ELEMENT_SIZE;
 308              		.loc 1 174 7 is_stmt 1 view .LVU87
 309              		.loc 1 174 19 is_stmt 0 view .LVU88
 310 000c 2288     		ldrh	r2, [r4]
 311              		.loc 1 174 26 view .LVU89
 312 000e C2F3CC02 		ubfx	r2, r2, #3, #13
 313              	.LVL16:
 175:Middlewares/ST/STM32_SPWF0xSy/Utils/event_buffer.c ****       element.data_length = buffer->element[index].data_length;
 314              		.loc 1 175 7 is_stmt 1 view .LVU90
 315              		.loc 1 175 35 is_stmt 0 view .LVU91
 316 0012 A568     		ldr	r5, [r4, #8]
 317              		.loc 1 175 44 view .LVU92
 318 0014 05EBC203 		add	r3, r5, r2, lsl #3
 319              		.loc 1 175 51 view .LVU93
 320 0018 9988     		ldrh	r1, [r3, #4]
 321              		.loc 1 175 27 view .LVU94
 322 001a 1548     		ldr	r0, .L13
 323 001c 8180     		strh	r1, [r0, #4]	@ movhi
 176:Middlewares/ST/STM32_SPWF0xSy/Utils/event_buffer.c ****       element.socket_id = buffer->element[index].socket_id;
 324              		.loc 1 176 7 is_stmt 1 view .LVU95
 325              		.loc 1 176 49 is_stmt 0 view .LVU96
 326 001e 5E78     		ldrb	r6, [r3, #1]	@ zero_extendqisi2
 327              		.loc 1 176 25 view .LVU97
 328 0020 4178     		ldrb	r1, [r0, #1]	@ zero_extendqisi2
 329 0022 66F30301 		bfi	r1, r6, #0, #4
 330 0026 4170     		strb	r1, [r0, #1]
 177:Middlewares/ST/STM32_SPWF0xSy/Utils/event_buffer.c ****       element.server_id = buffer->element[index].server_id;
 331              		.loc 1 177 7 is_stmt 1 view .LVU98
 332              		.loc 1 177 49 is_stmt 0 view .LVU99
 333 0028 5978     		ldrb	r1, [r3, #1]	@ zero_extendqisi2
 334 002a 0909     		lsrs	r1, r1, #4
 335              		.loc 1 177 25 view .LVU100
 336 002c 4678     		ldrb	r6, [r0, #1]	@ zero_extendqisi2
 337 002e 61F30716 		bfi	r6, r1, #4, #4
 338 0032 4670     		strb	r6, [r0, #1]
 178:Middlewares/ST/STM32_SPWF0xSy/Utils/event_buffer.c ****       element.wind64_pending_packet_no = buffer->element[index].wind64_pending_packet_no;
 339              		.loc 1 178 7 is_stmt 1 view .LVU101
 340              		.loc 1 178 64 is_stmt 0 view .LVU102
 341 0034 9978     		ldrb	r1, [r3, #2]	@ zero_extendqisi2
 342              		.loc 1 178 40 view .LVU103
 343 0036 8170     		strb	r1, [r0, #2]
 179:Middlewares/ST/STM32_SPWF0xSy/Utils/event_buffer.c ****       element.wind = buffer->element[index].wind;
ARM GAS  /tmp/ccm2BlVe.s 			page 10


 344              		.loc 1 179 7 is_stmt 1 view .LVU104
 345              		.loc 1 179 44 is_stmt 0 view .LVU105
 346 0038 15F83220 		ldrb	r2, [r5, r2, lsl #3]	@ zero_extendqisi2
 347              	.LVL17:
 348              		.loc 1 179 20 view .LVU106
 349 003c 0270     		strb	r2, [r0]
 180:Middlewares/ST/STM32_SPWF0xSy/Utils/event_buffer.c ****       element.event = buffer->element[index].event;
 350              		.loc 1 180 7 is_stmt 1 view .LVU107
 351              		.loc 1 180 45 is_stmt 0 view .LVU108
 352 003e 9B79     		ldrb	r3, [r3, #6]	@ zero_extendqisi2
 353              		.loc 1 180 21 view .LVU109
 354 0040 8371     		strb	r3, [r0, #6]
 181:Middlewares/ST/STM32_SPWF0xSy/Utils/event_buffer.c ****       buffer->start = buffer->start + ELEMENT_SIZE;
 355              		.loc 1 181 7 is_stmt 1 view .LVU110
 356              		.loc 1 181 29 is_stmt 0 view .LVU111
 357 0042 2388     		ldrh	r3, [r4]
 358 0044 9BB2     		uxth	r3, r3
 359              		.loc 1 181 37 view .LVU112
 360 0046 0833     		adds	r3, r3, #8
 361 0048 9BB2     		uxth	r3, r3
 362              		.loc 1 181 21 view .LVU113
 363 004a 2380     		strh	r3, [r4]	@ movhi
 182:Middlewares/ST/STM32_SPWF0xSy/Utils/event_buffer.c ****       buffer->count--;
 364              		.loc 1 182 7 is_stmt 1 view .LVU114
 365              		.loc 1 182 13 is_stmt 0 view .LVU115
 366 004c E388     		ldrh	r3, [r4, #6]
 367 004e 9BB2     		uxth	r3, r3
 368              		.loc 1 182 20 view .LVU116
 369 0050 013B     		subs	r3, r3, #1
 370 0052 9BB2     		uxth	r3, r3
 371 0054 E380     		strh	r3, [r4, #6]	@ movhi
 183:Middlewares/ST/STM32_SPWF0xSy/Utils/event_buffer.c **** 
 184:Middlewares/ST/STM32_SPWF0xSy/Utils/event_buffer.c ****       bufsize = (buffer->size);
 372              		.loc 1 184 7 is_stmt 1 view .LVU117
 373              		.loc 1 184 24 is_stmt 0 view .LVU118
 374 0056 A388     		ldrh	r3, [r4, #4]
 375 0058 9AB2     		uxth	r2, r3
 376              	.LVL18:
 185:Middlewares/ST/STM32_SPWF0xSy/Utils/event_buffer.c ****       buffer->start %= bufsize;
 377              		.loc 1 185 7 is_stmt 1 view .LVU119
 378              		.loc 1 185 21 is_stmt 0 view .LVU120
 379 005a 2388     		ldrh	r3, [r4]
 380 005c 99B2     		uxth	r1, r3
 381 005e 91FBF2F3 		sdiv	r3, r1, r2
 382 0062 02FB1313 		mls	r3, r2, r3, r1
 383 0066 9BB2     		uxth	r3, r3
 384 0068 2380     		strh	r3, [r4]	@ movhi
 186:Middlewares/ST/STM32_SPWF0xSy/Utils/event_buffer.c ****       return &element;
 385              		.loc 1 186 7 is_stmt 1 view .LVU121
 386              	.LVL19:
 387              	.L9:
 187:Middlewares/ST/STM32_SPWF0xSy/Utils/event_buffer.c ****     }
 188:Middlewares/ST/STM32_SPWF0xSy/Utils/event_buffer.c **** }
 388              		.loc 1 188 1 is_stmt 0 view .LVU122
 389 006a 70BD     		pop	{r4, r5, r6, pc}
 390              	.LVL20:
 391              	.L11:
ARM GAS  /tmp/ccm2BlVe.s 			page 11


 169:Middlewares/ST/STM32_SPWF0xSy/Utils/event_buffer.c ****     } 
 392              		.loc 1 169 14 view .LVU123
 393 006c 0020     		movs	r0, #0
 394 006e FCE7     		b	.L9
 395              	.L14:
 396              		.align	2
 397              	.L13:
 398 0070 00000000 		.word	element
 399              		.cfi_endproc
 400              	.LFE283:
 402              		.section	.text.reset_event,"ax",%progbits
 403              		.align	1
 404              		.global	reset_event
 405              		.syntax unified
 406              		.thumb
 407              		.thumb_func
 408              		.fpu fpv4-sp-d16
 410              	reset_event:
 411              	.LVL21:
 412              	.LFB284:
 189:Middlewares/ST/STM32_SPWF0xSy/Utils/event_buffer.c **** 
 190:Middlewares/ST/STM32_SPWF0xSy/Utils/event_buffer.c **** /**
 191:Middlewares/ST/STM32_SPWF0xSy/Utils/event_buffer.c ****   * @brief  reset_event
 192:Middlewares/ST/STM32_SPWF0xSy/Utils/event_buffer.c ****   *         sets an event to default values
 193:Middlewares/ST/STM32_SPWF0xSy/Utils/event_buffer.c ****   * @param  *r_event : event to reset
 194:Middlewares/ST/STM32_SPWF0xSy/Utils/event_buffer.c ****   * @retval None
 195:Middlewares/ST/STM32_SPWF0xSy/Utils/event_buffer.c ****   */ 
 196:Middlewares/ST/STM32_SPWF0xSy/Utils/event_buffer.c **** void reset_event(wifi_event_TypeDef *r_event)
 197:Middlewares/ST/STM32_SPWF0xSy/Utils/event_buffer.c **** {
 413              		.loc 1 197 1 is_stmt 1 view -0
 414              		.cfi_startproc
 415              		@ args = 0, pretend = 0, frame = 0
 416              		@ frame_needed = 0, uses_anonymous_args = 0
 417              		@ link register save eliminated.
 198:Middlewares/ST/STM32_SPWF0xSy/Utils/event_buffer.c ****   r_event->data_length = 0;
 418              		.loc 1 198 3 view .LVU125
 419              		.loc 1 198 24 is_stmt 0 view .LVU126
 420 0000 0023     		movs	r3, #0
 421 0002 8380     		strh	r3, [r0, #4]	@ movhi
 199:Middlewares/ST/STM32_SPWF0xSy/Utils/event_buffer.c ****   r_event->event       = WIFI_NO_EVENT; 
 422              		.loc 1 199 3 is_stmt 1 view .LVU127
 423              		.loc 1 199 24 is_stmt 0 view .LVU128
 424 0004 8371     		strb	r3, [r0, #6]
 200:Middlewares/ST/STM32_SPWF0xSy/Utils/event_buffer.c ****   r_event->socket_id   = 9;              //Socket ID 0-7
 425              		.loc 1 200 3 is_stmt 1 view .LVU129
 426              		.loc 1 200 24 is_stmt 0 view .LVU130
 427 0006 4278     		ldrb	r2, [r0, #1]	@ zero_extendqisi2
 428 0008 0923     		movs	r3, #9
 429 000a 63F30302 		bfi	r2, r3, #0, #4
 430 000e 4270     		strb	r2, [r0, #1]
 201:Middlewares/ST/STM32_SPWF0xSy/Utils/event_buffer.c ****   r_event->wind64_pending_packet_no = 9; //Max pending packets = 4
 431              		.loc 1 201 3 is_stmt 1 view .LVU131
 432              		.loc 1 201 37 is_stmt 0 view .LVU132
 433 0010 8370     		strb	r3, [r0, #2]
 202:Middlewares/ST/STM32_SPWF0xSy/Utils/event_buffer.c ****   r_event->wind        = 99;             //any default value
 434              		.loc 1 202 3 is_stmt 1 view .LVU133
 435              		.loc 1 202 24 is_stmt 0 view .LVU134
ARM GAS  /tmp/ccm2BlVe.s 			page 12


 436 0012 6323     		movs	r3, #99
 437 0014 0370     		strb	r3, [r0]
 203:Middlewares/ST/STM32_SPWF0xSy/Utils/event_buffer.c **** }
 438              		.loc 1 203 1 view .LVU135
 439 0016 7047     		bx	lr
 440              		.cfi_endproc
 441              	.LFE284:
 443              		.section	.bss.event_buffer,"aw",%nobits
 444              		.align	2
 445              		.set	.LANCHOR0,. + 0
 448              	event_buffer:
 449 0000 00000000 		.space	400
 449      00000000 
 449      00000000 
 449      00000000 
 449      00000000 
 450              		.text
 451              	.Letext0:
 452              		.file 2 "/usr/include/newlib/machine/_default_types.h"
 453              		.file 3 "/usr/lib/gcc/arm-none-eabi/9.2.1/include/stddef.h"
 454              		.file 4 "/usr/include/newlib/sys/_types.h"
 455              		.file 5 "/usr/include/newlib/sys/reent.h"
 456              		.file 6 "/usr/include/newlib/sys/lock.h"
 457              		.file 7 "/usr/include/newlib/sys/_stdint.h"
 458              		.file 8 "/usr/include/newlib/stdlib.h"
 459              		.file 9 "Drivers/CMSIS/Include/core_cm4.h"
 460              		.file 10 "Drivers/CMSIS/Device/ST/STM32F4xx/Include/system_stm32f4xx.h"
 461              		.file 11 "Drivers/CMSIS/Device/ST/STM32F4xx/Include/stm32f401xe.h"
 462              		.file 12 "Drivers/CMSIS/Device/ST/STM32F4xx/Include/stm32f4xx.h"
 463              		.file 13 "Drivers/STM32F4xx_HAL_Driver/Inc/stm32f4xx_hal_def.h"
 464              		.file 14 "Drivers/STM32F4xx_HAL_Driver/Inc/stm32f4xx_hal_dma.h"
 465              		.file 15 "Drivers/STM32F4xx_HAL_Driver/Inc/stm32f4xx_hal_spi.h"
 466              		.file 16 "Drivers/STM32F4xx_HAL_Driver/Inc/stm32f4xx_hal_tim.h"
 467              		.file 17 "Drivers/STM32F4xx_HAL_Driver/Inc/stm32f4xx_hal_uart.h"
 468              		.file 18 "Middlewares/ST/STM32_SPWF0xSy/Inc/wifi_interface.h"
 469              		.file 19 "Middlewares/ST/STM32_SPWF0xSy/Utils/event_buffer.h"
 470              		.file 20 "/usr/include/newlib/time.h"
 471              		.file 21 "Middlewares/ST/STM32_SPWF0xSy/Inc/wifi_module.h"
 472              		.file 22 "Middlewares/ST/STM32_SPWF0xSy/Utils/wifi_globals.h"
 473              		.file 23 "Drivers/STM32F4xx_HAL_Driver/Inc/stm32f4xx_ll_dma.h"
ARM GAS  /tmp/ccm2BlVe.s 			page 13


DEFINED SYMBOLS
                            *ABS*:0000000000000000 event_buffer.c
     /tmp/ccm2BlVe.s:18     .text.event_init:0000000000000000 $t
     /tmp/ccm2BlVe.s:26     .text.event_init:0000000000000000 event_init
     /tmp/ccm2BlVe.s:63     .text.event_init:0000000000000014 $d
     /tmp/ccm2BlVe.s:68     .text.event_full:0000000000000000 $t
     /tmp/ccm2BlVe.s:75     .text.event_full:0000000000000000 event_full
     /tmp/ccm2BlVe.s:106    .text.event_empty:0000000000000000 $t
     /tmp/ccm2BlVe.s:113    .text.event_empty:0000000000000000 event_empty
     /tmp/ccm2BlVe.s:135    .text.push_eventbuffer_queue:0000000000000000 $t
     /tmp/ccm2BlVe.s:142    .text.push_eventbuffer_queue:0000000000000000 push_eventbuffer_queue
     /tmp/ccm2BlVe.s:276    .text.pop_eventbuffer_queue:0000000000000000 $t
     /tmp/ccm2BlVe.s:283    .text.pop_eventbuffer_queue:0000000000000000 pop_eventbuffer_queue
     /tmp/ccm2BlVe.s:398    .text.pop_eventbuffer_queue:0000000000000070 $d
     /tmp/ccm2BlVe.s:403    .text.reset_event:0000000000000000 $t
     /tmp/ccm2BlVe.s:410    .text.reset_event:0000000000000000 reset_event
     /tmp/ccm2BlVe.s:444    .bss.event_buffer:0000000000000000 $d
     /tmp/ccm2BlVe.s:448    .bss.event_buffer:0000000000000000 event_buffer

UNDEFINED SYMBOLS
element
