ARM GAS  /tmp/ccmZWIXs.s 			page 1


   1              		.cpu cortex-m4
   2              		.eabi_attribute 27, 1
   3              		.eabi_attribute 28, 1
   4              		.eabi_attribute 20, 1
   5              		.eabi_attribute 21, 1
   6              		.eabi_attribute 23, 3
   7              		.eabi_attribute 24, 1
   8              		.eabi_attribute 25, 1
   9              		.eabi_attribute 26, 1
  10              		.eabi_attribute 30, 1
  11              		.eabi_attribute 34, 1
  12              		.eabi_attribute 18, 4
  13              		.file	"stm32f4xx_hal_msp_template.c"
  14              		.text
  15              	.Ltext0:
  16              		.cfi_sections	.debug_frame
  17              		.section	.text.HAL_MspInit,"ax",%progbits
  18              		.align	1
  19              		.weak	HAL_MspInit
  20              		.arch armv7e-m
  21              		.syntax unified
  22              		.thumb
  23              		.thumb_func
  24              		.fpu fpv4-sp-d16
  26              	HAL_MspInit:
  27              	.LFB135:
  28              		.file 1 "Drivers/STM32F4xx_HAL_Driver/Src/stm32f4xx_hal_msp_template.c"
   1:Drivers/STM32F4xx_HAL_Driver/Src/stm32f4xx_hal_msp_template.c **** /**
   2:Drivers/STM32F4xx_HAL_Driver/Src/stm32f4xx_hal_msp_template.c ****   ******************************************************************************
   3:Drivers/STM32F4xx_HAL_Driver/Src/stm32f4xx_hal_msp_template.c ****   * @file    stm32f4xx_hal_msp_template.c
   4:Drivers/STM32F4xx_HAL_Driver/Src/stm32f4xx_hal_msp_template.c ****   * @author  MCD Application Team
   5:Drivers/STM32F4xx_HAL_Driver/Src/stm32f4xx_hal_msp_template.c ****   * @version V1.5.1
   6:Drivers/STM32F4xx_HAL_Driver/Src/stm32f4xx_hal_msp_template.c ****   * @date    01-July-2016
   7:Drivers/STM32F4xx_HAL_Driver/Src/stm32f4xx_hal_msp_template.c ****   * @brief   This file contains the HAL System and Peripheral (PPP) MSP initialization
   8:Drivers/STM32F4xx_HAL_Driver/Src/stm32f4xx_hal_msp_template.c ****   *          and de-initialization functions.
   9:Drivers/STM32F4xx_HAL_Driver/Src/stm32f4xx_hal_msp_template.c ****   *          It should be copied to the application folder and renamed into 'stm32f4xx_hal_msp.c'. 
  10:Drivers/STM32F4xx_HAL_Driver/Src/stm32f4xx_hal_msp_template.c ****   ******************************************************************************
  11:Drivers/STM32F4xx_HAL_Driver/Src/stm32f4xx_hal_msp_template.c ****   * @attention
  12:Drivers/STM32F4xx_HAL_Driver/Src/stm32f4xx_hal_msp_template.c ****   *
  13:Drivers/STM32F4xx_HAL_Driver/Src/stm32f4xx_hal_msp_template.c ****   * <h2><center>&copy; COPYRIGHT(c) 2016 STMicroelectronics</center></h2>
  14:Drivers/STM32F4xx_HAL_Driver/Src/stm32f4xx_hal_msp_template.c ****   *
  15:Drivers/STM32F4xx_HAL_Driver/Src/stm32f4xx_hal_msp_template.c ****   * Redistribution and use in source and binary forms, with or without modification,
  16:Drivers/STM32F4xx_HAL_Driver/Src/stm32f4xx_hal_msp_template.c ****   * are permitted provided that the following conditions are met:
  17:Drivers/STM32F4xx_HAL_Driver/Src/stm32f4xx_hal_msp_template.c ****   *   1. Redistributions of source code must retain the above copyright notice,
  18:Drivers/STM32F4xx_HAL_Driver/Src/stm32f4xx_hal_msp_template.c ****   *      this list of conditions and the following disclaimer.
  19:Drivers/STM32F4xx_HAL_Driver/Src/stm32f4xx_hal_msp_template.c ****   *   2. Redistributions in binary form must reproduce the above copyright notice,
  20:Drivers/STM32F4xx_HAL_Driver/Src/stm32f4xx_hal_msp_template.c ****   *      this list of conditions and the following disclaimer in the documentation
  21:Drivers/STM32F4xx_HAL_Driver/Src/stm32f4xx_hal_msp_template.c ****   *      and/or other materials provided with the distribution.
  22:Drivers/STM32F4xx_HAL_Driver/Src/stm32f4xx_hal_msp_template.c ****   *   3. Neither the name of STMicroelectronics nor the names of its contributors
  23:Drivers/STM32F4xx_HAL_Driver/Src/stm32f4xx_hal_msp_template.c ****   *      may be used to endorse or promote products derived from this software
  24:Drivers/STM32F4xx_HAL_Driver/Src/stm32f4xx_hal_msp_template.c ****   *      without specific prior written permission.
  25:Drivers/STM32F4xx_HAL_Driver/Src/stm32f4xx_hal_msp_template.c ****   *
  26:Drivers/STM32F4xx_HAL_Driver/Src/stm32f4xx_hal_msp_template.c ****   * THIS SOFTWARE IS PROVIDED BY THE COPYRIGHT HOLDERS AND CONTRIBUTORS "AS IS"
  27:Drivers/STM32F4xx_HAL_Driver/Src/stm32f4xx_hal_msp_template.c ****   * AND ANY EXPRESS OR IMPLIED WARRANTIES, INCLUDING, BUT NOT LIMITED TO, THE
  28:Drivers/STM32F4xx_HAL_Driver/Src/stm32f4xx_hal_msp_template.c ****   * IMPLIED WARRANTIES OF MERCHANTABILITY AND FITNESS FOR A PARTICULAR PURPOSE ARE
  29:Drivers/STM32F4xx_HAL_Driver/Src/stm32f4xx_hal_msp_template.c ****   * DISCLAIMED. IN NO EVENT SHALL THE COPYRIGHT HOLDER OR CONTRIBUTORS BE LIABLE
  30:Drivers/STM32F4xx_HAL_Driver/Src/stm32f4xx_hal_msp_template.c ****   * FOR ANY DIRECT, INDIRECT, INCIDENTAL, SPECIAL, EXEMPLARY, OR CONSEQUENTIAL
ARM GAS  /tmp/ccmZWIXs.s 			page 2


  31:Drivers/STM32F4xx_HAL_Driver/Src/stm32f4xx_hal_msp_template.c ****   * DAMAGES (INCLUDING, BUT NOT LIMITED TO, PROCUREMENT OF SUBSTITUTE GOODS OR
  32:Drivers/STM32F4xx_HAL_Driver/Src/stm32f4xx_hal_msp_template.c ****   * SERVICES; LOSS OF USE, DATA, OR PROFITS; OR BUSINESS INTERRUPTION) HOWEVER
  33:Drivers/STM32F4xx_HAL_Driver/Src/stm32f4xx_hal_msp_template.c ****   * CAUSED AND ON ANY THEORY OF LIABILITY, WHETHER IN CONTRACT, STRICT LIABILITY,
  34:Drivers/STM32F4xx_HAL_Driver/Src/stm32f4xx_hal_msp_template.c ****   * OR TORT (INCLUDING NEGLIGENCE OR OTHERWISE) ARISING IN ANY WAY OUT OF THE USE
  35:Drivers/STM32F4xx_HAL_Driver/Src/stm32f4xx_hal_msp_template.c ****   * OF THIS SOFTWARE, EVEN IF ADVISED OF THE POSSIBILITY OF SUCH DAMAGE.
  36:Drivers/STM32F4xx_HAL_Driver/Src/stm32f4xx_hal_msp_template.c ****   *
  37:Drivers/STM32F4xx_HAL_Driver/Src/stm32f4xx_hal_msp_template.c ****   ******************************************************************************
  38:Drivers/STM32F4xx_HAL_Driver/Src/stm32f4xx_hal_msp_template.c ****   */ 
  39:Drivers/STM32F4xx_HAL_Driver/Src/stm32f4xx_hal_msp_template.c **** 
  40:Drivers/STM32F4xx_HAL_Driver/Src/stm32f4xx_hal_msp_template.c **** /* Includes ------------------------------------------------------------------*/
  41:Drivers/STM32F4xx_HAL_Driver/Src/stm32f4xx_hal_msp_template.c **** #include "stm32f4xx_hal.h"
  42:Drivers/STM32F4xx_HAL_Driver/Src/stm32f4xx_hal_msp_template.c **** 
  43:Drivers/STM32F4xx_HAL_Driver/Src/stm32f4xx_hal_msp_template.c **** /** @addtogroup STM32F4xx_HAL_Driver
  44:Drivers/STM32F4xx_HAL_Driver/Src/stm32f4xx_hal_msp_template.c ****   * @{
  45:Drivers/STM32F4xx_HAL_Driver/Src/stm32f4xx_hal_msp_template.c ****   */
  46:Drivers/STM32F4xx_HAL_Driver/Src/stm32f4xx_hal_msp_template.c **** 
  47:Drivers/STM32F4xx_HAL_Driver/Src/stm32f4xx_hal_msp_template.c **** /** @defgroup HAL_MSP HAL MSP
  48:Drivers/STM32F4xx_HAL_Driver/Src/stm32f4xx_hal_msp_template.c ****   * @brief HAL MSP module.
  49:Drivers/STM32F4xx_HAL_Driver/Src/stm32f4xx_hal_msp_template.c ****   * @{
  50:Drivers/STM32F4xx_HAL_Driver/Src/stm32f4xx_hal_msp_template.c ****   */
  51:Drivers/STM32F4xx_HAL_Driver/Src/stm32f4xx_hal_msp_template.c **** 
  52:Drivers/STM32F4xx_HAL_Driver/Src/stm32f4xx_hal_msp_template.c **** /* Private typedef -----------------------------------------------------------*/
  53:Drivers/STM32F4xx_HAL_Driver/Src/stm32f4xx_hal_msp_template.c **** /* Private define ------------------------------------------------------------*/
  54:Drivers/STM32F4xx_HAL_Driver/Src/stm32f4xx_hal_msp_template.c **** /* Private macro -------------------------------------------------------------*/
  55:Drivers/STM32F4xx_HAL_Driver/Src/stm32f4xx_hal_msp_template.c **** /* Private variables ---------------------------------------------------------*/
  56:Drivers/STM32F4xx_HAL_Driver/Src/stm32f4xx_hal_msp_template.c **** /* Private function prototypes -----------------------------------------------*/
  57:Drivers/STM32F4xx_HAL_Driver/Src/stm32f4xx_hal_msp_template.c **** /* Private functions ---------------------------------------------------------*/
  58:Drivers/STM32F4xx_HAL_Driver/Src/stm32f4xx_hal_msp_template.c **** 
  59:Drivers/STM32F4xx_HAL_Driver/Src/stm32f4xx_hal_msp_template.c **** /** @defgroup HAL_MSP_Private_Functions HAL MSP Private Functions
  60:Drivers/STM32F4xx_HAL_Driver/Src/stm32f4xx_hal_msp_template.c ****   * @{
  61:Drivers/STM32F4xx_HAL_Driver/Src/stm32f4xx_hal_msp_template.c ****   */
  62:Drivers/STM32F4xx_HAL_Driver/Src/stm32f4xx_hal_msp_template.c **** 
  63:Drivers/STM32F4xx_HAL_Driver/Src/stm32f4xx_hal_msp_template.c **** /**
  64:Drivers/STM32F4xx_HAL_Driver/Src/stm32f4xx_hal_msp_template.c ****   * @brief  Initializes the Global MSP.
  65:Drivers/STM32F4xx_HAL_Driver/Src/stm32f4xx_hal_msp_template.c ****   * @note   This function is called from HAL_Init() function to perform system
  66:Drivers/STM32F4xx_HAL_Driver/Src/stm32f4xx_hal_msp_template.c ****   *         level initialization (GPIOs, clock, DMA, interrupt).
  67:Drivers/STM32F4xx_HAL_Driver/Src/stm32f4xx_hal_msp_template.c ****   * @retval None
  68:Drivers/STM32F4xx_HAL_Driver/Src/stm32f4xx_hal_msp_template.c ****   */
  69:Drivers/STM32F4xx_HAL_Driver/Src/stm32f4xx_hal_msp_template.c **** __weak void HAL_MspInit(void)
  70:Drivers/STM32F4xx_HAL_Driver/Src/stm32f4xx_hal_msp_template.c **** {
  29              		.loc 1 70 1 view -0
  30              		.cfi_startproc
  31              		@ args = 0, pretend = 0, frame = 0
  32              		@ frame_needed = 0, uses_anonymous_args = 0
  33              		@ link register save eliminated.
  71:Drivers/STM32F4xx_HAL_Driver/Src/stm32f4xx_hal_msp_template.c **** 
  72:Drivers/STM32F4xx_HAL_Driver/Src/stm32f4xx_hal_msp_template.c **** }
  34              		.loc 1 72 1 view .LVU1
  35 0000 7047     		bx	lr
  36              		.cfi_endproc
  37              	.LFE135:
  39              		.section	.text.HAL_MspDeInit,"ax",%progbits
  40              		.align	1
  41              		.global	HAL_MspDeInit
  42              		.syntax unified
  43              		.thumb
  44              		.thumb_func
ARM GAS  /tmp/ccmZWIXs.s 			page 3


  45              		.fpu fpv4-sp-d16
  47              	HAL_MspDeInit:
  48              	.LFB136:
  73:Drivers/STM32F4xx_HAL_Driver/Src/stm32f4xx_hal_msp_template.c **** 
  74:Drivers/STM32F4xx_HAL_Driver/Src/stm32f4xx_hal_msp_template.c **** /**
  75:Drivers/STM32F4xx_HAL_Driver/Src/stm32f4xx_hal_msp_template.c ****   * @brief  DeInitializes the Global MSP.
  76:Drivers/STM32F4xx_HAL_Driver/Src/stm32f4xx_hal_msp_template.c ****   * @note   This functiona is called from HAL_DeInit() function to perform system
  77:Drivers/STM32F4xx_HAL_Driver/Src/stm32f4xx_hal_msp_template.c ****   *         level de-initialization (GPIOs, clock, DMA, interrupt).
  78:Drivers/STM32F4xx_HAL_Driver/Src/stm32f4xx_hal_msp_template.c ****   * @retval None
  79:Drivers/STM32F4xx_HAL_Driver/Src/stm32f4xx_hal_msp_template.c ****   */
  80:Drivers/STM32F4xx_HAL_Driver/Src/stm32f4xx_hal_msp_template.c **** void HAL_MspDeInit(void)
  81:Drivers/STM32F4xx_HAL_Driver/Src/stm32f4xx_hal_msp_template.c **** {
  49              		.loc 1 81 1 view -0
  50              		.cfi_startproc
  51              		@ args = 0, pretend = 0, frame = 0
  52              		@ frame_needed = 0, uses_anonymous_args = 0
  53              		@ link register save eliminated.
  82:Drivers/STM32F4xx_HAL_Driver/Src/stm32f4xx_hal_msp_template.c **** 
  83:Drivers/STM32F4xx_HAL_Driver/Src/stm32f4xx_hal_msp_template.c **** }
  54              		.loc 1 83 1 view .LVU3
  55 0000 7047     		bx	lr
  56              		.cfi_endproc
  57              	.LFE136:
  59              		.section	.text.HAL_PPP_MspInit,"ax",%progbits
  60              		.align	1
  61              		.global	HAL_PPP_MspInit
  62              		.syntax unified
  63              		.thumb
  64              		.thumb_func
  65              		.fpu fpv4-sp-d16
  67              	HAL_PPP_MspInit:
  68              	.LFB137:
  84:Drivers/STM32F4xx_HAL_Driver/Src/stm32f4xx_hal_msp_template.c **** 
  85:Drivers/STM32F4xx_HAL_Driver/Src/stm32f4xx_hal_msp_template.c **** /**
  86:Drivers/STM32F4xx_HAL_Driver/Src/stm32f4xx_hal_msp_template.c ****   * @brief  Initializes the PPP MSP.
  87:Drivers/STM32F4xx_HAL_Driver/Src/stm32f4xx_hal_msp_template.c ****   * @note   This functiona is called from HAL_PPP_Init() function to perform 
  88:Drivers/STM32F4xx_HAL_Driver/Src/stm32f4xx_hal_msp_template.c ****   *         peripheral(PPP) system level initialization (GPIOs, clock, DMA, interrupt)
  89:Drivers/STM32F4xx_HAL_Driver/Src/stm32f4xx_hal_msp_template.c ****   * @retval None
  90:Drivers/STM32F4xx_HAL_Driver/Src/stm32f4xx_hal_msp_template.c ****   */
  91:Drivers/STM32F4xx_HAL_Driver/Src/stm32f4xx_hal_msp_template.c **** void HAL_PPP_MspInit(void)
  92:Drivers/STM32F4xx_HAL_Driver/Src/stm32f4xx_hal_msp_template.c **** {
  69              		.loc 1 92 1 view -0
  70              		.cfi_startproc
  71              		@ args = 0, pretend = 0, frame = 0
  72              		@ frame_needed = 0, uses_anonymous_args = 0
  73              		@ link register save eliminated.
  93:Drivers/STM32F4xx_HAL_Driver/Src/stm32f4xx_hal_msp_template.c **** 
  94:Drivers/STM32F4xx_HAL_Driver/Src/stm32f4xx_hal_msp_template.c **** }
  74              		.loc 1 94 1 view .LVU5
  75 0000 7047     		bx	lr
  76              		.cfi_endproc
  77              	.LFE137:
  79              		.section	.text.HAL_PPP_MspDeInit,"ax",%progbits
  80              		.align	1
  81              		.global	HAL_PPP_MspDeInit
  82              		.syntax unified
  83              		.thumb
ARM GAS  /tmp/ccmZWIXs.s 			page 4


  84              		.thumb_func
  85              		.fpu fpv4-sp-d16
  87              	HAL_PPP_MspDeInit:
  88              	.LFB138:
  95:Drivers/STM32F4xx_HAL_Driver/Src/stm32f4xx_hal_msp_template.c **** 
  96:Drivers/STM32F4xx_HAL_Driver/Src/stm32f4xx_hal_msp_template.c **** /**
  97:Drivers/STM32F4xx_HAL_Driver/Src/stm32f4xx_hal_msp_template.c ****   * @brief  DeInitializes the PPP MSP.
  98:Drivers/STM32F4xx_HAL_Driver/Src/stm32f4xx_hal_msp_template.c ****   * @note   This functiona is called from HAL_PPP_DeInit() function to perform 
  99:Drivers/STM32F4xx_HAL_Driver/Src/stm32f4xx_hal_msp_template.c ****   *         peripheral(PPP) system level de-initialization (GPIOs, clock, DMA, interrupt)
 100:Drivers/STM32F4xx_HAL_Driver/Src/stm32f4xx_hal_msp_template.c ****   * @retval None
 101:Drivers/STM32F4xx_HAL_Driver/Src/stm32f4xx_hal_msp_template.c ****   */
 102:Drivers/STM32F4xx_HAL_Driver/Src/stm32f4xx_hal_msp_template.c **** void HAL_PPP_MspDeInit(void)
 103:Drivers/STM32F4xx_HAL_Driver/Src/stm32f4xx_hal_msp_template.c **** {
  89              		.loc 1 103 1 view -0
  90              		.cfi_startproc
  91              		@ args = 0, pretend = 0, frame = 0
  92              		@ frame_needed = 0, uses_anonymous_args = 0
  93              		@ link register save eliminated.
 104:Drivers/STM32F4xx_HAL_Driver/Src/stm32f4xx_hal_msp_template.c **** 
 105:Drivers/STM32F4xx_HAL_Driver/Src/stm32f4xx_hal_msp_template.c **** }
  94              		.loc 1 105 1 view .LVU7
  95 0000 7047     		bx	lr
  96              		.cfi_endproc
  97              	.LFE138:
  99              		.text
 100              	.Letext0:
 101              		.file 2 "/usr/lib/gcc/arm-none-eabi/9.2.1/include/stdint.h"
 102              		.file 3 "Drivers/CMSIS/Include/core_cm4.h"
 103              		.file 4 "Drivers/CMSIS/Device/ST/STM32F4xx/Include/system_stm32f4xx.h"
 104              		.file 5 "/usr/lib/gcc/arm-none-eabi/9.2.1/include/stddef.h"
 105              		.file 6 "/usr/include/newlib/sys/_types.h"
 106              		.file 7 "/usr/include/newlib/sys/reent.h"
 107              		.file 8 "/usr/include/newlib/sys/lock.h"
ARM GAS  /tmp/ccmZWIXs.s 			page 5

