ARM GAS  D:\cygwin64\tmp\ccfxjHfK.s 			page 1


   1              		.cpu cortex-m4
   2              		.eabi_attribute 27, 1
   3              		.eabi_attribute 28, 1
   4              		.eabi_attribute 20, 1
   5              		.eabi_attribute 21, 1
   6              		.eabi_attribute 23, 3
   7              		.eabi_attribute 24, 1
   8              		.eabi_attribute 25, 1
   9              		.eabi_attribute 26, 1
  10              		.eabi_attribute 30, 1
  11              		.eabi_attribute 34, 1
  12              		.eabi_attribute 18, 4
  13              		.file	"stm32f4xx_nucleo.c"
  14              		.text
  15              	.Ltext0:
  16              		.cfi_sections	.debug_frame
  17              		.section	.text.BSP_GetVersion,"ax",%progbits
  18              		.align	1
  19              		.global	BSP_GetVersion
  20              		.syntax unified
  21              		.thumb
  22              		.thumb_func
  23              		.fpu fpv4-sp-d16
  25              	BSP_GetVersion:
  26              	.LFB130:
  27              		.file 1 "Drivers/BSP/STM32F4xx-Nucleo/stm32f4xx_nucleo.c"
   1:Drivers/BSP/STM32F4xx-Nucleo/stm32f4xx_nucleo.c **** /**
   2:Drivers/BSP/STM32F4xx-Nucleo/stm32f4xx_nucleo.c ****   ******************************************************************************
   3:Drivers/BSP/STM32F4xx-Nucleo/stm32f4xx_nucleo.c ****   * @file    stm32f4xx_nucleo.c
   4:Drivers/BSP/STM32F4xx-Nucleo/stm32f4xx_nucleo.c ****   * @author  MCD Application Team
   5:Drivers/BSP/STM32F4xx-Nucleo/stm32f4xx_nucleo.c ****   * @version V1.2.5
   6:Drivers/BSP/STM32F4xx-Nucleo/stm32f4xx_nucleo.c ****   * @date    06-May-2016
   7:Drivers/BSP/STM32F4xx-Nucleo/stm32f4xx_nucleo.c ****   * @brief   This file provides set of firmware functions to manage:
   8:Drivers/BSP/STM32F4xx-Nucleo/stm32f4xx_nucleo.c ****   *          - LEDs and push-button available on STM32F4XX-Nucleo Kit 
   9:Drivers/BSP/STM32F4xx-Nucleo/stm32f4xx_nucleo.c ****   *            from STMicroelectronics
  10:Drivers/BSP/STM32F4xx-Nucleo/stm32f4xx_nucleo.c ****   *          - LCD, joystick and microSD available on Adafruit 1.8" TFT LCD 
  11:Drivers/BSP/STM32F4xx-Nucleo/stm32f4xx_nucleo.c ****   *            shield (reference ID 802)
  12:Drivers/BSP/STM32F4xx-Nucleo/stm32f4xx_nucleo.c ****   ******************************************************************************
  13:Drivers/BSP/STM32F4xx-Nucleo/stm32f4xx_nucleo.c ****   * @attention
  14:Drivers/BSP/STM32F4xx-Nucleo/stm32f4xx_nucleo.c ****   *
  15:Drivers/BSP/STM32F4xx-Nucleo/stm32f4xx_nucleo.c ****   * <h2><center>&copy; COPYRIGHT(c) 2016 STMicroelectronics</center></h2>
  16:Drivers/BSP/STM32F4xx-Nucleo/stm32f4xx_nucleo.c ****   *
  17:Drivers/BSP/STM32F4xx-Nucleo/stm32f4xx_nucleo.c ****   * Redistribution and use in source and binary forms, with or without modification,
  18:Drivers/BSP/STM32F4xx-Nucleo/stm32f4xx_nucleo.c ****   * are permitted provided that the following conditions are met:
  19:Drivers/BSP/STM32F4xx-Nucleo/stm32f4xx_nucleo.c ****   *   1. Redistributions of source code must retain the above copyright notice,
  20:Drivers/BSP/STM32F4xx-Nucleo/stm32f4xx_nucleo.c ****   *      this list of conditions and the following disclaimer.
  21:Drivers/BSP/STM32F4xx-Nucleo/stm32f4xx_nucleo.c ****   *   2. Redistributions in binary form must reproduce the above copyright notice,
  22:Drivers/BSP/STM32F4xx-Nucleo/stm32f4xx_nucleo.c ****   *      this list of conditions and the following disclaimer in the documentation
  23:Drivers/BSP/STM32F4xx-Nucleo/stm32f4xx_nucleo.c ****   *      and/or other materials provided with the distribution.
  24:Drivers/BSP/STM32F4xx-Nucleo/stm32f4xx_nucleo.c ****   *   3. Neither the name of STMicroelectronics nor the names of its contributors
  25:Drivers/BSP/STM32F4xx-Nucleo/stm32f4xx_nucleo.c ****   *      may be used to endorse or promote products derived from this software
  26:Drivers/BSP/STM32F4xx-Nucleo/stm32f4xx_nucleo.c ****   *      without specific prior written permission.
  27:Drivers/BSP/STM32F4xx-Nucleo/stm32f4xx_nucleo.c ****   *
  28:Drivers/BSP/STM32F4xx-Nucleo/stm32f4xx_nucleo.c ****   * THIS SOFTWARE IS PROVIDED BY THE COPYRIGHT HOLDERS AND CONTRIBUTORS "AS IS"
  29:Drivers/BSP/STM32F4xx-Nucleo/stm32f4xx_nucleo.c ****   * AND ANY EXPRESS OR IMPLIED WARRANTIES, INCLUDING, BUT NOT LIMITED TO, THE
  30:Drivers/BSP/STM32F4xx-Nucleo/stm32f4xx_nucleo.c ****   * IMPLIED WARRANTIES OF MERCHANTABILITY AND FITNESS FOR A PARTICULAR PURPOSE ARE
  31:Drivers/BSP/STM32F4xx-Nucleo/stm32f4xx_nucleo.c ****   * DISCLAIMED. IN NO EVENT SHALL THE COPYRIGHT HOLDER OR CONTRIBUTORS BE LIABLE
ARM GAS  D:\cygwin64\tmp\ccfxjHfK.s 			page 2


  32:Drivers/BSP/STM32F4xx-Nucleo/stm32f4xx_nucleo.c ****   * FOR ANY DIRECT, INDIRECT, INCIDENTAL, SPECIAL, EXEMPLARY, OR CONSEQUENTIAL
  33:Drivers/BSP/STM32F4xx-Nucleo/stm32f4xx_nucleo.c ****   * DAMAGES (INCLUDING, BUT NOT LIMITED TO, PROCUREMENT OF SUBSTITUTE GOODS OR
  34:Drivers/BSP/STM32F4xx-Nucleo/stm32f4xx_nucleo.c ****   * SERVICES; LOSS OF USE, DATA, OR PROFITS; OR BUSINESS INTERRUPTION) HOWEVER
  35:Drivers/BSP/STM32F4xx-Nucleo/stm32f4xx_nucleo.c ****   * CAUSED AND ON ANY THEORY OF LIABILITY, WHETHER IN CONTRACT, STRICT LIABILITY,
  36:Drivers/BSP/STM32F4xx-Nucleo/stm32f4xx_nucleo.c ****   * OR TORT (INCLUDING NEGLIGENCE OR OTHERWISE) ARISING IN ANY WAY OUT OF THE USE
  37:Drivers/BSP/STM32F4xx-Nucleo/stm32f4xx_nucleo.c ****   * OF THIS SOFTWARE, EVEN IF ADVISED OF THE POSSIBILITY OF SUCH DAMAGE.
  38:Drivers/BSP/STM32F4xx-Nucleo/stm32f4xx_nucleo.c ****   *
  39:Drivers/BSP/STM32F4xx-Nucleo/stm32f4xx_nucleo.c ****   ******************************************************************************
  40:Drivers/BSP/STM32F4xx-Nucleo/stm32f4xx_nucleo.c ****   */ 
  41:Drivers/BSP/STM32F4xx-Nucleo/stm32f4xx_nucleo.c ****   
  42:Drivers/BSP/STM32F4xx-Nucleo/stm32f4xx_nucleo.c **** /* Includes ------------------------------------------------------------------*/
  43:Drivers/BSP/STM32F4xx-Nucleo/stm32f4xx_nucleo.c **** #include "stm32f4xx_nucleo.h"
  44:Drivers/BSP/STM32F4xx-Nucleo/stm32f4xx_nucleo.c **** 
  45:Drivers/BSP/STM32F4xx-Nucleo/stm32f4xx_nucleo.c **** /** @defgroup BSP BSP
  46:Drivers/BSP/STM32F4xx-Nucleo/stm32f4xx_nucleo.c ****   * @{
  47:Drivers/BSP/STM32F4xx-Nucleo/stm32f4xx_nucleo.c ****   */ 
  48:Drivers/BSP/STM32F4xx-Nucleo/stm32f4xx_nucleo.c **** 
  49:Drivers/BSP/STM32F4xx-Nucleo/stm32f4xx_nucleo.c **** /** @defgroup STM32F4XX_NUCLEO STM32F4XX NUCLEO
  50:Drivers/BSP/STM32F4xx-Nucleo/stm32f4xx_nucleo.c ****   * @{
  51:Drivers/BSP/STM32F4xx-Nucleo/stm32f4xx_nucleo.c ****   */   
  52:Drivers/BSP/STM32F4xx-Nucleo/stm32f4xx_nucleo.c ****     
  53:Drivers/BSP/STM32F4xx-Nucleo/stm32f4xx_nucleo.c **** /** @defgroup STM32F4XX_NUCLEO_LOW_LEVEL STM32F4XX NUCLEO LOW LEVEL
  54:Drivers/BSP/STM32F4xx-Nucleo/stm32f4xx_nucleo.c ****   * @brief This file provides set of firmware functions to manage Leds and push-button
  55:Drivers/BSP/STM32F4xx-Nucleo/stm32f4xx_nucleo.c ****   *        available on STM32F4xx-Nucleo Kit from STMicroelectronics.
  56:Drivers/BSP/STM32F4xx-Nucleo/stm32f4xx_nucleo.c ****   * @{
  57:Drivers/BSP/STM32F4xx-Nucleo/stm32f4xx_nucleo.c ****   */ 
  58:Drivers/BSP/STM32F4xx-Nucleo/stm32f4xx_nucleo.c **** 
  59:Drivers/BSP/STM32F4xx-Nucleo/stm32f4xx_nucleo.c **** /** @defgroup STM32F4XX_NUCLEO_LOW_LEVEL_Private_TypesDefinitions STM32F4XX NUCLEO LOW LEVEL Privat
  60:Drivers/BSP/STM32F4xx-Nucleo/stm32f4xx_nucleo.c ****   * @{
  61:Drivers/BSP/STM32F4xx-Nucleo/stm32f4xx_nucleo.c ****   */ 
  62:Drivers/BSP/STM32F4xx-Nucleo/stm32f4xx_nucleo.c **** /**
  63:Drivers/BSP/STM32F4xx-Nucleo/stm32f4xx_nucleo.c ****   * @}
  64:Drivers/BSP/STM32F4xx-Nucleo/stm32f4xx_nucleo.c ****   */ 
  65:Drivers/BSP/STM32F4xx-Nucleo/stm32f4xx_nucleo.c **** 
  66:Drivers/BSP/STM32F4xx-Nucleo/stm32f4xx_nucleo.c **** 
  67:Drivers/BSP/STM32F4xx-Nucleo/stm32f4xx_nucleo.c **** /** @defgroup STM32F4XX_NUCLEO_LOW_LEVEL_Private_Defines STM32F4XX NUCLEO LOW LEVEL Private Defines
  68:Drivers/BSP/STM32F4xx-Nucleo/stm32f4xx_nucleo.c ****   * @{
  69:Drivers/BSP/STM32F4xx-Nucleo/stm32f4xx_nucleo.c ****   */ 
  70:Drivers/BSP/STM32F4xx-Nucleo/stm32f4xx_nucleo.c **** 
  71:Drivers/BSP/STM32F4xx-Nucleo/stm32f4xx_nucleo.c **** /**
  72:Drivers/BSP/STM32F4xx-Nucleo/stm32f4xx_nucleo.c ****   * @brief STM32F4xx NUCLEO BSP Driver version number V1.2.5
  73:Drivers/BSP/STM32F4xx-Nucleo/stm32f4xx_nucleo.c ****   */
  74:Drivers/BSP/STM32F4xx-Nucleo/stm32f4xx_nucleo.c **** #define __STM32F4xx_NUCLEO_BSP_VERSION_MAIN   (0x01) /*!< [31:24] main version */
  75:Drivers/BSP/STM32F4xx-Nucleo/stm32f4xx_nucleo.c **** #define __STM32F4xx_NUCLEO_BSP_VERSION_SUB1   (0x02) /*!< [23:16] sub1 version */
  76:Drivers/BSP/STM32F4xx-Nucleo/stm32f4xx_nucleo.c **** #define __STM32F4xx_NUCLEO_BSP_VERSION_SUB2   (0x05) /*!< [15:8]  sub2 version */
  77:Drivers/BSP/STM32F4xx-Nucleo/stm32f4xx_nucleo.c **** #define __STM32F4xx_NUCLEO_BSP_VERSION_RC     (0x00) /*!< [7:0]  release candidate */ 
  78:Drivers/BSP/STM32F4xx-Nucleo/stm32f4xx_nucleo.c **** #define __STM32F4xx_NUCLEO_BSP_VERSION        ((__STM32F4xx_NUCLEO_BSP_VERSION_MAIN << 24)\
  79:Drivers/BSP/STM32F4xx-Nucleo/stm32f4xx_nucleo.c ****                                              |(__STM32F4xx_NUCLEO_BSP_VERSION_SUB1 << 16)\
  80:Drivers/BSP/STM32F4xx-Nucleo/stm32f4xx_nucleo.c ****                                              |(__STM32F4xx_NUCLEO_BSP_VERSION_SUB2 << 8 )\
  81:Drivers/BSP/STM32F4xx-Nucleo/stm32f4xx_nucleo.c ****                                              |(__STM32F4xx_NUCLEO_BSP_VERSION_RC))   
  82:Drivers/BSP/STM32F4xx-Nucleo/stm32f4xx_nucleo.c **** 
  83:Drivers/BSP/STM32F4xx-Nucleo/stm32f4xx_nucleo.c **** /**
  84:Drivers/BSP/STM32F4xx-Nucleo/stm32f4xx_nucleo.c ****   * @brief LINK SD Card
  85:Drivers/BSP/STM32F4xx-Nucleo/stm32f4xx_nucleo.c ****   */
  86:Drivers/BSP/STM32F4xx-Nucleo/stm32f4xx_nucleo.c **** #define SD_DUMMY_BYTE            0xFF    
  87:Drivers/BSP/STM32F4xx-Nucleo/stm32f4xx_nucleo.c **** #define SD_NO_RESPONSE_EXPECTED  0x80
  88:Drivers/BSP/STM32F4xx-Nucleo/stm32f4xx_nucleo.c **** 
ARM GAS  D:\cygwin64\tmp\ccfxjHfK.s 			page 3


  89:Drivers/BSP/STM32F4xx-Nucleo/stm32f4xx_nucleo.c **** /**
  90:Drivers/BSP/STM32F4xx-Nucleo/stm32f4xx_nucleo.c ****   * @}
  91:Drivers/BSP/STM32F4xx-Nucleo/stm32f4xx_nucleo.c ****   */ 
  92:Drivers/BSP/STM32F4xx-Nucleo/stm32f4xx_nucleo.c **** 
  93:Drivers/BSP/STM32F4xx-Nucleo/stm32f4xx_nucleo.c **** /** @defgroup STM32F4XX_NUCLEO_LOW_LEVEL_Private_Macros STM32F4XX NUCLEO LOW LEVEL Private Macros
  94:Drivers/BSP/STM32F4xx-Nucleo/stm32f4xx_nucleo.c ****   * @{
  95:Drivers/BSP/STM32F4xx-Nucleo/stm32f4xx_nucleo.c ****   */ 
  96:Drivers/BSP/STM32F4xx-Nucleo/stm32f4xx_nucleo.c **** /**
  97:Drivers/BSP/STM32F4xx-Nucleo/stm32f4xx_nucleo.c ****   * @}
  98:Drivers/BSP/STM32F4xx-Nucleo/stm32f4xx_nucleo.c ****   */ 
  99:Drivers/BSP/STM32F4xx-Nucleo/stm32f4xx_nucleo.c **** 
 100:Drivers/BSP/STM32F4xx-Nucleo/stm32f4xx_nucleo.c **** /** @defgroup STM32F4XX_NUCLEO_LOW_LEVEL_Private_Variables STM32F4XX NUCLEO LOW LEVEL Private Varia
 101:Drivers/BSP/STM32F4xx-Nucleo/stm32f4xx_nucleo.c ****   * @{
 102:Drivers/BSP/STM32F4xx-Nucleo/stm32f4xx_nucleo.c ****   */ 
 103:Drivers/BSP/STM32F4xx-Nucleo/stm32f4xx_nucleo.c **** GPIO_TypeDef* GPIO_PORT[LEDn] = {LED2_GPIO_PORT};
 104:Drivers/BSP/STM32F4xx-Nucleo/stm32f4xx_nucleo.c **** 
 105:Drivers/BSP/STM32F4xx-Nucleo/stm32f4xx_nucleo.c **** const uint16_t GPIO_PIN[LEDn] = {LED2_PIN};
 106:Drivers/BSP/STM32F4xx-Nucleo/stm32f4xx_nucleo.c **** 
 107:Drivers/BSP/STM32F4xx-Nucleo/stm32f4xx_nucleo.c **** GPIO_TypeDef* BUTTON_PORT[BUTTONn] = {KEY_BUTTON_GPIO_PORT}; 
 108:Drivers/BSP/STM32F4xx-Nucleo/stm32f4xx_nucleo.c **** const uint16_t BUTTON_PIN[BUTTONn] = {KEY_BUTTON_PIN}; 
 109:Drivers/BSP/STM32F4xx-Nucleo/stm32f4xx_nucleo.c **** const uint8_t BUTTON_IRQn[BUTTONn] = {KEY_BUTTON_EXTI_IRQn};
 110:Drivers/BSP/STM32F4xx-Nucleo/stm32f4xx_nucleo.c **** 
 111:Drivers/BSP/STM32F4xx-Nucleo/stm32f4xx_nucleo.c **** /**
 112:Drivers/BSP/STM32F4xx-Nucleo/stm32f4xx_nucleo.c ****  * @brief BUS variables
 113:Drivers/BSP/STM32F4xx-Nucleo/stm32f4xx_nucleo.c ****  */
 114:Drivers/BSP/STM32F4xx-Nucleo/stm32f4xx_nucleo.c **** 
 115:Drivers/BSP/STM32F4xx-Nucleo/stm32f4xx_nucleo.c **** #ifdef ADAFRUIT_TFT_JOY_SD_ID802
 116:Drivers/BSP/STM32F4xx-Nucleo/stm32f4xx_nucleo.c **** #ifdef HAL_SPI_MODULE_ENABLED
 117:Drivers/BSP/STM32F4xx-Nucleo/stm32f4xx_nucleo.c **** uint32_t SpixTimeout = NUCLEO_SPIx_TIMEOUT_MAX; /*<! Value of Timeout when SPI communication fails 
 118:Drivers/BSP/STM32F4xx-Nucleo/stm32f4xx_nucleo.c **** static SPI_HandleTypeDef hnucleo_Spi;
 119:Drivers/BSP/STM32F4xx-Nucleo/stm32f4xx_nucleo.c **** #endif /* HAL_SPI_MODULE_ENABLED */
 120:Drivers/BSP/STM32F4xx-Nucleo/stm32f4xx_nucleo.c **** 
 121:Drivers/BSP/STM32F4xx-Nucleo/stm32f4xx_nucleo.c **** #ifdef HAL_ADC_MODULE_ENABLED
 122:Drivers/BSP/STM32F4xx-Nucleo/stm32f4xx_nucleo.c **** static ADC_HandleTypeDef hnucleo_Adc;
 123:Drivers/BSP/STM32F4xx-Nucleo/stm32f4xx_nucleo.c **** /* ADC channel configuration structure declaration */
 124:Drivers/BSP/STM32F4xx-Nucleo/stm32f4xx_nucleo.c **** static ADC_ChannelConfTypeDef sConfig;
 125:Drivers/BSP/STM32F4xx-Nucleo/stm32f4xx_nucleo.c **** #endif /* HAL_ADC_MODULE_ENABLED */
 126:Drivers/BSP/STM32F4xx-Nucleo/stm32f4xx_nucleo.c **** #endif /* ADAFRUIT_TFT_JOY_SD_ID802 */
 127:Drivers/BSP/STM32F4xx-Nucleo/stm32f4xx_nucleo.c **** 
 128:Drivers/BSP/STM32F4xx-Nucleo/stm32f4xx_nucleo.c **** /**
 129:Drivers/BSP/STM32F4xx-Nucleo/stm32f4xx_nucleo.c ****   * @}
 130:Drivers/BSP/STM32F4xx-Nucleo/stm32f4xx_nucleo.c ****   */ 
 131:Drivers/BSP/STM32F4xx-Nucleo/stm32f4xx_nucleo.c **** 
 132:Drivers/BSP/STM32F4xx-Nucleo/stm32f4xx_nucleo.c **** /** @defgroup STM32F4XX_NUCLEO_LOW_LEVEL_Private_FunctionPrototypes STM32F4XX NUCLEO LOW LEVEL Priv
 133:Drivers/BSP/STM32F4xx-Nucleo/stm32f4xx_nucleo.c ****   * @{
 134:Drivers/BSP/STM32F4xx-Nucleo/stm32f4xx_nucleo.c ****   */
 135:Drivers/BSP/STM32F4xx-Nucleo/stm32f4xx_nucleo.c **** #ifdef ADAFRUIT_TFT_JOY_SD_ID802
 136:Drivers/BSP/STM32F4xx-Nucleo/stm32f4xx_nucleo.c **** 
 137:Drivers/BSP/STM32F4xx-Nucleo/stm32f4xx_nucleo.c **** #ifdef HAL_SPI_MODULE_ENABLED
 138:Drivers/BSP/STM32F4xx-Nucleo/stm32f4xx_nucleo.c **** static void       SPIx_Init(void);
 139:Drivers/BSP/STM32F4xx-Nucleo/stm32f4xx_nucleo.c **** static void       SPIx_Write(uint8_t Value);
 140:Drivers/BSP/STM32F4xx-Nucleo/stm32f4xx_nucleo.c **** static void       SPIx_WriteReadData(const uint8_t *DataIn, uint8_t *DataOut, uint16_t DataLegnth);
 141:Drivers/BSP/STM32F4xx-Nucleo/stm32f4xx_nucleo.c **** static void       SPIx_Error(void);
 142:Drivers/BSP/STM32F4xx-Nucleo/stm32f4xx_nucleo.c **** static void       SPIx_MspInit(SPI_HandleTypeDef *hspi);
 143:Drivers/BSP/STM32F4xx-Nucleo/stm32f4xx_nucleo.c **** 
 144:Drivers/BSP/STM32F4xx-Nucleo/stm32f4xx_nucleo.c **** /* SD IO functions */
 145:Drivers/BSP/STM32F4xx-Nucleo/stm32f4xx_nucleo.c **** void              SD_IO_Init(void);
ARM GAS  D:\cygwin64\tmp\ccfxjHfK.s 			page 4


 146:Drivers/BSP/STM32F4xx-Nucleo/stm32f4xx_nucleo.c **** void              SD_IO_CSState(uint8_t state);
 147:Drivers/BSP/STM32F4xx-Nucleo/stm32f4xx_nucleo.c **** void              SD_IO_WriteReadData(const uint8_t *DataIn, uint8_t *DataOut, uint16_t DataLength)
 148:Drivers/BSP/STM32F4xx-Nucleo/stm32f4xx_nucleo.c **** uint8_t           SD_IO_WriteByte(uint8_t Data);
 149:Drivers/BSP/STM32F4xx-Nucleo/stm32f4xx_nucleo.c **** 
 150:Drivers/BSP/STM32F4xx-Nucleo/stm32f4xx_nucleo.c **** /* LCD IO functions */
 151:Drivers/BSP/STM32F4xx-Nucleo/stm32f4xx_nucleo.c **** void              LCD_IO_Init(void);
 152:Drivers/BSP/STM32F4xx-Nucleo/stm32f4xx_nucleo.c **** void              LCD_IO_WriteData(uint8_t Data);
 153:Drivers/BSP/STM32F4xx-Nucleo/stm32f4xx_nucleo.c **** void              LCD_IO_WriteMultipleData(uint8_t *pData, uint32_t Size);
 154:Drivers/BSP/STM32F4xx-Nucleo/stm32f4xx_nucleo.c **** void              LCD_IO_WriteReg(uint8_t LCDReg);
 155:Drivers/BSP/STM32F4xx-Nucleo/stm32f4xx_nucleo.c **** void              LCD_Delay(uint32_t delay);
 156:Drivers/BSP/STM32F4xx-Nucleo/stm32f4xx_nucleo.c **** #endif /* HAL_SPI_MODULE_ENABLED */
 157:Drivers/BSP/STM32F4xx-Nucleo/stm32f4xx_nucleo.c **** 
 158:Drivers/BSP/STM32F4xx-Nucleo/stm32f4xx_nucleo.c **** #ifdef HAL_ADC_MODULE_ENABLED
 159:Drivers/BSP/STM32F4xx-Nucleo/stm32f4xx_nucleo.c **** static void       ADCx_Init(void);
 160:Drivers/BSP/STM32F4xx-Nucleo/stm32f4xx_nucleo.c **** static void       ADCx_DeInit(void);
 161:Drivers/BSP/STM32F4xx-Nucleo/stm32f4xx_nucleo.c **** static void       ADCx_MspInit(ADC_HandleTypeDef *hadc);
 162:Drivers/BSP/STM32F4xx-Nucleo/stm32f4xx_nucleo.c **** static void ADCx_MspDeInit(ADC_HandleTypeDef *hadc);
 163:Drivers/BSP/STM32F4xx-Nucleo/stm32f4xx_nucleo.c **** #endif /* HAL_ADC_MODULE_ENABLED */
 164:Drivers/BSP/STM32F4xx-Nucleo/stm32f4xx_nucleo.c **** 
 165:Drivers/BSP/STM32F4xx-Nucleo/stm32f4xx_nucleo.c **** #endif /* ADAFRUIT_TFT_JOY_SD_ID802 */
 166:Drivers/BSP/STM32F4xx-Nucleo/stm32f4xx_nucleo.c **** 
 167:Drivers/BSP/STM32F4xx-Nucleo/stm32f4xx_nucleo.c **** /**
 168:Drivers/BSP/STM32F4xx-Nucleo/stm32f4xx_nucleo.c ****   * @}
 169:Drivers/BSP/STM32F4xx-Nucleo/stm32f4xx_nucleo.c ****   */ 
 170:Drivers/BSP/STM32F4xx-Nucleo/stm32f4xx_nucleo.c **** 
 171:Drivers/BSP/STM32F4xx-Nucleo/stm32f4xx_nucleo.c **** /** @defgroup STM32F4XX_NUCLEO_LOW_LEVEL_Private_Functions STM32F4XX NUCLEO LOW LEVEL Private Funct
 172:Drivers/BSP/STM32F4xx-Nucleo/stm32f4xx_nucleo.c ****   * @{
 173:Drivers/BSP/STM32F4xx-Nucleo/stm32f4xx_nucleo.c ****   */ 
 174:Drivers/BSP/STM32F4xx-Nucleo/stm32f4xx_nucleo.c **** 
 175:Drivers/BSP/STM32F4xx-Nucleo/stm32f4xx_nucleo.c **** /**
 176:Drivers/BSP/STM32F4xx-Nucleo/stm32f4xx_nucleo.c ****   * @brief  This method returns the STM32F4xx NUCLEO BSP Driver revision
 177:Drivers/BSP/STM32F4xx-Nucleo/stm32f4xx_nucleo.c ****   * @retval version: 0xXYZR (8bits for each decimal, R for RC)
 178:Drivers/BSP/STM32F4xx-Nucleo/stm32f4xx_nucleo.c ****   */
 179:Drivers/BSP/STM32F4xx-Nucleo/stm32f4xx_nucleo.c **** uint32_t BSP_GetVersion(void)
 180:Drivers/BSP/STM32F4xx-Nucleo/stm32f4xx_nucleo.c **** {
  28              		.loc 1 180 0
  29              		.cfi_startproc
  30              		@ args = 0, pretend = 0, frame = 0
  31              		@ frame_needed = 0, uses_anonymous_args = 0
  32              		@ link register save eliminated.
 181:Drivers/BSP/STM32F4xx-Nucleo/stm32f4xx_nucleo.c ****   return __STM32F4xx_NUCLEO_BSP_VERSION;
 182:Drivers/BSP/STM32F4xx-Nucleo/stm32f4xx_nucleo.c **** }
  33              		.loc 1 182 0
  34 0000 0048     		ldr	r0, .L2
  35 0002 7047     		bx	lr
  36              	.L3:
  37              		.align	2
  38              	.L2:
  39 0004 00050201 		.word	16909568
  40              		.cfi_endproc
  41              	.LFE130:
  43              		.section	.text.BSP_LED_Init,"ax",%progbits
  44              		.align	1
  45              		.global	BSP_LED_Init
  46              		.syntax unified
  47              		.thumb
  48              		.thumb_func
ARM GAS  D:\cygwin64\tmp\ccfxjHfK.s 			page 5


  49              		.fpu fpv4-sp-d16
  51              	BSP_LED_Init:
  52              	.LFB131:
 183:Drivers/BSP/STM32F4xx-Nucleo/stm32f4xx_nucleo.c **** 
 184:Drivers/BSP/STM32F4xx-Nucleo/stm32f4xx_nucleo.c **** /**
 185:Drivers/BSP/STM32F4xx-Nucleo/stm32f4xx_nucleo.c ****   * @brief  Configures LED GPIO.
 186:Drivers/BSP/STM32F4xx-Nucleo/stm32f4xx_nucleo.c ****   * @param  Led: Specifies the Led to be configured. 
 187:Drivers/BSP/STM32F4xx-Nucleo/stm32f4xx_nucleo.c ****   *   This parameter can be one of following parameters:
 188:Drivers/BSP/STM32F4xx-Nucleo/stm32f4xx_nucleo.c ****   *     @arg LED2
 189:Drivers/BSP/STM32F4xx-Nucleo/stm32f4xx_nucleo.c ****   */
 190:Drivers/BSP/STM32F4xx-Nucleo/stm32f4xx_nucleo.c **** void BSP_LED_Init(Led_TypeDef Led)
 191:Drivers/BSP/STM32F4xx-Nucleo/stm32f4xx_nucleo.c **** {
  53              		.loc 1 191 0
  54              		.cfi_startproc
  55              		@ args = 0, pretend = 0, frame = 24
  56              		@ frame_needed = 0, uses_anonymous_args = 0
  57              	.LVL0:
  58 0000 F0B5     		push	{r4, r5, r6, r7, lr}
  59              	.LCFI0:
  60              		.cfi_def_cfa_offset 20
  61              		.cfi_offset 4, -20
  62              		.cfi_offset 5, -16
  63              		.cfi_offset 6, -12
  64              		.cfi_offset 7, -8
  65              		.cfi_offset 14, -4
  66 0002 87B0     		sub	sp, sp, #28
  67              	.LCFI1:
  68              		.cfi_def_cfa_offset 48
  69 0004 0646     		mov	r6, r0
  70              	.LBB2:
 192:Drivers/BSP/STM32F4xx-Nucleo/stm32f4xx_nucleo.c ****   GPIO_InitTypeDef  GPIO_InitStruct;
 193:Drivers/BSP/STM32F4xx-Nucleo/stm32f4xx_nucleo.c ****   
 194:Drivers/BSP/STM32F4xx-Nucleo/stm32f4xx_nucleo.c ****   /* Enable the GPIO_LED Clock */
 195:Drivers/BSP/STM32F4xx-Nucleo/stm32f4xx_nucleo.c ****   LEDx_GPIO_CLK_ENABLE(Led);
  71              		.loc 1 195 0
  72 0006 0024     		movs	r4, #0
  73 0008 0094     		str	r4, [sp]
  74 000a 0F4B     		ldr	r3, .L6
  75 000c 1A6B     		ldr	r2, [r3, #48]
  76 000e 42F00102 		orr	r2, r2, #1
  77 0012 1A63     		str	r2, [r3, #48]
  78 0014 1B6B     		ldr	r3, [r3, #48]
  79 0016 03F00103 		and	r3, r3, #1
  80 001a 0093     		str	r3, [sp]
  81 001c 009B     		ldr	r3, [sp]
  82              	.LBE2:
 196:Drivers/BSP/STM32F4xx-Nucleo/stm32f4xx_nucleo.c ****   
 197:Drivers/BSP/STM32F4xx-Nucleo/stm32f4xx_nucleo.c ****   /* Configure the GPIO_LED pin */
 198:Drivers/BSP/STM32F4xx-Nucleo/stm32f4xx_nucleo.c ****   GPIO_InitStruct.Pin = GPIO_PIN[Led];
  83              		.loc 1 198 0
  84 001e 2027     		movs	r7, #32
  85 0020 0197     		str	r7, [sp, #4]
 199:Drivers/BSP/STM32F4xx-Nucleo/stm32f4xx_nucleo.c ****   GPIO_InitStruct.Mode = GPIO_MODE_OUTPUT_PP;
  86              		.loc 1 199 0
  87 0022 0123     		movs	r3, #1
  88 0024 0293     		str	r3, [sp, #8]
 200:Drivers/BSP/STM32F4xx-Nucleo/stm32f4xx_nucleo.c ****   GPIO_InitStruct.Pull = GPIO_NOPULL;
ARM GAS  D:\cygwin64\tmp\ccfxjHfK.s 			page 6


  89              		.loc 1 200 0
  90 0026 0394     		str	r4, [sp, #12]
 201:Drivers/BSP/STM32F4xx-Nucleo/stm32f4xx_nucleo.c ****   GPIO_InitStruct.Speed = GPIO_SPEED_FAST;
  91              		.loc 1 201 0
  92 0028 0223     		movs	r3, #2
  93 002a 0493     		str	r3, [sp, #16]
 202:Drivers/BSP/STM32F4xx-Nucleo/stm32f4xx_nucleo.c ****   
 203:Drivers/BSP/STM32F4xx-Nucleo/stm32f4xx_nucleo.c ****   HAL_GPIO_Init(GPIO_PORT[Led], &GPIO_InitStruct);
  94              		.loc 1 203 0
  95 002c 074D     		ldr	r5, .L6+4
  96 002e 01A9     		add	r1, sp, #4
  97 0030 55F82000 		ldr	r0, [r5, r0, lsl #2]
  98              	.LVL1:
  99 0034 FFF7FEFF 		bl	HAL_GPIO_Init
 100              	.LVL2:
 204:Drivers/BSP/STM32F4xx-Nucleo/stm32f4xx_nucleo.c ****   
 205:Drivers/BSP/STM32F4xx-Nucleo/stm32f4xx_nucleo.c ****   HAL_GPIO_WritePin(GPIO_PORT[Led], GPIO_PIN[Led], GPIO_PIN_RESET); 
 101              		.loc 1 205 0
 102 0038 2246     		mov	r2, r4
 103 003a 3946     		mov	r1, r7
 104 003c 55F82600 		ldr	r0, [r5, r6, lsl #2]
 105 0040 FFF7FEFF 		bl	HAL_GPIO_WritePin
 106              	.LVL3:
 206:Drivers/BSP/STM32F4xx-Nucleo/stm32f4xx_nucleo.c **** }
 107              		.loc 1 206 0
 108 0044 07B0     		add	sp, sp, #28
 109              	.LCFI2:
 110              		.cfi_def_cfa_offset 20
 111              		@ sp needed
 112 0046 F0BD     		pop	{r4, r5, r6, r7, pc}
 113              	.L7:
 114              		.align	2
 115              	.L6:
 116 0048 00380240 		.word	1073887232
 117 004c 00000000 		.word	.LANCHOR0
 118              		.cfi_endproc
 119              	.LFE131:
 121              		.section	.text.BSP_LED_DeInit,"ax",%progbits
 122              		.align	1
 123              		.global	BSP_LED_DeInit
 124              		.syntax unified
 125              		.thumb
 126              		.thumb_func
 127              		.fpu fpv4-sp-d16
 129              	BSP_LED_DeInit:
 130              	.LFB132:
 207:Drivers/BSP/STM32F4xx-Nucleo/stm32f4xx_nucleo.c **** 
 208:Drivers/BSP/STM32F4xx-Nucleo/stm32f4xx_nucleo.c **** /**
 209:Drivers/BSP/STM32F4xx-Nucleo/stm32f4xx_nucleo.c ****   * @brief  DeInit LEDs.
 210:Drivers/BSP/STM32F4xx-Nucleo/stm32f4xx_nucleo.c ****   * @param  Led: LED to be de-init. 
 211:Drivers/BSP/STM32F4xx-Nucleo/stm32f4xx_nucleo.c ****   *   This parameter can be one of the following values:
 212:Drivers/BSP/STM32F4xx-Nucleo/stm32f4xx_nucleo.c ****   *     @arg  LED2
 213:Drivers/BSP/STM32F4xx-Nucleo/stm32f4xx_nucleo.c ****   * @note Led DeInit does not disable the GPIO clock nor disable the Mfx 
 214:Drivers/BSP/STM32F4xx-Nucleo/stm32f4xx_nucleo.c ****   */
 215:Drivers/BSP/STM32F4xx-Nucleo/stm32f4xx_nucleo.c **** void BSP_LED_DeInit(Led_TypeDef Led)
 216:Drivers/BSP/STM32F4xx-Nucleo/stm32f4xx_nucleo.c **** {
 131              		.loc 1 216 0
ARM GAS  D:\cygwin64\tmp\ccfxjHfK.s 			page 7


 132              		.cfi_startproc
 133              		@ args = 0, pretend = 0, frame = 0
 134              		@ frame_needed = 0, uses_anonymous_args = 0
 135              	.LVL4:
 136 0000 38B5     		push	{r3, r4, r5, lr}
 137              	.LCFI3:
 138              		.cfi_def_cfa_offset 16
 139              		.cfi_offset 3, -16
 140              		.cfi_offset 4, -12
 141              		.cfi_offset 5, -8
 142              		.cfi_offset 14, -4
 143 0002 0546     		mov	r5, r0
 217:Drivers/BSP/STM32F4xx-Nucleo/stm32f4xx_nucleo.c ****   GPIO_InitTypeDef  gpio_init_structure;
 218:Drivers/BSP/STM32F4xx-Nucleo/stm32f4xx_nucleo.c **** 
 219:Drivers/BSP/STM32F4xx-Nucleo/stm32f4xx_nucleo.c ****   /* Turn off LED */
 220:Drivers/BSP/STM32F4xx-Nucleo/stm32f4xx_nucleo.c ****   HAL_GPIO_WritePin(GPIO_PORT[Led], GPIO_PIN[Led], GPIO_PIN_RESET);
 144              		.loc 1 220 0
 145 0004 064C     		ldr	r4, .L10
 146 0006 0022     		movs	r2, #0
 147 0008 2021     		movs	r1, #32
 148 000a 54F82000 		ldr	r0, [r4, r0, lsl #2]
 149              	.LVL5:
 150 000e FFF7FEFF 		bl	HAL_GPIO_WritePin
 151              	.LVL6:
 221:Drivers/BSP/STM32F4xx-Nucleo/stm32f4xx_nucleo.c ****   /* DeInit the GPIO_LED pin */
 222:Drivers/BSP/STM32F4xx-Nucleo/stm32f4xx_nucleo.c ****   gpio_init_structure.Pin = GPIO_PIN[Led];
 223:Drivers/BSP/STM32F4xx-Nucleo/stm32f4xx_nucleo.c ****   HAL_GPIO_DeInit(GPIO_PORT[Led], gpio_init_structure.Pin);
 152              		.loc 1 223 0
 153 0012 2021     		movs	r1, #32
 154 0014 54F82500 		ldr	r0, [r4, r5, lsl #2]
 155 0018 FFF7FEFF 		bl	HAL_GPIO_DeInit
 156              	.LVL7:
 157 001c 38BD     		pop	{r3, r4, r5, pc}
 158              	.L11:
 159 001e 00BF     		.align	2
 160              	.L10:
 161 0020 00000000 		.word	.LANCHOR0
 162              		.cfi_endproc
 163              	.LFE132:
 165              		.section	.text.BSP_LED_On,"ax",%progbits
 166              		.align	1
 167              		.global	BSP_LED_On
 168              		.syntax unified
 169              		.thumb
 170              		.thumb_func
 171              		.fpu fpv4-sp-d16
 173              	BSP_LED_On:
 174              	.LFB133:
 224:Drivers/BSP/STM32F4xx-Nucleo/stm32f4xx_nucleo.c **** }
 225:Drivers/BSP/STM32F4xx-Nucleo/stm32f4xx_nucleo.c **** 
 226:Drivers/BSP/STM32F4xx-Nucleo/stm32f4xx_nucleo.c **** /**
 227:Drivers/BSP/STM32F4xx-Nucleo/stm32f4xx_nucleo.c ****   * @brief  Turns selected LED On.
 228:Drivers/BSP/STM32F4xx-Nucleo/stm32f4xx_nucleo.c ****   * @param  Led: Specifies the Led to be set on. 
 229:Drivers/BSP/STM32F4xx-Nucleo/stm32f4xx_nucleo.c ****   *   This parameter can be one of following parameters:
 230:Drivers/BSP/STM32F4xx-Nucleo/stm32f4xx_nucleo.c ****   *     @arg LED2
 231:Drivers/BSP/STM32F4xx-Nucleo/stm32f4xx_nucleo.c ****   */
 232:Drivers/BSP/STM32F4xx-Nucleo/stm32f4xx_nucleo.c **** void BSP_LED_On(Led_TypeDef Led)
ARM GAS  D:\cygwin64\tmp\ccfxjHfK.s 			page 8


 233:Drivers/BSP/STM32F4xx-Nucleo/stm32f4xx_nucleo.c **** {
 175              		.loc 1 233 0
 176              		.cfi_startproc
 177              		@ args = 0, pretend = 0, frame = 0
 178              		@ frame_needed = 0, uses_anonymous_args = 0
 179              	.LVL8:
 180 0000 08B5     		push	{r3, lr}
 181              	.LCFI4:
 182              		.cfi_def_cfa_offset 8
 183              		.cfi_offset 3, -8
 184              		.cfi_offset 14, -4
 234:Drivers/BSP/STM32F4xx-Nucleo/stm32f4xx_nucleo.c ****   HAL_GPIO_WritePin(GPIO_PORT[Led], GPIO_PIN[Led], GPIO_PIN_SET); 
 185              		.loc 1 234 0
 186 0002 0122     		movs	r2, #1
 187 0004 2021     		movs	r1, #32
 188 0006 034B     		ldr	r3, .L14
 189 0008 53F82000 		ldr	r0, [r3, r0, lsl #2]
 190              	.LVL9:
 191 000c FFF7FEFF 		bl	HAL_GPIO_WritePin
 192              	.LVL10:
 193 0010 08BD     		pop	{r3, pc}
 194              	.L15:
 195 0012 00BF     		.align	2
 196              	.L14:
 197 0014 00000000 		.word	.LANCHOR0
 198              		.cfi_endproc
 199              	.LFE133:
 201              		.section	.text.BSP_LED_Off,"ax",%progbits
 202              		.align	1
 203              		.global	BSP_LED_Off
 204              		.syntax unified
 205              		.thumb
 206              		.thumb_func
 207              		.fpu fpv4-sp-d16
 209              	BSP_LED_Off:
 210              	.LFB134:
 235:Drivers/BSP/STM32F4xx-Nucleo/stm32f4xx_nucleo.c **** }
 236:Drivers/BSP/STM32F4xx-Nucleo/stm32f4xx_nucleo.c **** 
 237:Drivers/BSP/STM32F4xx-Nucleo/stm32f4xx_nucleo.c **** /**
 238:Drivers/BSP/STM32F4xx-Nucleo/stm32f4xx_nucleo.c ****   * @brief  Turns selected LED Off.
 239:Drivers/BSP/STM32F4xx-Nucleo/stm32f4xx_nucleo.c ****   * @param  Led: Specifies the Led to be set off. 
 240:Drivers/BSP/STM32F4xx-Nucleo/stm32f4xx_nucleo.c ****   *   This parameter can be one of following parameters:
 241:Drivers/BSP/STM32F4xx-Nucleo/stm32f4xx_nucleo.c ****   *     @arg LED2
 242:Drivers/BSP/STM32F4xx-Nucleo/stm32f4xx_nucleo.c ****   */
 243:Drivers/BSP/STM32F4xx-Nucleo/stm32f4xx_nucleo.c **** void BSP_LED_Off(Led_TypeDef Led)
 244:Drivers/BSP/STM32F4xx-Nucleo/stm32f4xx_nucleo.c **** {
 211              		.loc 1 244 0
 212              		.cfi_startproc
 213              		@ args = 0, pretend = 0, frame = 0
 214              		@ frame_needed = 0, uses_anonymous_args = 0
 215              	.LVL11:
 216 0000 08B5     		push	{r3, lr}
 217              	.LCFI5:
 218              		.cfi_def_cfa_offset 8
 219              		.cfi_offset 3, -8
 220              		.cfi_offset 14, -4
 245:Drivers/BSP/STM32F4xx-Nucleo/stm32f4xx_nucleo.c ****   HAL_GPIO_WritePin(GPIO_PORT[Led], GPIO_PIN[Led], GPIO_PIN_RESET); 
ARM GAS  D:\cygwin64\tmp\ccfxjHfK.s 			page 9


 221              		.loc 1 245 0
 222 0002 0022     		movs	r2, #0
 223 0004 2021     		movs	r1, #32
 224 0006 034B     		ldr	r3, .L18
 225 0008 53F82000 		ldr	r0, [r3, r0, lsl #2]
 226              	.LVL12:
 227 000c FFF7FEFF 		bl	HAL_GPIO_WritePin
 228              	.LVL13:
 229 0010 08BD     		pop	{r3, pc}
 230              	.L19:
 231 0012 00BF     		.align	2
 232              	.L18:
 233 0014 00000000 		.word	.LANCHOR0
 234              		.cfi_endproc
 235              	.LFE134:
 237              		.section	.text.BSP_LED_Toggle,"ax",%progbits
 238              		.align	1
 239              		.global	BSP_LED_Toggle
 240              		.syntax unified
 241              		.thumb
 242              		.thumb_func
 243              		.fpu fpv4-sp-d16
 245              	BSP_LED_Toggle:
 246              	.LFB135:
 246:Drivers/BSP/STM32F4xx-Nucleo/stm32f4xx_nucleo.c **** }
 247:Drivers/BSP/STM32F4xx-Nucleo/stm32f4xx_nucleo.c **** 
 248:Drivers/BSP/STM32F4xx-Nucleo/stm32f4xx_nucleo.c **** /**
 249:Drivers/BSP/STM32F4xx-Nucleo/stm32f4xx_nucleo.c ****   * @brief  Toggles the selected LED.
 250:Drivers/BSP/STM32F4xx-Nucleo/stm32f4xx_nucleo.c ****   * @param  Led: Specifies the Led to be toggled. 
 251:Drivers/BSP/STM32F4xx-Nucleo/stm32f4xx_nucleo.c ****   *   This parameter can be one of following parameters:
 252:Drivers/BSP/STM32F4xx-Nucleo/stm32f4xx_nucleo.c ****   *     @arg LED2  
 253:Drivers/BSP/STM32F4xx-Nucleo/stm32f4xx_nucleo.c ****   */
 254:Drivers/BSP/STM32F4xx-Nucleo/stm32f4xx_nucleo.c **** void BSP_LED_Toggle(Led_TypeDef Led)
 255:Drivers/BSP/STM32F4xx-Nucleo/stm32f4xx_nucleo.c **** {
 247              		.loc 1 255 0
 248              		.cfi_startproc
 249              		@ args = 0, pretend = 0, frame = 0
 250              		@ frame_needed = 0, uses_anonymous_args = 0
 251              	.LVL14:
 252 0000 08B5     		push	{r3, lr}
 253              	.LCFI6:
 254              		.cfi_def_cfa_offset 8
 255              		.cfi_offset 3, -8
 256              		.cfi_offset 14, -4
 256:Drivers/BSP/STM32F4xx-Nucleo/stm32f4xx_nucleo.c ****   HAL_GPIO_TogglePin(GPIO_PORT[Led], GPIO_PIN[Led]);
 257              		.loc 1 256 0
 258 0002 2021     		movs	r1, #32
 259 0004 024B     		ldr	r3, .L22
 260 0006 53F82000 		ldr	r0, [r3, r0, lsl #2]
 261              	.LVL15:
 262 000a FFF7FEFF 		bl	HAL_GPIO_TogglePin
 263              	.LVL16:
 264 000e 08BD     		pop	{r3, pc}
 265              	.L23:
 266              		.align	2
 267              	.L22:
 268 0010 00000000 		.word	.LANCHOR0
ARM GAS  D:\cygwin64\tmp\ccfxjHfK.s 			page 10


 269              		.cfi_endproc
 270              	.LFE135:
 272              		.section	.text.BSP_PB_Init,"ax",%progbits
 273              		.align	1
 274              		.global	BSP_PB_Init
 275              		.syntax unified
 276              		.thumb
 277              		.thumb_func
 278              		.fpu fpv4-sp-d16
 280              	BSP_PB_Init:
 281              	.LFB136:
 257:Drivers/BSP/STM32F4xx-Nucleo/stm32f4xx_nucleo.c **** }
 258:Drivers/BSP/STM32F4xx-Nucleo/stm32f4xx_nucleo.c **** 
 259:Drivers/BSP/STM32F4xx-Nucleo/stm32f4xx_nucleo.c **** /**
 260:Drivers/BSP/STM32F4xx-Nucleo/stm32f4xx_nucleo.c ****   * @brief  Configures Button GPIO and EXTI Line.
 261:Drivers/BSP/STM32F4xx-Nucleo/stm32f4xx_nucleo.c ****   * @param  Button: Specifies the Button to be configured.
 262:Drivers/BSP/STM32F4xx-Nucleo/stm32f4xx_nucleo.c ****   *   This parameter should be: BUTTON_KEY
 263:Drivers/BSP/STM32F4xx-Nucleo/stm32f4xx_nucleo.c ****   * @param  ButtonMode: Specifies Button mode.
 264:Drivers/BSP/STM32F4xx-Nucleo/stm32f4xx_nucleo.c ****   *   This parameter can be one of following parameters:   
 265:Drivers/BSP/STM32F4xx-Nucleo/stm32f4xx_nucleo.c ****   *     @arg BUTTON_MODE_GPIO: Button will be used as simple IO 
 266:Drivers/BSP/STM32F4xx-Nucleo/stm32f4xx_nucleo.c ****   *     @arg BUTTON_MODE_EXTI: Button will be connected to EXTI line with interrupt
 267:Drivers/BSP/STM32F4xx-Nucleo/stm32f4xx_nucleo.c ****   *                            generation capability  
 268:Drivers/BSP/STM32F4xx-Nucleo/stm32f4xx_nucleo.c ****   */
 269:Drivers/BSP/STM32F4xx-Nucleo/stm32f4xx_nucleo.c **** void BSP_PB_Init(Button_TypeDef Button, ButtonMode_TypeDef ButtonMode)
 270:Drivers/BSP/STM32F4xx-Nucleo/stm32f4xx_nucleo.c **** {
 282              		.loc 1 270 0
 283              		.cfi_startproc
 284              		@ args = 0, pretend = 0, frame = 24
 285              		@ frame_needed = 0, uses_anonymous_args = 0
 286              	.LVL17:
 287 0000 30B5     		push	{r4, r5, lr}
 288              	.LCFI7:
 289              		.cfi_def_cfa_offset 12
 290              		.cfi_offset 4, -12
 291              		.cfi_offset 5, -8
 292              		.cfi_offset 14, -4
 293 0002 87B0     		sub	sp, sp, #28
 294              	.LCFI8:
 295              		.cfi_def_cfa_offset 40
 296 0004 0546     		mov	r5, r0
 297              	.LBB3:
 271:Drivers/BSP/STM32F4xx-Nucleo/stm32f4xx_nucleo.c ****   GPIO_InitTypeDef GPIO_InitStruct;
 272:Drivers/BSP/STM32F4xx-Nucleo/stm32f4xx_nucleo.c ****   
 273:Drivers/BSP/STM32F4xx-Nucleo/stm32f4xx_nucleo.c ****   /* Enable the BUTTON Clock */
 274:Drivers/BSP/STM32F4xx-Nucleo/stm32f4xx_nucleo.c ****   BUTTONx_GPIO_CLK_ENABLE(Button);
 298              		.loc 1 274 0
 299 0006 0023     		movs	r3, #0
 300 0008 0093     		str	r3, [sp]
 301 000a 1A4B     		ldr	r3, .L30
 302 000c 1A6B     		ldr	r2, [r3, #48]
 303 000e 42F00402 		orr	r2, r2, #4
 304 0012 1A63     		str	r2, [r3, #48]
 305 0014 1B6B     		ldr	r3, [r3, #48]
 306 0016 03F00403 		and	r3, r3, #4
 307 001a 0093     		str	r3, [sp]
 308 001c 009B     		ldr	r3, [sp]
 309              	.LBE3:
ARM GAS  D:\cygwin64\tmp\ccfxjHfK.s 			page 11


 275:Drivers/BSP/STM32F4xx-Nucleo/stm32f4xx_nucleo.c ****   
 276:Drivers/BSP/STM32F4xx-Nucleo/stm32f4xx_nucleo.c ****   if(ButtonMode == BUTTON_MODE_GPIO)
 310              		.loc 1 276 0
 311 001e 0C46     		mov	r4, r1
 312 0020 19B1     		cbz	r1, .L28
 313              	.LVL18:
 314              	.L25:
 277:Drivers/BSP/STM32F4xx-Nucleo/stm32f4xx_nucleo.c ****   {
 278:Drivers/BSP/STM32F4xx-Nucleo/stm32f4xx_nucleo.c ****     /* Configure Button pin as input */
 279:Drivers/BSP/STM32F4xx-Nucleo/stm32f4xx_nucleo.c ****     GPIO_InitStruct.Pin = BUTTON_PIN[Button];
 280:Drivers/BSP/STM32F4xx-Nucleo/stm32f4xx_nucleo.c ****     GPIO_InitStruct.Mode = GPIO_MODE_INPUT;
 281:Drivers/BSP/STM32F4xx-Nucleo/stm32f4xx_nucleo.c ****     GPIO_InitStruct.Pull = GPIO_PULLDOWN;
 282:Drivers/BSP/STM32F4xx-Nucleo/stm32f4xx_nucleo.c ****     GPIO_InitStruct.Speed = GPIO_SPEED_FAST;
 283:Drivers/BSP/STM32F4xx-Nucleo/stm32f4xx_nucleo.c ****     HAL_GPIO_Init(BUTTON_PORT[Button], &GPIO_InitStruct);
 284:Drivers/BSP/STM32F4xx-Nucleo/stm32f4xx_nucleo.c ****   }
 285:Drivers/BSP/STM32F4xx-Nucleo/stm32f4xx_nucleo.c ****   
 286:Drivers/BSP/STM32F4xx-Nucleo/stm32f4xx_nucleo.c ****   if(ButtonMode == BUTTON_MODE_EXTI)
 315              		.loc 1 286 0
 316 0022 012C     		cmp	r4, #1
 317 0024 10D0     		beq	.L29
 318              	.L24:
 287:Drivers/BSP/STM32F4xx-Nucleo/stm32f4xx_nucleo.c ****   {
 288:Drivers/BSP/STM32F4xx-Nucleo/stm32f4xx_nucleo.c ****     /* Configure Button pin as input with External interrupt */
 289:Drivers/BSP/STM32F4xx-Nucleo/stm32f4xx_nucleo.c ****     GPIO_InitStruct.Pin = BUTTON_PIN[Button];
 290:Drivers/BSP/STM32F4xx-Nucleo/stm32f4xx_nucleo.c ****     GPIO_InitStruct.Pull = GPIO_NOPULL;
 291:Drivers/BSP/STM32F4xx-Nucleo/stm32f4xx_nucleo.c ****     GPIO_InitStruct.Mode = GPIO_MODE_IT_FALLING; 
 292:Drivers/BSP/STM32F4xx-Nucleo/stm32f4xx_nucleo.c ****     HAL_GPIO_Init(BUTTON_PORT[Button], &GPIO_InitStruct);
 293:Drivers/BSP/STM32F4xx-Nucleo/stm32f4xx_nucleo.c ****     
 294:Drivers/BSP/STM32F4xx-Nucleo/stm32f4xx_nucleo.c ****     /* Enable and set Button EXTI Interrupt to the lowest priority */
 295:Drivers/BSP/STM32F4xx-Nucleo/stm32f4xx_nucleo.c ****     HAL_NVIC_SetPriority((IRQn_Type)(BUTTON_IRQn[Button]), 0x0F, 0x00);
 296:Drivers/BSP/STM32F4xx-Nucleo/stm32f4xx_nucleo.c ****     HAL_NVIC_EnableIRQ((IRQn_Type)(BUTTON_IRQn[Button]));
 297:Drivers/BSP/STM32F4xx-Nucleo/stm32f4xx_nucleo.c ****   }
 298:Drivers/BSP/STM32F4xx-Nucleo/stm32f4xx_nucleo.c **** }
 319              		.loc 1 298 0
 320 0026 07B0     		add	sp, sp, #28
 321              	.LCFI9:
 322              		.cfi_remember_state
 323              		.cfi_def_cfa_offset 12
 324              		@ sp needed
 325 0028 30BD     		pop	{r4, r5, pc}
 326              	.LVL19:
 327              	.L28:
 328              	.LCFI10:
 329              		.cfi_restore_state
 279:Drivers/BSP/STM32F4xx-Nucleo/stm32f4xx_nucleo.c ****     GPIO_InitStruct.Mode = GPIO_MODE_INPUT;
 330              		.loc 1 279 0
 331 002a 4FF40053 		mov	r3, #8192
 332 002e 0193     		str	r3, [sp, #4]
 280:Drivers/BSP/STM32F4xx-Nucleo/stm32f4xx_nucleo.c ****     GPIO_InitStruct.Pull = GPIO_PULLDOWN;
 333              		.loc 1 280 0
 334 0030 0023     		movs	r3, #0
 335 0032 0293     		str	r3, [sp, #8]
 281:Drivers/BSP/STM32F4xx-Nucleo/stm32f4xx_nucleo.c ****     GPIO_InitStruct.Speed = GPIO_SPEED_FAST;
 336              		.loc 1 281 0
 337 0034 0223     		movs	r3, #2
 338 0036 0393     		str	r3, [sp, #12]
 282:Drivers/BSP/STM32F4xx-Nucleo/stm32f4xx_nucleo.c ****     HAL_GPIO_Init(BUTTON_PORT[Button], &GPIO_InitStruct);
ARM GAS  D:\cygwin64\tmp\ccfxjHfK.s 			page 12


 339              		.loc 1 282 0
 340 0038 0493     		str	r3, [sp, #16]
 283:Drivers/BSP/STM32F4xx-Nucleo/stm32f4xx_nucleo.c ****   }
 341              		.loc 1 283 0
 342 003a 01A9     		add	r1, sp, #4
 343              	.LVL20:
 344 003c 0E4B     		ldr	r3, .L30+4
 345 003e 53F82000 		ldr	r0, [r3, r0, lsl #2]
 346              	.LVL21:
 347 0042 FFF7FEFF 		bl	HAL_GPIO_Init
 348              	.LVL22:
 349 0046 ECE7     		b	.L25
 350              	.L29:
 289:Drivers/BSP/STM32F4xx-Nucleo/stm32f4xx_nucleo.c ****     GPIO_InitStruct.Pull = GPIO_NOPULL;
 351              		.loc 1 289 0
 352 0048 4FF40053 		mov	r3, #8192
 353 004c 0193     		str	r3, [sp, #4]
 290:Drivers/BSP/STM32F4xx-Nucleo/stm32f4xx_nucleo.c ****     GPIO_InitStruct.Mode = GPIO_MODE_IT_FALLING; 
 354              		.loc 1 290 0
 355 004e 0024     		movs	r4, #0
 356 0050 0394     		str	r4, [sp, #12]
 291:Drivers/BSP/STM32F4xx-Nucleo/stm32f4xx_nucleo.c ****     HAL_GPIO_Init(BUTTON_PORT[Button], &GPIO_InitStruct);
 357              		.loc 1 291 0
 358 0052 0A4B     		ldr	r3, .L30+8
 359 0054 0293     		str	r3, [sp, #8]
 292:Drivers/BSP/STM32F4xx-Nucleo/stm32f4xx_nucleo.c ****     
 360              		.loc 1 292 0
 361 0056 01A9     		add	r1, sp, #4
 362 0058 074B     		ldr	r3, .L30+4
 363 005a 53F82500 		ldr	r0, [r3, r5, lsl #2]
 364 005e FFF7FEFF 		bl	HAL_GPIO_Init
 365              	.LVL23:
 295:Drivers/BSP/STM32F4xx-Nucleo/stm32f4xx_nucleo.c ****     HAL_NVIC_EnableIRQ((IRQn_Type)(BUTTON_IRQn[Button]));
 366              		.loc 1 295 0
 367 0062 2246     		mov	r2, r4
 368 0064 0F21     		movs	r1, #15
 369 0066 2820     		movs	r0, #40
 370 0068 FFF7FEFF 		bl	HAL_NVIC_SetPriority
 371              	.LVL24:
 296:Drivers/BSP/STM32F4xx-Nucleo/stm32f4xx_nucleo.c ****   }
 372              		.loc 1 296 0
 373 006c 2820     		movs	r0, #40
 374 006e FFF7FEFF 		bl	HAL_NVIC_EnableIRQ
 375              	.LVL25:
 376              		.loc 1 298 0
 377 0072 D8E7     		b	.L24
 378              	.L31:
 379              		.align	2
 380              	.L30:
 381 0074 00380240 		.word	1073887232
 382 0078 00000000 		.word	.LANCHOR1
 383 007c 00002110 		.word	270598144
 384              		.cfi_endproc
 385              	.LFE136:
 387              		.section	.text.BSP_PB_DeInit,"ax",%progbits
 388              		.align	1
 389              		.global	BSP_PB_DeInit
ARM GAS  D:\cygwin64\tmp\ccfxjHfK.s 			page 13


 390              		.syntax unified
 391              		.thumb
 392              		.thumb_func
 393              		.fpu fpv4-sp-d16
 395              	BSP_PB_DeInit:
 396              	.LFB137:
 299:Drivers/BSP/STM32F4xx-Nucleo/stm32f4xx_nucleo.c **** 
 300:Drivers/BSP/STM32F4xx-Nucleo/stm32f4xx_nucleo.c **** /**
 301:Drivers/BSP/STM32F4xx-Nucleo/stm32f4xx_nucleo.c ****   * @brief  Push Button DeInit.
 302:Drivers/BSP/STM32F4xx-Nucleo/stm32f4xx_nucleo.c ****   * @param  Button: Button to be configured
 303:Drivers/BSP/STM32F4xx-Nucleo/stm32f4xx_nucleo.c ****   *   This parameter should be: BUTTON_KEY
 304:Drivers/BSP/STM32F4xx-Nucleo/stm32f4xx_nucleo.c ****   * @note PB DeInit does not disable the GPIO clock
 305:Drivers/BSP/STM32F4xx-Nucleo/stm32f4xx_nucleo.c ****   */
 306:Drivers/BSP/STM32F4xx-Nucleo/stm32f4xx_nucleo.c **** void BSP_PB_DeInit(Button_TypeDef Button)
 307:Drivers/BSP/STM32F4xx-Nucleo/stm32f4xx_nucleo.c **** {
 397              		.loc 1 307 0
 398              		.cfi_startproc
 399              		@ args = 0, pretend = 0, frame = 0
 400              		@ frame_needed = 0, uses_anonymous_args = 0
 401              	.LVL26:
 402 0000 10B5     		push	{r4, lr}
 403              	.LCFI11:
 404              		.cfi_def_cfa_offset 8
 405              		.cfi_offset 4, -8
 406              		.cfi_offset 14, -4
 407 0002 0446     		mov	r4, r0
 308:Drivers/BSP/STM32F4xx-Nucleo/stm32f4xx_nucleo.c ****     GPIO_InitTypeDef gpio_init_structure;
 309:Drivers/BSP/STM32F4xx-Nucleo/stm32f4xx_nucleo.c **** 
 310:Drivers/BSP/STM32F4xx-Nucleo/stm32f4xx_nucleo.c ****     gpio_init_structure.Pin = BUTTON_PIN[Button];
 311:Drivers/BSP/STM32F4xx-Nucleo/stm32f4xx_nucleo.c ****     HAL_NVIC_DisableIRQ((IRQn_Type)(BUTTON_IRQn[Button]));
 408              		.loc 1 311 0
 409 0004 2820     		movs	r0, #40
 410              	.LVL27:
 411 0006 FFF7FEFF 		bl	HAL_NVIC_DisableIRQ
 412              	.LVL28:
 312:Drivers/BSP/STM32F4xx-Nucleo/stm32f4xx_nucleo.c ****     HAL_GPIO_DeInit(BUTTON_PORT[Button], gpio_init_structure.Pin);
 413              		.loc 1 312 0
 414 000a 4FF40051 		mov	r1, #8192
 415 000e 034B     		ldr	r3, .L34
 416 0010 53F82400 		ldr	r0, [r3, r4, lsl #2]
 417 0014 FFF7FEFF 		bl	HAL_GPIO_DeInit
 418              	.LVL29:
 419 0018 10BD     		pop	{r4, pc}
 420              	.L35:
 421 001a 00BF     		.align	2
 422              	.L34:
 423 001c 00000000 		.word	.LANCHOR1
 424              		.cfi_endproc
 425              	.LFE137:
 427              		.section	.text.BSP_PB_GetState,"ax",%progbits
 428              		.align	1
 429              		.global	BSP_PB_GetState
 430              		.syntax unified
 431              		.thumb
 432              		.thumb_func
 433              		.fpu fpv4-sp-d16
 435              	BSP_PB_GetState:
ARM GAS  D:\cygwin64\tmp\ccfxjHfK.s 			page 14


 436              	.LFB138:
 313:Drivers/BSP/STM32F4xx-Nucleo/stm32f4xx_nucleo.c **** }
 314:Drivers/BSP/STM32F4xx-Nucleo/stm32f4xx_nucleo.c **** 
 315:Drivers/BSP/STM32F4xx-Nucleo/stm32f4xx_nucleo.c **** /**
 316:Drivers/BSP/STM32F4xx-Nucleo/stm32f4xx_nucleo.c ****   * @brief  Returns the selected Button state.
 317:Drivers/BSP/STM32F4xx-Nucleo/stm32f4xx_nucleo.c ****   * @param  Button: Specifies the Button to be checked.
 318:Drivers/BSP/STM32F4xx-Nucleo/stm32f4xx_nucleo.c ****   *   This parameter should be: BUTTON_KEY  
 319:Drivers/BSP/STM32F4xx-Nucleo/stm32f4xx_nucleo.c ****   * @retval The Button GPIO pin value.
 320:Drivers/BSP/STM32F4xx-Nucleo/stm32f4xx_nucleo.c ****   */
 321:Drivers/BSP/STM32F4xx-Nucleo/stm32f4xx_nucleo.c **** uint32_t BSP_PB_GetState(Button_TypeDef Button)
 322:Drivers/BSP/STM32F4xx-Nucleo/stm32f4xx_nucleo.c **** {
 437              		.loc 1 322 0
 438              		.cfi_startproc
 439              		@ args = 0, pretend = 0, frame = 0
 440              		@ frame_needed = 0, uses_anonymous_args = 0
 441              	.LVL30:
 442 0000 08B5     		push	{r3, lr}
 443              	.LCFI12:
 444              		.cfi_def_cfa_offset 8
 445              		.cfi_offset 3, -8
 446              		.cfi_offset 14, -4
 323:Drivers/BSP/STM32F4xx-Nucleo/stm32f4xx_nucleo.c ****   return HAL_GPIO_ReadPin(BUTTON_PORT[Button], BUTTON_PIN[Button]);
 447              		.loc 1 323 0
 448 0002 4FF40051 		mov	r1, #8192
 449 0006 034B     		ldr	r3, .L38
 450 0008 53F82000 		ldr	r0, [r3, r0, lsl #2]
 451              	.LVL31:
 452 000c FFF7FEFF 		bl	HAL_GPIO_ReadPin
 453              	.LVL32:
 324:Drivers/BSP/STM32F4xx-Nucleo/stm32f4xx_nucleo.c **** }
 454              		.loc 1 324 0
 455 0010 08BD     		pop	{r3, pc}
 456              	.L39:
 457 0012 00BF     		.align	2
 458              	.L38:
 459 0014 00000000 		.word	.LANCHOR1
 460              		.cfi_endproc
 461              	.LFE138:
 463              		.global	BUTTON_IRQn
 464              		.global	BUTTON_PIN
 465              		.global	BUTTON_PORT
 466              		.global	GPIO_PIN
 467              		.global	GPIO_PORT
 468              		.section	.data.BUTTON_PORT,"aw",%progbits
 469              		.align	2
 470              		.set	.LANCHOR1,. + 0
 473              	BUTTON_PORT:
 474 0000 00080240 		.word	1073874944
 475              		.section	.data.GPIO_PORT,"aw",%progbits
 476              		.align	2
 477              		.set	.LANCHOR0,. + 0
 480              	GPIO_PORT:
 481 0000 00000240 		.word	1073872896
 482              		.section	.rodata.BUTTON_IRQn,"a",%progbits
 483              		.align	2
 486              	BUTTON_IRQn:
 487 0000 28       		.byte	40
ARM GAS  D:\cygwin64\tmp\ccfxjHfK.s 			page 15


 488              		.section	.rodata.BUTTON_PIN,"a",%progbits
 489              		.align	2
 492              	BUTTON_PIN:
 493 0000 0020     		.short	8192
 494              		.section	.rodata.GPIO_PIN,"a",%progbits
 495              		.align	2
 498              	GPIO_PIN:
 499 0000 2000     		.short	32
 500              		.text
 501              	.Letext0:
 502              		.file 2 "Drivers/CMSIS/Device/ST/STM32F4xx/Include/stm32f401xe.h"
 503              		.file 3 "c:\\program files (x86)\\gnu tools arm embedded\\6 2017-q2-update\\arm-none-eabi\\include
 504              		.file 4 "c:\\program files (x86)\\gnu tools arm embedded\\6 2017-q2-update\\arm-none-eabi\\include
 505              		.file 5 "Drivers/CMSIS/Include/core_cm4.h"
 506              		.file 6 "Drivers/CMSIS/Device/ST/STM32F4xx/Include/system_stm32f4xx.h"
 507              		.file 7 "Drivers/STM32F4xx_HAL_Driver/Inc/stm32f4xx_hal_gpio.h"
 508              		.file 8 "Drivers/STM32F4xx_HAL_Driver/Inc/stm32f4xx_hal.h"
 509              		.file 9 "Drivers/BSP/STM32F4xx-Nucleo/stm32f4xx_nucleo.h"
 510              		.file 10 "Drivers/STM32F4xx_HAL_Driver/Inc/stm32f4xx_hal_cortex.h"
ARM GAS  D:\cygwin64\tmp\ccfxjHfK.s 			page 16


DEFINED SYMBOLS
                            *ABS*:00000000 stm32f4xx_nucleo.c
D:\cygwin64\tmp\ccfxjHfK.s:18     .text.BSP_GetVersion:00000000 $t
D:\cygwin64\tmp\ccfxjHfK.s:25     .text.BSP_GetVersion:00000000 BSP_GetVersion
D:\cygwin64\tmp\ccfxjHfK.s:39     .text.BSP_GetVersion:00000004 $d
D:\cygwin64\tmp\ccfxjHfK.s:44     .text.BSP_LED_Init:00000000 $t
D:\cygwin64\tmp\ccfxjHfK.s:51     .text.BSP_LED_Init:00000000 BSP_LED_Init
D:\cygwin64\tmp\ccfxjHfK.s:116    .text.BSP_LED_Init:00000048 $d
D:\cygwin64\tmp\ccfxjHfK.s:122    .text.BSP_LED_DeInit:00000000 $t
D:\cygwin64\tmp\ccfxjHfK.s:129    .text.BSP_LED_DeInit:00000000 BSP_LED_DeInit
D:\cygwin64\tmp\ccfxjHfK.s:161    .text.BSP_LED_DeInit:00000020 $d
D:\cygwin64\tmp\ccfxjHfK.s:166    .text.BSP_LED_On:00000000 $t
D:\cygwin64\tmp\ccfxjHfK.s:173    .text.BSP_LED_On:00000000 BSP_LED_On
D:\cygwin64\tmp\ccfxjHfK.s:197    .text.BSP_LED_On:00000014 $d
D:\cygwin64\tmp\ccfxjHfK.s:202    .text.BSP_LED_Off:00000000 $t
D:\cygwin64\tmp\ccfxjHfK.s:209    .text.BSP_LED_Off:00000000 BSP_LED_Off
D:\cygwin64\tmp\ccfxjHfK.s:233    .text.BSP_LED_Off:00000014 $d
D:\cygwin64\tmp\ccfxjHfK.s:238    .text.BSP_LED_Toggle:00000000 $t
D:\cygwin64\tmp\ccfxjHfK.s:245    .text.BSP_LED_Toggle:00000000 BSP_LED_Toggle
D:\cygwin64\tmp\ccfxjHfK.s:268    .text.BSP_LED_Toggle:00000010 $d
D:\cygwin64\tmp\ccfxjHfK.s:273    .text.BSP_PB_Init:00000000 $t
D:\cygwin64\tmp\ccfxjHfK.s:280    .text.BSP_PB_Init:00000000 BSP_PB_Init
D:\cygwin64\tmp\ccfxjHfK.s:381    .text.BSP_PB_Init:00000074 $d
D:\cygwin64\tmp\ccfxjHfK.s:388    .text.BSP_PB_DeInit:00000000 $t
D:\cygwin64\tmp\ccfxjHfK.s:395    .text.BSP_PB_DeInit:00000000 BSP_PB_DeInit
D:\cygwin64\tmp\ccfxjHfK.s:423    .text.BSP_PB_DeInit:0000001c $d
D:\cygwin64\tmp\ccfxjHfK.s:428    .text.BSP_PB_GetState:00000000 $t
D:\cygwin64\tmp\ccfxjHfK.s:435    .text.BSP_PB_GetState:00000000 BSP_PB_GetState
D:\cygwin64\tmp\ccfxjHfK.s:459    .text.BSP_PB_GetState:00000014 $d
D:\cygwin64\tmp\ccfxjHfK.s:486    .rodata.BUTTON_IRQn:00000000 BUTTON_IRQn
D:\cygwin64\tmp\ccfxjHfK.s:492    .rodata.BUTTON_PIN:00000000 BUTTON_PIN
D:\cygwin64\tmp\ccfxjHfK.s:473    .data.BUTTON_PORT:00000000 BUTTON_PORT
D:\cygwin64\tmp\ccfxjHfK.s:498    .rodata.GPIO_PIN:00000000 GPIO_PIN
D:\cygwin64\tmp\ccfxjHfK.s:480    .data.GPIO_PORT:00000000 GPIO_PORT
D:\cygwin64\tmp\ccfxjHfK.s:469    .data.BUTTON_PORT:00000000 $d
D:\cygwin64\tmp\ccfxjHfK.s:476    .data.GPIO_PORT:00000000 $d
D:\cygwin64\tmp\ccfxjHfK.s:483    .rodata.BUTTON_IRQn:00000000 $d
D:\cygwin64\tmp\ccfxjHfK.s:489    .rodata.BUTTON_PIN:00000000 $d
D:\cygwin64\tmp\ccfxjHfK.s:495    .rodata.GPIO_PIN:00000000 $d
                     .debug_frame:00000010 $d

UNDEFINED SYMBOLS
HAL_GPIO_Init
HAL_GPIO_WritePin
HAL_GPIO_DeInit
HAL_GPIO_TogglePin
HAL_NVIC_SetPriority
HAL_NVIC_EnableIRQ
HAL_NVIC_DisableIRQ
HAL_GPIO_ReadPin
