ARM GAS  D:\cygwin64\tmp\cckuROSo.s 			page 1


   1              		.cpu cortex-m4
   2              		.eabi_attribute 27, 1
   3              		.eabi_attribute 28, 1
   4              		.eabi_attribute 20, 1
   5              		.eabi_attribute 21, 1
   6              		.eabi_attribute 23, 3
   7              		.eabi_attribute 24, 1
   8              		.eabi_attribute 25, 1
   9              		.eabi_attribute 26, 1
  10              		.eabi_attribute 30, 1
  11              		.eabi_attribute 34, 1
  12              		.eabi_attribute 18, 4
  13              		.file	"wifi_module.c"
  14              		.text
  15              	.Ltext0:
  16              		.cfi_sections	.debug_frame
  17              		.section	.text.Set_WiFi_Control_Variables,"ax",%progbits
  18              		.align	1
  19              		.global	Set_WiFi_Control_Variables
  20              		.syntax unified
  21              		.thumb
  22              		.thumb_func
  23              		.fpu fpv4-sp-d16
  25              	Set_WiFi_Control_Variables:
  26              	.LFB276:
  27              		.file 1 "Middlewares/ST/STM32_SPWF0xSy/wifi_module.c"
   1:Middlewares/ST/STM32_SPWF0xSy/wifi_module.c **** /**
   2:Middlewares/ST/STM32_SPWF0xSy/wifi_module.c ****  ******************************************************************************
   3:Middlewares/ST/STM32_SPWF0xSy/wifi_module.c ****  * @file    wifi_module.c
   4:Middlewares/ST/STM32_SPWF0xSy/wifi_module.c ****  * @author  Central LAB
   5:Middlewares/ST/STM32_SPWF0xSy/wifi_module.c ****  * @version V2.1.0
   6:Middlewares/ST/STM32_SPWF0xSy/wifi_module.c ****  * @date    17-May-2016
   7:Middlewares/ST/STM32_SPWF0xSy/wifi_module.c ****  * @brief   Enable Wi-Fi functionality using AT cmd set
   8:Middlewares/ST/STM32_SPWF0xSy/wifi_module.c ****  ******************************************************************************
   9:Middlewares/ST/STM32_SPWF0xSy/wifi_module.c ****  * @attention
  10:Middlewares/ST/STM32_SPWF0xSy/wifi_module.c ****  *
  11:Middlewares/ST/STM32_SPWF0xSy/wifi_module.c ****  * <h2><center>&copy; COPYRIGHT(c) 2015 STMicroelectronics</center></h2>
  12:Middlewares/ST/STM32_SPWF0xSy/wifi_module.c ****  *
  13:Middlewares/ST/STM32_SPWF0xSy/wifi_module.c ****  * Redistribution and use in source and binary forms, with or without modification,
  14:Middlewares/ST/STM32_SPWF0xSy/wifi_module.c ****  * are permitted provided that the following conditions are met:
  15:Middlewares/ST/STM32_SPWF0xSy/wifi_module.c ****  *   1. Redistributions of source code must retain the above copyright notice,
  16:Middlewares/ST/STM32_SPWF0xSy/wifi_module.c ****  *      this list of conditions and the following disclaimer.
  17:Middlewares/ST/STM32_SPWF0xSy/wifi_module.c ****  *   2. Redistributions in binary form must reproduce the above copyright notice,
  18:Middlewares/ST/STM32_SPWF0xSy/wifi_module.c ****  *      this list of conditions and the following disclaimer in the documentation
  19:Middlewares/ST/STM32_SPWF0xSy/wifi_module.c ****  *      and/or other materials provided with the distribution.
  20:Middlewares/ST/STM32_SPWF0xSy/wifi_module.c ****  *   3. Neither the name of STMicroelectronics nor the names of its contributors
  21:Middlewares/ST/STM32_SPWF0xSy/wifi_module.c ****  *      may be used to endorse or promote products derived from this software
  22:Middlewares/ST/STM32_SPWF0xSy/wifi_module.c ****  *      without specific prior written permission.
  23:Middlewares/ST/STM32_SPWF0xSy/wifi_module.c ****  *
  24:Middlewares/ST/STM32_SPWF0xSy/wifi_module.c ****  * THIS SOFTWARE IS PROVIDED BY THE COPYRIGHT HOLDERS AND CONTRIBUTORS "AS IS"
  25:Middlewares/ST/STM32_SPWF0xSy/wifi_module.c ****  * AND ANY EXPRESS OR IMPLIED WARRANTIES, INCLUDING, BUT NOT LIMITED TO, THE
  26:Middlewares/ST/STM32_SPWF0xSy/wifi_module.c ****  * IMPLIED WARRANTIES OF MERCHANTABILITY AND FITNESS FOR A PARTICULAR PURPOSE ARE
  27:Middlewares/ST/STM32_SPWF0xSy/wifi_module.c ****  * DISCLAIMED. IN NO EVENT SHALL THE COPYRIGHT HOLDER OR CONTRIBUTORS BE LIABLE
  28:Middlewares/ST/STM32_SPWF0xSy/wifi_module.c ****  * FOR ANY DIRECT, INDIRECT, INCIDENTAL, SPECIAL, EXEMPLARY, OR CONSEQUENTIAL
  29:Middlewares/ST/STM32_SPWF0xSy/wifi_module.c ****  * DAMAGES (INCLUDING, BUT NOT LIMITED TO, PROCUREMENT OF SUBSTITUTE GOODS OR
  30:Middlewares/ST/STM32_SPWF0xSy/wifi_module.c ****  * SERVICES; LOSS OF USE, DATA, OR PROFITS; OR BUSINESS INTERRUPTION) HOWEVER
  31:Middlewares/ST/STM32_SPWF0xSy/wifi_module.c ****  * CAUSED AND ON ANY THEORY OF LIABILITY, WHETHER IN CONTRACT, STRICT LIABILITY,
ARM GAS  D:\cygwin64\tmp\cckuROSo.s 			page 2


  32:Middlewares/ST/STM32_SPWF0xSy/wifi_module.c ****  * OR TORT (INCLUDING NEGLIGENCE OR OTHERWISE) ARISING IN ANY WAY OUT OF THE USE
  33:Middlewares/ST/STM32_SPWF0xSy/wifi_module.c ****  * OF THIS SOFTWARE, EVEN IF ADVISED OF THE POSSIBILITY OF SUCH DAMAGE.
  34:Middlewares/ST/STM32_SPWF0xSy/wifi_module.c ****  *
  35:Middlewares/ST/STM32_SPWF0xSy/wifi_module.c ****  ******************************************************************************
  36:Middlewares/ST/STM32_SPWF0xSy/wifi_module.c ****  */
  37:Middlewares/ST/STM32_SPWF0xSy/wifi_module.c **** /* Includes ------------------------------------------------------------------*/
  38:Middlewares/ST/STM32_SPWF0xSy/wifi_module.c **** #include "wifi_module.h"
  39:Middlewares/ST/STM32_SPWF0xSy/wifi_module.c **** #include "wifi_globals.h"
  40:Middlewares/ST/STM32_SPWF0xSy/wifi_module.c **** 
  41:Middlewares/ST/STM32_SPWF0xSy/wifi_module.c **** /** @addtogroup MIDDLEWARES
  42:Middlewares/ST/STM32_SPWF0xSy/wifi_module.c **** * @{
  43:Middlewares/ST/STM32_SPWF0xSy/wifi_module.c **** */ 
  44:Middlewares/ST/STM32_SPWF0xSy/wifi_module.c **** 
  45:Middlewares/ST/STM32_SPWF0xSy/wifi_module.c **** /** @defgroup  NUCLEO_WIFI_MODULE
  46:Middlewares/ST/STM32_SPWF0xSy/wifi_module.c ****   * @brief Wi-Fi driver modules
  47:Middlewares/ST/STM32_SPWF0xSy/wifi_module.c ****   * @{
  48:Middlewares/ST/STM32_SPWF0xSy/wifi_module.c ****   */
  49:Middlewares/ST/STM32_SPWF0xSy/wifi_module.c **** 
  50:Middlewares/ST/STM32_SPWF0xSy/wifi_module.c **** /** @defgroup NUCLEO_WIFI_MODULE_Private_Defines
  51:Middlewares/ST/STM32_SPWF0xSy/wifi_module.c ****   * @{
  52:Middlewares/ST/STM32_SPWF0xSy/wifi_module.c ****   */
  53:Middlewares/ST/STM32_SPWF0xSy/wifi_module.c **** 
  54:Middlewares/ST/STM32_SPWF0xSy/wifi_module.c **** /**
  55:Middlewares/ST/STM32_SPWF0xSy/wifi_module.c ****   * @}
  56:Middlewares/ST/STM32_SPWF0xSy/wifi_module.c ****   */
  57:Middlewares/ST/STM32_SPWF0xSy/wifi_module.c **** 
  58:Middlewares/ST/STM32_SPWF0xSy/wifi_module.c **** /** @addtogroup NUCLEO_WIFI_MODULE_Private_Variables
  59:Middlewares/ST/STM32_SPWF0xSy/wifi_module.c ****   * @{
  60:Middlewares/ST/STM32_SPWF0xSy/wifi_module.c ****   */
  61:Middlewares/ST/STM32_SPWF0xSy/wifi_module.c **** 
  62:Middlewares/ST/STM32_SPWF0xSy/wifi_module.c **** wifi_instances_t wifi_instances;
  63:Middlewares/ST/STM32_SPWF0xSy/wifi_module.c **** /*
  64:Middlewares/ST/STM32_SPWF0xSy/wifi_module.c **** #ifdef SPWF04
  65:Middlewares/ST/STM32_SPWF0xSy/wifi_module.c **** extern wifi_bool wind_55_in_Q;
  66:Middlewares/ST/STM32_SPWF0xSy/wifi_module.c **** #endif
  67:Middlewares/ST/STM32_SPWF0xSy/wifi_module.c **** */
  68:Middlewares/ST/STM32_SPWF0xSy/wifi_module.c **** /***********All Buffers**************/
  69:Middlewares/ST/STM32_SPWF0xSy/wifi_module.c **** 
  70:Middlewares/ST/STM32_SPWF0xSy/wifi_module.c **** #if defined (__CC_ARM)
  71:Middlewares/ST/STM32_SPWF0xSy/wifi_module.c **** size_t strnlen (const char* s, size_t maxlen);
  72:Middlewares/ST/STM32_SPWF0xSy/wifi_module.c **** 
  73:Middlewares/ST/STM32_SPWF0xSy/wifi_module.c **** size_t strnlen (const char* s, size_t maxlen)
  74:Middlewares/ST/STM32_SPWF0xSy/wifi_module.c ****   {
  75:Middlewares/ST/STM32_SPWF0xSy/wifi_module.c ****     size_t len = 0;
  76:Middlewares/ST/STM32_SPWF0xSy/wifi_module.c ****     while ((len <= maxlen) && (*s))
  77:Middlewares/ST/STM32_SPWF0xSy/wifi_module.c ****       {
  78:Middlewares/ST/STM32_SPWF0xSy/wifi_module.c ****           s++;
  79:Middlewares/ST/STM32_SPWF0xSy/wifi_module.c ****           len++;
  80:Middlewares/ST/STM32_SPWF0xSy/wifi_module.c ****       }
  81:Middlewares/ST/STM32_SPWF0xSy/wifi_module.c ****     return len;
  82:Middlewares/ST/STM32_SPWF0xSy/wifi_module.c ****   }
  83:Middlewares/ST/STM32_SPWF0xSy/wifi_module.c **** #endif
  84:Middlewares/ST/STM32_SPWF0xSy/wifi_module.c **** 
  85:Middlewares/ST/STM32_SPWF0xSy/wifi_module.c **** #ifdef WIFI_USE_VCOM
  86:Middlewares/ST/STM32_SPWF0xSy/wifi_module.c **** 
  87:Middlewares/ST/STM32_SPWF0xSy/wifi_module.c **** uint8_t console_send_char[1];
  88:Middlewares/ST/STM32_SPWF0xSy/wifi_module.c **** DMA_HandleTypeDef DMA_UART_RX;
ARM GAS  D:\cygwin64\tmp\cckuROSo.s 			page 3


  89:Middlewares/ST/STM32_SPWF0xSy/wifi_module.c **** DMA_HandleTypeDef DMA_WIFI_UART;
  90:Middlewares/ST/STM32_SPWF0xSy/wifi_module.c **** 
  91:Middlewares/ST/STM32_SPWF0xSy/wifi_module.c **** void UART_DMA_Init(void)
  92:Middlewares/ST/STM32_SPWF0xSy/wifi_module.c **** {  
  93:Middlewares/ST/STM32_SPWF0xSy/wifi_module.c ****   
  94:Middlewares/ST/STM32_SPWF0xSy/wifi_module.c ****   /*## -1- Enable DMA clock #################################################*/
  95:Middlewares/ST/STM32_SPWF0xSy/wifi_module.c ****   CONSOLE_UART_DMAx_CLK_ENABLE();
  96:Middlewares/ST/STM32_SPWF0xSy/wifi_module.c **** #ifdef USE_STM32F4XX_NUCLEO
  97:Middlewares/ST/STM32_SPWF0xSy/wifi_module.c ****   /*##-2- Select the DMA functional Parameters ###############################*/
  98:Middlewares/ST/STM32_SPWF0xSy/wifi_module.c ****   DMA_UART_RX.Init.Channel = WIFI_CONSOLE_DMA_CHANNEL;
  99:Middlewares/ST/STM32_SPWF0xSy/wifi_module.c ****   DMA_UART_RX.Init.Direction = DMA_PERIPH_TO_MEMORY;          /* M2M transfer mode                *
 100:Middlewares/ST/STM32_SPWF0xSy/wifi_module.c ****   DMA_UART_RX.Init.PeriphInc = DMA_PINC_DISABLE;               /* Peripheral increment mode Enable 
 101:Middlewares/ST/STM32_SPWF0xSy/wifi_module.c ****   DMA_UART_RX.Init.MemInc = DMA_MINC_DISABLE;                  /* Memory increment mode Enable     
 102:Middlewares/ST/STM32_SPWF0xSy/wifi_module.c ****   DMA_UART_RX.Init.PeriphDataAlignment = DMA_PDATAALIGN_BYTE; /* Peripheral data alignment : Word *
 103:Middlewares/ST/STM32_SPWF0xSy/wifi_module.c ****   DMA_UART_RX.Init.MemDataAlignment = DMA_MDATAALIGN_BYTE;    /* memory data alignment : Word     *
 104:Middlewares/ST/STM32_SPWF0xSy/wifi_module.c ****   DMA_UART_RX.Init.Mode = DMA_NORMAL;                         // Normal DMA mode DMA_NORMAL, DMA_CI
 105:Middlewares/ST/STM32_SPWF0xSy/wifi_module.c ****   DMA_UART_RX.Init.Priority = DMA_PRIORITY_MEDIUM;              /* priority level : DMA_PRIORITY_ME
 106:Middlewares/ST/STM32_SPWF0xSy/wifi_module.c ****   DMA_UART_RX.Init.FIFOMode = DMA_FIFOMODE_DISABLE;
 107:Middlewares/ST/STM32_SPWF0xSy/wifi_module.c ****   DMA_UART_RX.Init.FIFOThreshold = DMA_FIFO_THRESHOLD_FULL;
 108:Middlewares/ST/STM32_SPWF0xSy/wifi_module.c ****   DMA_UART_RX.Init.MemBurst = DMA_MBURST_INC4;
 109:Middlewares/ST/STM32_SPWF0xSy/wifi_module.c ****   DMA_UART_RX.Init.PeriphBurst = DMA_PBURST_INC4;
 110:Middlewares/ST/STM32_SPWF0xSy/wifi_module.c ****   
 111:Middlewares/ST/STM32_SPWF0xSy/wifi_module.c ****   /*##-3- Select the DMA instance to be used for the transfer : #*/
 112:Middlewares/ST/STM32_SPWF0xSy/wifi_module.c ****   DMA_UART_RX.Instance = WIFI_CONSOLE_DMA_STREAM;
 113:Middlewares/ST/STM32_SPWF0xSy/wifi_module.c **** #endif
 114:Middlewares/ST/STM32_SPWF0xSy/wifi_module.c **** #ifdef USE_STM32L4XX_NUCLEO
 115:Middlewares/ST/STM32_SPWF0xSy/wifi_module.c ****   DMA_UART_RX.Init.Request             = WIFI_CONSOLE_DMA_REQUEST;
 116:Middlewares/ST/STM32_SPWF0xSy/wifi_module.c ****     
 117:Middlewares/ST/STM32_SPWF0xSy/wifi_module.c ****   DMA_UART_RX.Init.Direction           = DMA_PERIPH_TO_MEMORY;
 118:Middlewares/ST/STM32_SPWF0xSy/wifi_module.c ****   DMA_UART_RX.Init.PeriphInc           = DMA_PINC_DISABLE;
 119:Middlewares/ST/STM32_SPWF0xSy/wifi_module.c ****   DMA_UART_RX.Init.MemInc              = DMA_MINC_DISABLE;
 120:Middlewares/ST/STM32_SPWF0xSy/wifi_module.c ****   DMA_UART_RX.Init.PeriphDataAlignment = DMA_PDATAALIGN_BYTE;
 121:Middlewares/ST/STM32_SPWF0xSy/wifi_module.c ****   DMA_UART_RX.Init.MemDataAlignment    = DMA_MDATAALIGN_BYTE;
 122:Middlewares/ST/STM32_SPWF0xSy/wifi_module.c ****   DMA_UART_RX.Init.Mode                = DMA_CIRCULAR;//DMA_NORMAL;
 123:Middlewares/ST/STM32_SPWF0xSy/wifi_module.c ****   DMA_UART_RX.Init.Priority            = DMA_PRIORITY_MEDIUM;
 124:Middlewares/ST/STM32_SPWF0xSy/wifi_module.c ****   
 125:Middlewares/ST/STM32_SPWF0xSy/wifi_module.c ****   /*##-3- Select the DMA instance to be used for the transfer */
 126:Middlewares/ST/STM32_SPWF0xSy/wifi_module.c ****   DMA_UART_RX.Instance = WIFI_CONSOLE_DMA_CHANNEL;
 127:Middlewares/ST/STM32_SPWF0xSy/wifi_module.c **** #endif  
 128:Middlewares/ST/STM32_SPWF0xSy/wifi_module.c **** #ifdef USE_STM32L0XX_NUCLEO
 129:Middlewares/ST/STM32_SPWF0xSy/wifi_module.c ****   DMA_UART_RX.Init.Request             = WIFI_CONSOLE_DMA_REQUEST;
 130:Middlewares/ST/STM32_SPWF0xSy/wifi_module.c ****     
 131:Middlewares/ST/STM32_SPWF0xSy/wifi_module.c ****   DMA_UART_RX.Init.Direction           = DMA_PERIPH_TO_MEMORY;
 132:Middlewares/ST/STM32_SPWF0xSy/wifi_module.c ****   DMA_UART_RX.Init.PeriphInc           = DMA_PINC_DISABLE;
 133:Middlewares/ST/STM32_SPWF0xSy/wifi_module.c ****   DMA_UART_RX.Init.MemInc              = DMA_MINC_DISABLE;
 134:Middlewares/ST/STM32_SPWF0xSy/wifi_module.c ****   DMA_UART_RX.Init.PeriphDataAlignment = DMA_PDATAALIGN_BYTE;
 135:Middlewares/ST/STM32_SPWF0xSy/wifi_module.c ****   DMA_UART_RX.Init.MemDataAlignment    = DMA_MDATAALIGN_BYTE;
 136:Middlewares/ST/STM32_SPWF0xSy/wifi_module.c ****   DMA_UART_RX.Init.Mode                = DMA_CIRCULAR;//DMA_NORMAL;
 137:Middlewares/ST/STM32_SPWF0xSy/wifi_module.c ****   DMA_UART_RX.Init.Priority            = DMA_PRIORITY_MEDIUM;
 138:Middlewares/ST/STM32_SPWF0xSy/wifi_module.c ****   
 139:Middlewares/ST/STM32_SPWF0xSy/wifi_module.c ****   /*##-3- Select the DMA instance to be used for the transfer */
 140:Middlewares/ST/STM32_SPWF0xSy/wifi_module.c ****   DMA_UART_RX.Instance = WIFI_CONSOLE_DMA_CHANNEL;
 141:Middlewares/ST/STM32_SPWF0xSy/wifi_module.c **** #endif
 142:Middlewares/ST/STM32_SPWF0xSy/wifi_module.c **** #ifdef USE_STM32F1xx_NUCLEO  
 143:Middlewares/ST/STM32_SPWF0xSy/wifi_module.c ****   //DMA_UART_RX.Init.             = WIFI_CONSOLE_DMA_REQUEST;
 144:Middlewares/ST/STM32_SPWF0xSy/wifi_module.c ****     
 145:Middlewares/ST/STM32_SPWF0xSy/wifi_module.c ****   DMA_UART_RX.Init.Direction           = DMA_PERIPH_TO_MEMORY;
ARM GAS  D:\cygwin64\tmp\cckuROSo.s 			page 4


 146:Middlewares/ST/STM32_SPWF0xSy/wifi_module.c ****   DMA_UART_RX.Init.PeriphInc           = DMA_PINC_DISABLE;
 147:Middlewares/ST/STM32_SPWF0xSy/wifi_module.c ****   DMA_UART_RX.Init.MemInc              = DMA_MINC_DISABLE;
 148:Middlewares/ST/STM32_SPWF0xSy/wifi_module.c ****   DMA_UART_RX.Init.PeriphDataAlignment = DMA_PDATAALIGN_BYTE;
 149:Middlewares/ST/STM32_SPWF0xSy/wifi_module.c ****   DMA_UART_RX.Init.MemDataAlignment    = DMA_MDATAALIGN_BYTE;
 150:Middlewares/ST/STM32_SPWF0xSy/wifi_module.c ****   DMA_UART_RX.Init.Mode                = DMA_CIRCULAR;//DMA_NORMAL;
 151:Middlewares/ST/STM32_SPWF0xSy/wifi_module.c ****   DMA_UART_RX.Init.Priority            = DMA_PRIORITY_MEDIUM;
 152:Middlewares/ST/STM32_SPWF0xSy/wifi_module.c ****   
 153:Middlewares/ST/STM32_SPWF0xSy/wifi_module.c ****   /*##-3- Select the DMA instance to be used for the transfer */
 154:Middlewares/ST/STM32_SPWF0xSy/wifi_module.c ****   DMA_UART_RX.Instance = WIFI_CONSOLE_DMA_CHANNEL;
 155:Middlewares/ST/STM32_SPWF0xSy/wifi_module.c **** #endif
 156:Middlewares/ST/STM32_SPWF0xSy/wifi_module.c ****   /*##-4- Initialize the DMA stream ##########################################*/
 157:Middlewares/ST/STM32_SPWF0xSy/wifi_module.c ****   if (HAL_DMA_Init(&DMA_UART_RX) != HAL_OK)
 158:Middlewares/ST/STM32_SPWF0xSy/wifi_module.c ****   {
 159:Middlewares/ST/STM32_SPWF0xSy/wifi_module.c ****     /* Initialization Error */
 160:Middlewares/ST/STM32_SPWF0xSy/wifi_module.c ****     Error_Handler();
 161:Middlewares/ST/STM32_SPWF0xSy/wifi_module.c ****   }
 162:Middlewares/ST/STM32_SPWF0xSy/wifi_module.c **** 
 163:Middlewares/ST/STM32_SPWF0xSy/wifi_module.c ****   /*##-5- Configure NVIC for DMA transfer complete/error interrupts ##########*/
 164:Middlewares/ST/STM32_SPWF0xSy/wifi_module.c ****   /* Set Interrupt Group Priority */
 165:Middlewares/ST/STM32_SPWF0xSy/wifi_module.c ****   HAL_NVIC_SetPriority(WIFI_CONSOLE_DMA_IRQn, 0, 0);
 166:Middlewares/ST/STM32_SPWF0xSy/wifi_module.c **** 
 167:Middlewares/ST/STM32_SPWF0xSy/wifi_module.c ****   /* Enable the DMA Channel global Interrupt */
 168:Middlewares/ST/STM32_SPWF0xSy/wifi_module.c ****   HAL_NVIC_EnableIRQ(WIFI_CONSOLE_DMA_IRQn);
 169:Middlewares/ST/STM32_SPWF0xSy/wifi_module.c ****   
 170:Middlewares/ST/STM32_SPWF0xSy/wifi_module.c **** #if defined (USE_STM32F4XX_NUCLEO) || defined (USE_STM32F1xx_NUCLEO)
 171:Middlewares/ST/STM32_SPWF0xSy/wifi_module.c ****   uint32_t      DmaSrcAddr  = (uint32_t) USART2_BASE + 0x04U; //&UartMsgHandle.Instance->DR; //cons
 172:Middlewares/ST/STM32_SPWF0xSy/wifi_module.c **** #endif
 173:Middlewares/ST/STM32_SPWF0xSy/wifi_module.c **** #if defined (USE_STM32L0XX_NUCLEO) || defined (USE_STM32L4XX_NUCLEO)
 174:Middlewares/ST/STM32_SPWF0xSy/wifi_module.c ****   uint32_t      DmaSrcAddr  = (uint32_t) USART2_BASE + 0x24U;
 175:Middlewares/ST/STM32_SPWF0xSy/wifi_module.c **** #endif
 176:Middlewares/ST/STM32_SPWF0xSy/wifi_module.c **** 
 177:Middlewares/ST/STM32_SPWF0xSy/wifi_module.c ****   uint32_t      DmaDestAddr = (uint32_t) console_send_char;
 178:Middlewares/ST/STM32_SPWF0xSy/wifi_module.c **** 
 179:Middlewares/ST/STM32_SPWF0xSy/wifi_module.c **** #ifndef USE_STM32F1xx_NUCLEO  
 180:Middlewares/ST/STM32_SPWF0xSy/wifi_module.c ****   LL_DMA_ConfigAddresses(WIFI_CONSOLE_DMA, 
 181:Middlewares/ST/STM32_SPWF0xSy/wifi_module.c ****                          WIFI_CONSOLE_LL_DMA, 
 182:Middlewares/ST/STM32_SPWF0xSy/wifi_module.c ****                          DmaSrcAddr,
 183:Middlewares/ST/STM32_SPWF0xSy/wifi_module.c ****                          DmaDestAddr,
 184:Middlewares/ST/STM32_SPWF0xSy/wifi_module.c ****                          LL_DMA_DIRECTION_PERIPH_TO_MEMORY
 185:Middlewares/ST/STM32_SPWF0xSy/wifi_module.c ****                         );
 186:Middlewares/ST/STM32_SPWF0xSy/wifi_module.c **** #else
 187:Middlewares/ST/STM32_SPWF0xSy/wifi_module.c ****   DMA_ConfigAddress(&DMA_UART_RX, DmaSrcAddr, DmaDestAddr, 1);
 188:Middlewares/ST/STM32_SPWF0xSy/wifi_module.c ****   __HAL_DMA_ENABLE_IT(&DMA_UART_RX, DMA_IT_TC);
 189:Middlewares/ST/STM32_SPWF0xSy/wifi_module.c ****   __HAL_DMA_ENABLE(&DMA_UART_RX);
 190:Middlewares/ST/STM32_SPWF0xSy/wifi_module.c **** #endif
 191:Middlewares/ST/STM32_SPWF0xSy/wifi_module.c **** 
 192:Middlewares/ST/STM32_SPWF0xSy/wifi_module.c **** #ifndef USE_STM32F1xx_NUCLEO   
 193:Middlewares/ST/STM32_SPWF0xSy/wifi_module.c ****   LL_DMA_SetDataLength(WIFI_CONSOLE_DMA, WIFI_CONSOLE_LL_DMA, 1);
 194:Middlewares/ST/STM32_SPWF0xSy/wifi_module.c ****   LL_DMA_EnableIT_TC(WIFI_CONSOLE_DMA, WIFI_CONSOLE_LL_DMA);
 195:Middlewares/ST/STM32_SPWF0xSy/wifi_module.c **** #ifdef USE_STM32F4XX_NUCLEO    
 196:Middlewares/ST/STM32_SPWF0xSy/wifi_module.c ****   LL_DMA_EnableStream(WIFI_CONSOLE_DMA, WIFI_CONSOLE_LL_DMA);
 197:Middlewares/ST/STM32_SPWF0xSy/wifi_module.c **** #endif
 198:Middlewares/ST/STM32_SPWF0xSy/wifi_module.c **** #ifdef USE_STM32L4XX_NUCLEO
 199:Middlewares/ST/STM32_SPWF0xSy/wifi_module.c ****   LL_DMA_EnableChannel(WIFI_CONSOLE_DMA, WIFI_CONSOLE_LL_DMA);
 200:Middlewares/ST/STM32_SPWF0xSy/wifi_module.c **** #endif
 201:Middlewares/ST/STM32_SPWF0xSy/wifi_module.c **** #ifdef USE_STM32L0XX_NUCLEO
 202:Middlewares/ST/STM32_SPWF0xSy/wifi_module.c ****   LL_DMA_EnableChannel(WIFI_CONSOLE_DMA, WIFI_CONSOLE_LL_DMA);
ARM GAS  D:\cygwin64\tmp\cckuROSo.s 			page 5


 203:Middlewares/ST/STM32_SPWF0xSy/wifi_module.c **** #endif
 204:Middlewares/ST/STM32_SPWF0xSy/wifi_module.c **** #endif
 205:Middlewares/ST/STM32_SPWF0xSy/wifi_module.c ****   
 206:Middlewares/ST/STM32_SPWF0xSy/wifi_module.c **** //================================================================================================
 207:Middlewares/ST/STM32_SPWF0xSy/wifi_module.c ****   /*## -1- Enable DMA clock #################################################*/
 208:Middlewares/ST/STM32_SPWF0xSy/wifi_module.c ****   WIFI_UART_DMAx_CLK_ENABLE();
 209:Middlewares/ST/STM32_SPWF0xSy/wifi_module.c **** #ifdef USE_STM32F4XX_NUCLEO
 210:Middlewares/ST/STM32_SPWF0xSy/wifi_module.c ****   /*##-2- Select the DMA functional Parameters ###############################*/
 211:Middlewares/ST/STM32_SPWF0xSy/wifi_module.c ****   DMA_WIFI_UART.Init.Channel = WIFI_UART_DMA_CHANNEL;
 212:Middlewares/ST/STM32_SPWF0xSy/wifi_module.c ****   DMA_WIFI_UART.Init.Direction = DMA_PERIPH_TO_MEMORY;          /* M2M transfer mode               
 213:Middlewares/ST/STM32_SPWF0xSy/wifi_module.c ****   DMA_WIFI_UART.Init.PeriphInc = DMA_PINC_DISABLE;               /* Peripheral increment mode Enabl
 214:Middlewares/ST/STM32_SPWF0xSy/wifi_module.c ****   DMA_WIFI_UART.Init.MemInc = DMA_MINC_DISABLE;                  /* Memory increment mode Enable   
 215:Middlewares/ST/STM32_SPWF0xSy/wifi_module.c ****   DMA_WIFI_UART.Init.PeriphDataAlignment = DMA_PDATAALIGN_BYTE; /* Peripheral data alignment : Word
 216:Middlewares/ST/STM32_SPWF0xSy/wifi_module.c ****   DMA_WIFI_UART.Init.MemDataAlignment = DMA_MDATAALIGN_BYTE;    /* memory data alignment : Word    
 217:Middlewares/ST/STM32_SPWF0xSy/wifi_module.c ****   DMA_WIFI_UART.Init.Mode = DMA_NORMAL;                         // Normal DMA mode DMA_NORMAL, DMA_
 218:Middlewares/ST/STM32_SPWF0xSy/wifi_module.c ****   DMA_WIFI_UART.Init.Priority = DMA_PRIORITY_MEDIUM;              /* priority level : DMA_PRIORITY_
 219:Middlewares/ST/STM32_SPWF0xSy/wifi_module.c ****   DMA_WIFI_UART.Init.FIFOMode = DMA_FIFOMODE_DISABLE;
 220:Middlewares/ST/STM32_SPWF0xSy/wifi_module.c ****   DMA_WIFI_UART.Init.FIFOThreshold = DMA_FIFO_THRESHOLD_FULL;
 221:Middlewares/ST/STM32_SPWF0xSy/wifi_module.c ****   DMA_WIFI_UART.Init.MemBurst = DMA_MBURST_INC4;
 222:Middlewares/ST/STM32_SPWF0xSy/wifi_module.c ****   DMA_WIFI_UART.Init.PeriphBurst = DMA_PBURST_INC4;
 223:Middlewares/ST/STM32_SPWF0xSy/wifi_module.c ****   
 224:Middlewares/ST/STM32_SPWF0xSy/wifi_module.c ****   /*##-3- Select the DMA instance to be used for the transfer */
 225:Middlewares/ST/STM32_SPWF0xSy/wifi_module.c ****   DMA_WIFI_UART.Instance = WIFI_UART_DMA_STREAM;
 226:Middlewares/ST/STM32_SPWF0xSy/wifi_module.c **** #endif
 227:Middlewares/ST/STM32_SPWF0xSy/wifi_module.c **** #ifdef USE_STM32L4XX_NUCLEO
 228:Middlewares/ST/STM32_SPWF0xSy/wifi_module.c ****   /*##-2- Select the DMA functional Parameters ###############################*/
 229:Middlewares/ST/STM32_SPWF0xSy/wifi_module.c ****   DMA_WIFI_UART.Init.Request             = WIFI_UART_DMA_REQUEST;
 230:Middlewares/ST/STM32_SPWF0xSy/wifi_module.c ****     
 231:Middlewares/ST/STM32_SPWF0xSy/wifi_module.c ****   DMA_WIFI_UART.Init.Direction           = DMA_PERIPH_TO_MEMORY;
 232:Middlewares/ST/STM32_SPWF0xSy/wifi_module.c ****   DMA_WIFI_UART.Init.PeriphInc           = DMA_PINC_DISABLE;
 233:Middlewares/ST/STM32_SPWF0xSy/wifi_module.c ****   DMA_WIFI_UART.Init.MemInc              = DMA_MINC_DISABLE;
 234:Middlewares/ST/STM32_SPWF0xSy/wifi_module.c ****   DMA_WIFI_UART.Init.PeriphDataAlignment = DMA_PDATAALIGN_BYTE;
 235:Middlewares/ST/STM32_SPWF0xSy/wifi_module.c ****   DMA_WIFI_UART.Init.MemDataAlignment    = DMA_MDATAALIGN_BYTE;
 236:Middlewares/ST/STM32_SPWF0xSy/wifi_module.c ****   DMA_WIFI_UART.Init.Mode                = DMA_CIRCULAR;//DMA_NORMAL;
 237:Middlewares/ST/STM32_SPWF0xSy/wifi_module.c ****   DMA_WIFI_UART.Init.Priority            = DMA_PRIORITY_MEDIUM;
 238:Middlewares/ST/STM32_SPWF0xSy/wifi_module.c ****   
 239:Middlewares/ST/STM32_SPWF0xSy/wifi_module.c ****   /*##-3- Select the DMA instance to be used for the transfer : DMA2_Stream0 #*/
 240:Middlewares/ST/STM32_SPWF0xSy/wifi_module.c ****   DMA_WIFI_UART.Instance = WIFI_UART_DMA_CHANNEL;
 241:Middlewares/ST/STM32_SPWF0xSy/wifi_module.c **** #endif   
 242:Middlewares/ST/STM32_SPWF0xSy/wifi_module.c **** #ifdef USE_STM32L0XX_NUCLEO
 243:Middlewares/ST/STM32_SPWF0xSy/wifi_module.c ****   DMA_WIFI_UART.Init.Request             = WIFI_UART_DMA_REQUEST;
 244:Middlewares/ST/STM32_SPWF0xSy/wifi_module.c ****     
 245:Middlewares/ST/STM32_SPWF0xSy/wifi_module.c ****   DMA_WIFI_UART.Init.Direction           = DMA_PERIPH_TO_MEMORY;
 246:Middlewares/ST/STM32_SPWF0xSy/wifi_module.c ****   DMA_WIFI_UART.Init.PeriphInc           = DMA_PINC_DISABLE;
 247:Middlewares/ST/STM32_SPWF0xSy/wifi_module.c ****   DMA_WIFI_UART.Init.MemInc              = DMA_MINC_DISABLE;
 248:Middlewares/ST/STM32_SPWF0xSy/wifi_module.c ****   DMA_WIFI_UART.Init.PeriphDataAlignment = DMA_PDATAALIGN_BYTE;
 249:Middlewares/ST/STM32_SPWF0xSy/wifi_module.c ****   DMA_WIFI_UART.Init.MemDataAlignment    = DMA_MDATAALIGN_BYTE;
 250:Middlewares/ST/STM32_SPWF0xSy/wifi_module.c ****   DMA_WIFI_UART.Init.Mode                = DMA_CIRCULAR;//DMA_NORMAL;
 251:Middlewares/ST/STM32_SPWF0xSy/wifi_module.c ****   DMA_WIFI_UART.Init.Priority            = DMA_PRIORITY_MEDIUM;
 252:Middlewares/ST/STM32_SPWF0xSy/wifi_module.c ****   
 253:Middlewares/ST/STM32_SPWF0xSy/wifi_module.c ****   /*##-3- Select the DMA instance to be used for the transfer : DMA2_Stream0 #*/
 254:Middlewares/ST/STM32_SPWF0xSy/wifi_module.c ****   DMA_WIFI_UART.Instance = WIFI_UART_DMA_CHANNEL;
 255:Middlewares/ST/STM32_SPWF0xSy/wifi_module.c **** #endif
 256:Middlewares/ST/STM32_SPWF0xSy/wifi_module.c **** #ifdef USE_STM32F1xx_NUCLEO  
 257:Middlewares/ST/STM32_SPWF0xSy/wifi_module.c ****   //DMA_WIFI_UART.Init.             = WIFI_UART_DMA_REQUEST;
 258:Middlewares/ST/STM32_SPWF0xSy/wifi_module.c ****     
 259:Middlewares/ST/STM32_SPWF0xSy/wifi_module.c ****   DMA_WIFI_UART.Init.Direction           = DMA_PERIPH_TO_MEMORY;
ARM GAS  D:\cygwin64\tmp\cckuROSo.s 			page 6


 260:Middlewares/ST/STM32_SPWF0xSy/wifi_module.c ****   DMA_WIFI_UART.Init.PeriphInc           = DMA_PINC_DISABLE;
 261:Middlewares/ST/STM32_SPWF0xSy/wifi_module.c ****   DMA_WIFI_UART.Init.MemInc              = DMA_MINC_DISABLE;
 262:Middlewares/ST/STM32_SPWF0xSy/wifi_module.c ****   DMA_WIFI_UART.Init.PeriphDataAlignment = DMA_PDATAALIGN_BYTE;
 263:Middlewares/ST/STM32_SPWF0xSy/wifi_module.c ****   DMA_WIFI_UART.Init.MemDataAlignment    = DMA_MDATAALIGN_BYTE;
 264:Middlewares/ST/STM32_SPWF0xSy/wifi_module.c ****   DMA_WIFI_UART.Init.Mode                = DMA_CIRCULAR;//DMA_NORMAL;
 265:Middlewares/ST/STM32_SPWF0xSy/wifi_module.c ****   DMA_WIFI_UART.Init.Priority            = DMA_PRIORITY_MEDIUM;
 266:Middlewares/ST/STM32_SPWF0xSy/wifi_module.c ****   
 267:Middlewares/ST/STM32_SPWF0xSy/wifi_module.c ****   /*##-3- Select the DMA instance to be used for the transfer */
 268:Middlewares/ST/STM32_SPWF0xSy/wifi_module.c ****   DMA_WIFI_UART.Instance = WIFI_UART_DMA_CHANNEL;
 269:Middlewares/ST/STM32_SPWF0xSy/wifi_module.c **** #endif  
 270:Middlewares/ST/STM32_SPWF0xSy/wifi_module.c ****   /*##-4- Initialize the DMA stream ##########################################*/
 271:Middlewares/ST/STM32_SPWF0xSy/wifi_module.c ****   if (HAL_DMA_Init(&DMA_WIFI_UART) != HAL_OK)
 272:Middlewares/ST/STM32_SPWF0xSy/wifi_module.c ****   {
 273:Middlewares/ST/STM32_SPWF0xSy/wifi_module.c ****     /* Initialization Error */
 274:Middlewares/ST/STM32_SPWF0xSy/wifi_module.c ****     Error_Handler();
 275:Middlewares/ST/STM32_SPWF0xSy/wifi_module.c ****   }
 276:Middlewares/ST/STM32_SPWF0xSy/wifi_module.c **** 
 277:Middlewares/ST/STM32_SPWF0xSy/wifi_module.c ****   /*##-5- Configure NVIC for DMA transfer complete/error interrupts ##########*/
 278:Middlewares/ST/STM32_SPWF0xSy/wifi_module.c ****   /* Set Interrupt Group Priority */
 279:Middlewares/ST/STM32_SPWF0xSy/wifi_module.c ****   HAL_NVIC_SetPriority(WIFI_UART_DMA_IRQn, 0, 0);
 280:Middlewares/ST/STM32_SPWF0xSy/wifi_module.c **** 
 281:Middlewares/ST/STM32_SPWF0xSy/wifi_module.c ****   /* Enable the DMA Channel global Interrupt */
 282:Middlewares/ST/STM32_SPWF0xSy/wifi_module.c ****   HAL_NVIC_EnableIRQ(WIFI_UART_DMA_IRQn);
 283:Middlewares/ST/STM32_SPWF0xSy/wifi_module.c ****   
 284:Middlewares/ST/STM32_SPWF0xSy/wifi_module.c **** #if defined (USE_STM32F4XX_NUCLEO) || defined (USE_STM32F1xx_NUCLEO)
 285:Middlewares/ST/STM32_SPWF0xSy/wifi_module.c ****   DmaSrcAddr  = (uint32_t) USART1_BASE + 0x04U; //&UartMsgHandle.Instance->DR; //console_input_char
 286:Middlewares/ST/STM32_SPWF0xSy/wifi_module.c **** #endif
 287:Middlewares/ST/STM32_SPWF0xSy/wifi_module.c **** #if defined (USE_STM32L0XX_NUCLEO) || defined (USE_STM32L4XX_NUCLEO)
 288:Middlewares/ST/STM32_SPWF0xSy/wifi_module.c ****   DmaSrcAddr  = (uint32_t) USART1_BASE + 0x24U;
 289:Middlewares/ST/STM32_SPWF0xSy/wifi_module.c **** #endif
 290:Middlewares/ST/STM32_SPWF0xSy/wifi_module.c ****   
 291:Middlewares/ST/STM32_SPWF0xSy/wifi_module.c ****   DmaDestAddr = (uint32_t) WiFi_Counter_Variables.uart_byte;
 292:Middlewares/ST/STM32_SPWF0xSy/wifi_module.c ****   
 293:Middlewares/ST/STM32_SPWF0xSy/wifi_module.c **** #ifndef USE_STM32F1xx_NUCLEO  
 294:Middlewares/ST/STM32_SPWF0xSy/wifi_module.c ****   LL_DMA_ConfigAddresses(WIFI_UART_DMA, 
 295:Middlewares/ST/STM32_SPWF0xSy/wifi_module.c ****                          WIFI_UART_LL_DMA, 
 296:Middlewares/ST/STM32_SPWF0xSy/wifi_module.c ****                          DmaSrcAddr,
 297:Middlewares/ST/STM32_SPWF0xSy/wifi_module.c ****                          DmaDestAddr,
 298:Middlewares/ST/STM32_SPWF0xSy/wifi_module.c ****                          LL_DMA_DIRECTION_PERIPH_TO_MEMORY
 299:Middlewares/ST/STM32_SPWF0xSy/wifi_module.c ****                         );
 300:Middlewares/ST/STM32_SPWF0xSy/wifi_module.c **** #else
 301:Middlewares/ST/STM32_SPWF0xSy/wifi_module.c ****   DMA_ConfigAddress(&DMA_WIFI_UART, DmaSrcAddr, DmaDestAddr, 1);
 302:Middlewares/ST/STM32_SPWF0xSy/wifi_module.c ****   __HAL_DMA_ENABLE_IT(&DMA_WIFI_UART, DMA_IT_TC);
 303:Middlewares/ST/STM32_SPWF0xSy/wifi_module.c ****   __HAL_DMA_ENABLE(&DMA_WIFI_UART);
 304:Middlewares/ST/STM32_SPWF0xSy/wifi_module.c **** #endif
 305:Middlewares/ST/STM32_SPWF0xSy/wifi_module.c **** 
 306:Middlewares/ST/STM32_SPWF0xSy/wifi_module.c **** #ifndef USE_STM32F1xx_NUCLEO
 307:Middlewares/ST/STM32_SPWF0xSy/wifi_module.c ****   LL_DMA_SetDataLength(WIFI_UART_DMA, WIFI_UART_LL_DMA, 1);
 308:Middlewares/ST/STM32_SPWF0xSy/wifi_module.c ****   LL_DMA_EnableIT_TC(WIFI_UART_DMA, WIFI_UART_LL_DMA);
 309:Middlewares/ST/STM32_SPWF0xSy/wifi_module.c **** #ifdef USE_STM32F4XX_NUCLEO 
 310:Middlewares/ST/STM32_SPWF0xSy/wifi_module.c ****   LL_DMA_EnableStream(WIFI_UART_DMA, WIFI_UART_LL_DMA);
 311:Middlewares/ST/STM32_SPWF0xSy/wifi_module.c **** #endif
 312:Middlewares/ST/STM32_SPWF0xSy/wifi_module.c **** #ifdef USE_STM32L4XX_NUCLEO
 313:Middlewares/ST/STM32_SPWF0xSy/wifi_module.c ****   LL_DMA_EnableChannel(WIFI_UART_DMA, WIFI_UART_LL_DMA);
 314:Middlewares/ST/STM32_SPWF0xSy/wifi_module.c **** #endif
 315:Middlewares/ST/STM32_SPWF0xSy/wifi_module.c **** #ifdef USE_STM32L0XX_NUCLEO
 316:Middlewares/ST/STM32_SPWF0xSy/wifi_module.c ****   LL_DMA_EnableChannel(WIFI_UART_DMA, WIFI_UART_LL_DMA);
ARM GAS  D:\cygwin64\tmp\cckuROSo.s 			page 7


 317:Middlewares/ST/STM32_SPWF0xSy/wifi_module.c **** #endif  
 318:Middlewares/ST/STM32_SPWF0xSy/wifi_module.c **** #endif
 319:Middlewares/ST/STM32_SPWF0xSy/wifi_module.c **** }
 320:Middlewares/ST/STM32_SPWF0xSy/wifi_module.c **** 
 321:Middlewares/ST/STM32_SPWF0xSy/wifi_module.c **** void DMA1_TransferComplete()
 322:Middlewares/ST/STM32_SPWF0xSy/wifi_module.c **** {
 323:Middlewares/ST/STM32_SPWF0xSy/wifi_module.c ****   /* Process Locked */
 324:Middlewares/ST/STM32_SPWF0xSy/wifi_module.c ****   UartWiFiHandle.Lock = HAL_LOCKED;
 325:Middlewares/ST/STM32_SPWF0xSy/wifi_module.c **** 
 326:Middlewares/ST/STM32_SPWF0xSy/wifi_module.c ****   UartWiFiHandle.ErrorCode = HAL_UART_ERROR_NONE;
 327:Middlewares/ST/STM32_SPWF0xSy/wifi_module.c **** #if defined (USE_STM32F4XX_NUCLEO) || defined (USE_STM32L4XX_NUCLEO)
 328:Middlewares/ST/STM32_SPWF0xSy/wifi_module.c ****   UartWiFiHandle.gState = HAL_UART_STATE_BUSY_TX;
 329:Middlewares/ST/STM32_SPWF0xSy/wifi_module.c **** #endif
 330:Middlewares/ST/STM32_SPWF0xSy/wifi_module.c ****   UartWiFiHandle.pTxBuffPtr = (uint8_t*) console_send_char;
 331:Middlewares/ST/STM32_SPWF0xSy/wifi_module.c ****   UartWiFiHandle.TxXferSize = 1;
 332:Middlewares/ST/STM32_SPWF0xSy/wifi_module.c ****   UartWiFiHandle.TxXferCount = 1;
 333:Middlewares/ST/STM32_SPWF0xSy/wifi_module.c **** 
 334:Middlewares/ST/STM32_SPWF0xSy/wifi_module.c **** #if defined (USE_STM32L0XX_NUCLEO) || defined (USE_STM32F1xx_NUCLEO)
 335:Middlewares/ST/STM32_SPWF0xSy/wifi_module.c ****   /* Check if a receive process is ongoing or not */
 336:Middlewares/ST/STM32_SPWF0xSy/wifi_module.c ****     if(UartWiFiHandle.State == HAL_UART_STATE_BUSY_RX) 
 337:Middlewares/ST/STM32_SPWF0xSy/wifi_module.c ****     {
 338:Middlewares/ST/STM32_SPWF0xSy/wifi_module.c ****       UartWiFiHandle.State = HAL_UART_STATE_BUSY_TX_RX;
 339:Middlewares/ST/STM32_SPWF0xSy/wifi_module.c ****     }
 340:Middlewares/ST/STM32_SPWF0xSy/wifi_module.c ****     else
 341:Middlewares/ST/STM32_SPWF0xSy/wifi_module.c ****     {
 342:Middlewares/ST/STM32_SPWF0xSy/wifi_module.c ****       UartWiFiHandle.State = HAL_UART_STATE_BUSY_TX;
 343:Middlewares/ST/STM32_SPWF0xSy/wifi_module.c ****     }
 344:Middlewares/ST/STM32_SPWF0xSy/wifi_module.c **** #endif
 345:Middlewares/ST/STM32_SPWF0xSy/wifi_module.c ****   // Process Unlocked
 346:Middlewares/ST/STM32_SPWF0xSy/wifi_module.c ****   UartWiFiHandle.Lock = HAL_UNLOCKED;
 347:Middlewares/ST/STM32_SPWF0xSy/wifi_module.c **** 
 348:Middlewares/ST/STM32_SPWF0xSy/wifi_module.c ****   // Enable the UART Transmit data register empty Interrupt
 349:Middlewares/ST/STM32_SPWF0xSy/wifi_module.c ****   __HAL_UART_ENABLE_IT(&UartWiFiHandle, UART_IT_TXE);
 350:Middlewares/ST/STM32_SPWF0xSy/wifi_module.c **** 
 351:Middlewares/ST/STM32_SPWF0xSy/wifi_module.c **** #ifdef USE_STM32F1xx_NUCLEO
 352:Middlewares/ST/STM32_SPWF0xSy/wifi_module.c ****   //__HAL_DMA_ENABLE_IT(&DMA_UART_RX, DMA_IT_TC);
 353:Middlewares/ST/STM32_SPWF0xSy/wifi_module.c ****   //__HAL_DMA_ENABLE(&DMA_UART_RX);
 354:Middlewares/ST/STM32_SPWF0xSy/wifi_module.c **** #else  
 355:Middlewares/ST/STM32_SPWF0xSy/wifi_module.c **** 
 356:Middlewares/ST/STM32_SPWF0xSy/wifi_module.c **** #ifdef USE_STM32F4XX_NUCLEO
 357:Middlewares/ST/STM32_SPWF0xSy/wifi_module.c ****   LL_DMA_EnableIT_TC(WIFI_CONSOLE_DMA, WIFI_CONSOLE_LL_DMA);
 358:Middlewares/ST/STM32_SPWF0xSy/wifi_module.c ****   LL_DMA_EnableStream(WIFI_CONSOLE_DMA, WIFI_CONSOLE_LL_DMA);
 359:Middlewares/ST/STM32_SPWF0xSy/wifi_module.c **** #endif
 360:Middlewares/ST/STM32_SPWF0xSy/wifi_module.c **** #ifdef USE_STM32L4XX_NUCLEO
 361:Middlewares/ST/STM32_SPWF0xSy/wifi_module.c ****   //LL_DMA_EnableIT_TC(WIFI_CONSOLE_DMA, WIFI_CONSOLE_LL_DMA);
 362:Middlewares/ST/STM32_SPWF0xSy/wifi_module.c ****   //LL_DMA_EnableChannel(WIFI_CONSOLE_DMA, WIFI_CONSOLE_LL_DMA);
 363:Middlewares/ST/STM32_SPWF0xSy/wifi_module.c **** #endif
 364:Middlewares/ST/STM32_SPWF0xSy/wifi_module.c **** 
 365:Middlewares/ST/STM32_SPWF0xSy/wifi_module.c **** #endif
 366:Middlewares/ST/STM32_SPWF0xSy/wifi_module.c ****   /* Process Unlocked */
 367:Middlewares/ST/STM32_SPWF0xSy/wifi_module.c ****   UartWiFiHandle.Lock = HAL_UNLOCKED;    
 368:Middlewares/ST/STM32_SPWF0xSy/wifi_module.c **** }
 369:Middlewares/ST/STM32_SPWF0xSy/wifi_module.c **** 
 370:Middlewares/ST/STM32_SPWF0xSy/wifi_module.c **** void DMA2_TransferComplete()
 371:Middlewares/ST/STM32_SPWF0xSy/wifi_module.c **** {
 372:Middlewares/ST/STM32_SPWF0xSy/wifi_module.c ****     /* Process Locked */
 373:Middlewares/ST/STM32_SPWF0xSy/wifi_module.c ****   UartMsgHandle->Lock = HAL_LOCKED;  
ARM GAS  D:\cygwin64\tmp\cckuROSo.s 			page 8


 374:Middlewares/ST/STM32_SPWF0xSy/wifi_module.c **** 
 375:Middlewares/ST/STM32_SPWF0xSy/wifi_module.c ****   UartMsgHandle->ErrorCode = HAL_UART_ERROR_NONE;
 376:Middlewares/ST/STM32_SPWF0xSy/wifi_module.c **** #if defined (USE_STM32F4XX_NUCLEO) || defined (USE_STM32L4XX_NUCLEO)
 377:Middlewares/ST/STM32_SPWF0xSy/wifi_module.c ****   UartMsgHandle->gState = HAL_UART_STATE_BUSY_TX;
 378:Middlewares/ST/STM32_SPWF0xSy/wifi_module.c **** #endif  
 379:Middlewares/ST/STM32_SPWF0xSy/wifi_module.c ****   UartMsgHandle->pTxBuffPtr = (uint8_t*) WiFi_Counter_Variables.uart_byte;
 380:Middlewares/ST/STM32_SPWF0xSy/wifi_module.c ****   UartMsgHandle->TxXferSize = 1;
 381:Middlewares/ST/STM32_SPWF0xSy/wifi_module.c ****   UartMsgHandle->TxXferCount = 1;
 382:Middlewares/ST/STM32_SPWF0xSy/wifi_module.c **** 
 383:Middlewares/ST/STM32_SPWF0xSy/wifi_module.c **** #if defined (USE_STM32L0XX_NUCLEO) || defined (USE_STM32F1xx_NUCLEO)  
 384:Middlewares/ST/STM32_SPWF0xSy/wifi_module.c ****   /* Check if a receive process is ongoing or not */
 385:Middlewares/ST/STM32_SPWF0xSy/wifi_module.c ****     if(UartMsgHandle->State == HAL_UART_STATE_BUSY_RX) 
 386:Middlewares/ST/STM32_SPWF0xSy/wifi_module.c ****     {
 387:Middlewares/ST/STM32_SPWF0xSy/wifi_module.c ****       UartMsgHandle->State = HAL_UART_STATE_BUSY_TX_RX;
 388:Middlewares/ST/STM32_SPWF0xSy/wifi_module.c ****     }
 389:Middlewares/ST/STM32_SPWF0xSy/wifi_module.c ****     else
 390:Middlewares/ST/STM32_SPWF0xSy/wifi_module.c ****     {
 391:Middlewares/ST/STM32_SPWF0xSy/wifi_module.c ****       UartMsgHandle->State = HAL_UART_STATE_BUSY_TX;
 392:Middlewares/ST/STM32_SPWF0xSy/wifi_module.c ****     }
 393:Middlewares/ST/STM32_SPWF0xSy/wifi_module.c **** #endif
 394:Middlewares/ST/STM32_SPWF0xSy/wifi_module.c ****   // Process Unlocked
 395:Middlewares/ST/STM32_SPWF0xSy/wifi_module.c ****   UartMsgHandle->Lock = HAL_UNLOCKED;
 396:Middlewares/ST/STM32_SPWF0xSy/wifi_module.c **** 
 397:Middlewares/ST/STM32_SPWF0xSy/wifi_module.c ****   // Enable the UART Transmit data register empty Interrupt
 398:Middlewares/ST/STM32_SPWF0xSy/wifi_module.c ****   __HAL_UART_ENABLE_IT(UartMsgHandle, UART_IT_TXE);
 399:Middlewares/ST/STM32_SPWF0xSy/wifi_module.c ****   //HAL_UART_Transmit(UartMsgHandle, (uint8_t*) WiFi_Counter_Variables.uart_byte, 1, 10);
 400:Middlewares/ST/STM32_SPWF0xSy/wifi_module.c **** 
 401:Middlewares/ST/STM32_SPWF0xSy/wifi_module.c **** #ifdef USE_STM32F1xx_NUCLEO
 402:Middlewares/ST/STM32_SPWF0xSy/wifi_module.c ****   //__HAL_DMA_ENABLE_IT(&DMA_WIFI_UART, DMA_IT_TC);
 403:Middlewares/ST/STM32_SPWF0xSy/wifi_module.c ****   //__HAL_DMA_ENABLE(&DMA_WIFI_UART);
 404:Middlewares/ST/STM32_SPWF0xSy/wifi_module.c **** #else  
 405:Middlewares/ST/STM32_SPWF0xSy/wifi_module.c **** 
 406:Middlewares/ST/STM32_SPWF0xSy/wifi_module.c **** #ifdef USE_STM32F4XX_NUCLEO
 407:Middlewares/ST/STM32_SPWF0xSy/wifi_module.c ****   LL_DMA_EnableIT_TC(WIFI_UART_DMA, WIFI_UART_LL_DMA);
 408:Middlewares/ST/STM32_SPWF0xSy/wifi_module.c ****   LL_DMA_EnableStream(WIFI_UART_DMA, WIFI_UART_LL_DMA);
 409:Middlewares/ST/STM32_SPWF0xSy/wifi_module.c **** #endif
 410:Middlewares/ST/STM32_SPWF0xSy/wifi_module.c **** #ifdef USE_STM32L4XX_NUCLEO
 411:Middlewares/ST/STM32_SPWF0xSy/wifi_module.c ****   //LL_DMA_EnableIT_TC(WIFI_UART_DMA, WIFI_UART_LL_DMA);
 412:Middlewares/ST/STM32_SPWF0xSy/wifi_module.c ****   //LL_DMA_EnableChannel(WIFI_UART_DMA, WIFI_UART_LL_DMA);
 413:Middlewares/ST/STM32_SPWF0xSy/wifi_module.c **** #endif  
 414:Middlewares/ST/STM32_SPWF0xSy/wifi_module.c **** 
 415:Middlewares/ST/STM32_SPWF0xSy/wifi_module.c **** #endif
 416:Middlewares/ST/STM32_SPWF0xSy/wifi_module.c ****   
 417:Middlewares/ST/STM32_SPWF0xSy/wifi_module.c **** }    
 418:Middlewares/ST/STM32_SPWF0xSy/wifi_module.c **** #endif
 419:Middlewares/ST/STM32_SPWF0xSy/wifi_module.c **** 
 420:Middlewares/ST/STM32_SPWF0xSy/wifi_module.c **** /**
 421:Middlewares/ST/STM32_SPWF0xSy/wifi_module.c ****   * @}
 422:Middlewares/ST/STM32_SPWF0xSy/wifi_module.c ****   */
 423:Middlewares/ST/STM32_SPWF0xSy/wifi_module.c ****   
 424:Middlewares/ST/STM32_SPWF0xSy/wifi_module.c **** /** @defgroup NUCLEO_WIFI_MODULE_Private_Functions
 425:Middlewares/ST/STM32_SPWF0xSy/wifi_module.c ****   * @{
 426:Middlewares/ST/STM32_SPWF0xSy/wifi_module.c ****   */
 427:Middlewares/ST/STM32_SPWF0xSy/wifi_module.c **** 
 428:Middlewares/ST/STM32_SPWF0xSy/wifi_module.c **** /**
 429:Middlewares/ST/STM32_SPWF0xSy/wifi_module.c ****   * @brief  WiFi_Module_Init
 430:Middlewares/ST/STM32_SPWF0xSy/wifi_module.c ****   *         Initialize wifi module
ARM GAS  D:\cygwin64\tmp\cckuROSo.s 			page 9


 431:Middlewares/ST/STM32_SPWF0xSy/wifi_module.c ****   * @param  None
 432:Middlewares/ST/STM32_SPWF0xSy/wifi_module.c ****   * @retval None
 433:Middlewares/ST/STM32_SPWF0xSy/wifi_module.c ****   */
 434:Middlewares/ST/STM32_SPWF0xSy/wifi_module.c **** void WiFi_Module_Init(void)
 435:Middlewares/ST/STM32_SPWF0xSy/wifi_module.c **** {
 436:Middlewares/ST/STM32_SPWF0xSy/wifi_module.c **** #ifdef WIFI_USE_VCOM
 437:Middlewares/ST/STM32_SPWF0xSy/wifi_module.c ****   //console_input();
 438:Middlewares/ST/STM32_SPWF0xSy/wifi_module.c **** #endif  
 439:Middlewares/ST/STM32_SPWF0xSy/wifi_module.c **** 
 440:Middlewares/ST/STM32_SPWF0xSy/wifi_module.c **** #if defined (USE_STM32L0XX_NUCLEO) && defined (WIFI_USE_VCOM) 
 441:Middlewares/ST/STM32_SPWF0xSy/wifi_module.c ****   //init(&wifi_instances.big_buff, 4096);//Init the ring buffer  
 442:Middlewares/ST/STM32_SPWF0xSy/wifi_module.c **** #else
 443:Middlewares/ST/STM32_SPWF0xSy/wifi_module.c ****   init(&wifi_instances.big_buff, 1024);//Init the ring buffer  
 444:Middlewares/ST/STM32_SPWF0xSy/wifi_module.c **** #endif
 445:Middlewares/ST/STM32_SPWF0xSy/wifi_module.c **** 
 446:Middlewares/ST/STM32_SPWF0xSy/wifi_module.c ****   IO_status_flag.wifi_ready = 0; //reset to get user callback on HW started
 447:Middlewares/ST/STM32_SPWF0xSy/wifi_module.c ****   wifi_connected = 0; //reset to get user callback on WiFi UP
 448:Middlewares/ST/STM32_SPWF0xSy/wifi_module.c **** 
 449:Middlewares/ST/STM32_SPWF0xSy/wifi_module.c **** #ifndef WIFI_USE_VCOM
 450:Middlewares/ST/STM32_SPWF0xSy/wifi_module.c **** #if defined (CONSOLE_UART_ENABLED)
 451:Middlewares/ST/STM32_SPWF0xSy/wifi_module.c **** #ifdef SPWF01
 452:Middlewares/ST/STM32_SPWF0xSy/wifi_module.c ****   Receive_Data();
 453:Middlewares/ST/STM32_SPWF0xSy/wifi_module.c **** #else
 454:Middlewares/ST/STM32_SPWF0xSy/wifi_module.c ****   Receive_DMA_Uart_Data();
 455:Middlewares/ST/STM32_SPWF0xSy/wifi_module.c **** #endif
 456:Middlewares/ST/STM32_SPWF0xSy/wifi_module.c **** #else  
 457:Middlewares/ST/STM32_SPWF0xSy/wifi_module.c ****   #if defined(SPWF04) //SPWF01 does not have SPI
 458:Middlewares/ST/STM32_SPWF0xSy/wifi_module.c ****     WiFi_SPI_Init(&SpiHandle); 
 459:Middlewares/ST/STM32_SPWF0xSy/wifi_module.c ****     Enable_SPI_Receiving_Path();  
 460:Middlewares/ST/STM32_SPWF0xSy/wifi_module.c ****   #endif
 461:Middlewares/ST/STM32_SPWF0xSy/wifi_module.c **** #endif
 462:Middlewares/ST/STM32_SPWF0xSy/wifi_module.c **** #endif
 463:Middlewares/ST/STM32_SPWF0xSy/wifi_module.c ****     
 464:Middlewares/ST/STM32_SPWF0xSy/wifi_module.c ****   Set_WiFi_Counter_Variables( );
 465:Middlewares/ST/STM32_SPWF0xSy/wifi_module.c ****   Set_WiFi_Control_Variables( );
 466:Middlewares/ST/STM32_SPWF0xSy/wifi_module.c ****   
 467:Middlewares/ST/STM32_SPWF0xSy/wifi_module.c **** #ifdef USE_STM32L0XX_NUCLEO
 468:Middlewares/ST/STM32_SPWF0xSy/wifi_module.c ****   event_init(&wifi_instances.event_buff, 10); //max 15 events can be Q'ed (Event Buffer is of size 
 469:Middlewares/ST/STM32_SPWF0xSy/wifi_module.c **** #else
 470:Middlewares/ST/STM32_SPWF0xSy/wifi_module.c ****   event_init(&wifi_instances.event_buff, 50); //max 50 events can be Q'ed (Event Buffer is of size 
 471:Middlewares/ST/STM32_SPWF0xSy/wifi_module.c **** #endif
 472:Middlewares/ST/STM32_SPWF0xSy/wifi_module.c ****   
 473:Middlewares/ST/STM32_SPWF0xSy/wifi_module.c **** #ifndef WIFI_USE_VCOM
 474:Middlewares/ST/STM32_SPWF0xSy/wifi_module.c ****   Start_Timer();  
 475:Middlewares/ST/STM32_SPWF0xSy/wifi_module.c ****   memset(open_sockets,0x00, 8); //init the open socket array
 476:Middlewares/ST/STM32_SPWF0xSy/wifi_module.c ****   
 477:Middlewares/ST/STM32_SPWF0xSy/wifi_module.c ****   if(HAL_TIM_Base_Start_IT(&TimHandle) != HAL_OK)//Start the TIM timer
 478:Middlewares/ST/STM32_SPWF0xSy/wifi_module.c ****     {
 479:Middlewares/ST/STM32_SPWF0xSy/wifi_module.c ****       #if DEBUG_PRINT
 480:Middlewares/ST/STM32_SPWF0xSy/wifi_module.c ****       printf("Error");
 481:Middlewares/ST/STM32_SPWF0xSy/wifi_module.c ****       #endif
 482:Middlewares/ST/STM32_SPWF0xSy/wifi_module.c ****       WiFi_UART_Error_Handler();
 483:Middlewares/ST/STM32_SPWF0xSy/wifi_module.c ****     }
 484:Middlewares/ST/STM32_SPWF0xSy/wifi_module.c **** #endif
 485:Middlewares/ST/STM32_SPWF0xSy/wifi_module.c **** }
 486:Middlewares/ST/STM32_SPWF0xSy/wifi_module.c **** 
 487:Middlewares/ST/STM32_SPWF0xSy/wifi_module.c **** /**
ARM GAS  D:\cygwin64\tmp\cckuROSo.s 			page 10


 488:Middlewares/ST/STM32_SPWF0xSy/wifi_module.c **** * @brief  Set_WiFi_Control_Variables
 489:Middlewares/ST/STM32_SPWF0xSy/wifi_module.c **** *         Sets the default value of some control Variables
 490:Middlewares/ST/STM32_SPWF0xSy/wifi_module.c **** * @param  None
 491:Middlewares/ST/STM32_SPWF0xSy/wifi_module.c **** * @retval None
 492:Middlewares/ST/STM32_SPWF0xSy/wifi_module.c **** */
 493:Middlewares/ST/STM32_SPWF0xSy/wifi_module.c **** void Set_WiFi_Control_Variables(void)
 494:Middlewares/ST/STM32_SPWF0xSy/wifi_module.c **** {
  28              		.loc 1 494 0
  29              		.cfi_startproc
  30              		@ args = 0, pretend = 0, frame = 0
  31              		@ frame_needed = 0, uses_anonymous_args = 0
  32              		@ link register save eliminated.
 495:Middlewares/ST/STM32_SPWF0xSy/wifi_module.c ****   IO_status_flag.enable_dequeue                      = WIFI_TRUE;
  33              		.loc 1 495 0
  34 0000 1B4B     		ldr	r3, .L2
  35 0002 1A78     		ldrb	r2, [r3]	@ zero_extendqisi2
  36 0004 42F00802 		orr	r2, r2, #8
  37 0008 1A70     		strb	r2, [r3]
 496:Middlewares/ST/STM32_SPWF0xSy/wifi_module.c ****   IO_status_flag.command_mode                        = WIFI_TRUE;
  38              		.loc 1 496 0
  39 000a 1A78     		ldrb	r2, [r3]	@ zero_extendqisi2
  40 000c 42F08002 		orr	r2, r2, #128
  41 0010 1A70     		strb	r2, [r3]
 497:Middlewares/ST/STM32_SPWF0xSy/wifi_module.c ****   IO_status_flag.radio_off                           = WIFI_FALSE;
  42              		.loc 1 497 0
  43 0012 1A78     		ldrb	r2, [r3]	@ zero_extendqisi2
  44 0014 6FF38612 		bfc	r2, #6, #1
  45 0018 1A70     		strb	r2, [r3]
 498:Middlewares/ST/STM32_SPWF0xSy/wifi_module.c ****   IO_status_flag.UartReady                           = RESET;
  46              		.loc 1 498 0
  47 001a 0022     		movs	r2, #0
  48 001c 5A74     		strb	r2, [r3, #17]
 499:Middlewares/ST/STM32_SPWF0xSy/wifi_module.c ****   IO_status_flag.Uart2Ready                          = RESET;
  49              		.loc 1 499 0
  50 001e 9A74     		strb	r2, [r3, #18]
 500:Middlewares/ST/STM32_SPWF0xSy/wifi_module.c ****   IO_status_flag.WIND64_count                        = 0;
  51              		.loc 1 500 0
  52 0020 5A60     		str	r2, [r3, #4]
 501:Middlewares/ST/STM32_SPWF0xSy/wifi_module.c ****   IO_status_flag.AT_Response_Received                = WIFI_FALSE;
  53              		.loc 1 501 0
  54 0022 5978     		ldrb	r1, [r3, #1]	@ zero_extendqisi2
  55 0024 62F30001 		bfi	r1, r2, #0, #1
  56 0028 5970     		strb	r1, [r3, #1]
 502:Middlewares/ST/STM32_SPWF0xSy/wifi_module.c ****   IO_status_flag.WiFi_WIND_State                     = Undefine_state;
  57              		.loc 1 502 0
  58 002a FF21     		movs	r1, #255
  59 002c 9975     		strb	r1, [r3, #22]
 503:Middlewares/ST/STM32_SPWF0xSy/wifi_module.c ****   IO_status_flag.client_socket_close_type            = NET_SOCKET;
  60              		.loc 1 503 0
  61 002e 0221     		movs	r1, #2
  62 0030 D974     		strb	r1, [r3, #19]
 504:Middlewares/ST/STM32_SPWF0xSy/wifi_module.c ****   IO_status_flag.client_socket_data_type             = NET_SOCKET;
  63              		.loc 1 504 0
  64 0032 1975     		strb	r1, [r3, #20]
 505:Middlewares/ST/STM32_SPWF0xSy/wifi_module.c ****   IO_status_flag.AT_event_processing                 = WIFI_NO_EVENT;
  65              		.loc 1 505 0
  66 0034 5A75     		strb	r2, [r3, #21]
ARM GAS  D:\cygwin64\tmp\cckuROSo.s 			page 11


 506:Middlewares/ST/STM32_SPWF0xSy/wifi_module.c ****   IO_status_flag.AT_CMD_count                        = 0;
  67              		.loc 1 506 0
  68 0036 DA60     		str	r2, [r3, #12]
 507:Middlewares/ST/STM32_SPWF0xSy/wifi_module.c ****   
 508:Middlewares/ST/STM32_SPWF0xSy/wifi_module.c ****   WiFi_Control_Variables.switch_by_default_to_command_mode    = WIFI_TRUE;
  69              		.loc 1 508 0
  70 0038 0E4B     		ldr	r3, .L2+4
  71 003a 1978     		ldrb	r1, [r3]	@ zero_extendqisi2
 509:Middlewares/ST/STM32_SPWF0xSy/wifi_module.c ****   WiFi_Control_Variables.queue_wifi_wind_message              = WIFI_TRUE;
  72              		.loc 1 509 0
  73 003c 41F00301 		orr	r1, r1, #3
  74 0040 1970     		strb	r1, [r3]
 510:Middlewares/ST/STM32_SPWF0xSy/wifi_module.c ****   WiFi_Control_Variables.enable_timeout_timer                 = WIFI_FALSE;
  75              		.loc 1 510 0
  76 0042 5979     		ldrb	r1, [r3, #5]	@ zero_extendqisi2
  77 0044 62F34511 		bfi	r1, r2, #5, #1
  78 0048 5971     		strb	r1, [r3, #5]
 511:Middlewares/ST/STM32_SPWF0xSy/wifi_module.c ****   WiFi_Control_Variables.broken_message                       = WIFI_FALSE;
  79              		.loc 1 511 0
  80 004a 197A     		ldrb	r1, [r3, #8]	@ zero_extendqisi2
 512:Middlewares/ST/STM32_SPWF0xSy/wifi_module.c ****   //enable SockOn_Server_Closed_Callback when wind:58 received, not when user requests for socket c
 513:Middlewares/ST/STM32_SPWF0xSy/wifi_module.c ****   //WiFi_Control_Variables.packet_payload_data_available = WIFI_FALSE;
 514:Middlewares/ST/STM32_SPWF0xSy/wifi_module.c ****   WiFi_Control_Variables.enable_SockON_Server_Closed_Callback = WIFI_TRUE;
  81              		.loc 1 514 0
  82 004c 9879     		ldrb	r0, [r3, #6]	@ zero_extendqisi2
  83 004e 40F00400 		orr	r0, r0, #4
  84 0052 9871     		strb	r0, [r3, #6]
 515:Middlewares/ST/STM32_SPWF0xSy/wifi_module.c ****   WiFi_Control_Variables.request_complete = WIFI_FALSE;
  85              		.loc 1 515 0
  86 0054 D879     		ldrb	r0, [r3, #7]	@ zero_extendqisi2
  87 0056 62F3C710 		bfi	r0, r2, #7, #1
  88 005a D871     		strb	r0, [r3, #7]
 516:Middlewares/ST/STM32_SPWF0xSy/wifi_module.c ****   WiFi_Control_Variables.runway_buffer_contains_data  = WIFI_FALSE;
 517:Middlewares/ST/STM32_SPWF0xSy/wifi_module.c ****   WiFi_Control_Variables.pending_unused_data = WIFI_FALSE;
 518:Middlewares/ST/STM32_SPWF0xSy/wifi_module.c ****   WiFi_Control_Variables.temporarily_modify_variable_value = WIFI_FALSE;
  89              		.loc 1 518 0
  90 005c 01F0F801 		and	r1, r1, #248
  91 0060 62F3C301 		bfi	r1, r2, #3, #1
  92 0064 1972     		strb	r1, [r3, #8]
 519:Middlewares/ST/STM32_SPWF0xSy/wifi_module.c ****   WiFi_Control_Variables.parsing_wind_56_data = WIFI_FALSE;
  93              		.loc 1 519 0
  94 0066 597A     		ldrb	r1, [r3, #9]	@ zero_extendqisi2
  95 0068 62F38201 		bfi	r1, r2, #2, #1
  96 006c 5972     		strb	r1, [r3, #9]
  97 006e 7047     		bx	lr
  98              	.L3:
  99              		.align	2
 100              	.L2:
 101 0070 00000000 		.word	IO_status_flag
 102 0074 00000000 		.word	WiFi_Control_Variables
 103              		.cfi_endproc
 104              	.LFE276:
 106              		.section	.text.Set_WiFi_Counter_Variables,"ax",%progbits
 107              		.align	1
 108              		.global	Set_WiFi_Counter_Variables
 109              		.syntax unified
 110              		.thumb
ARM GAS  D:\cygwin64\tmp\cckuROSo.s 			page 12


 111              		.thumb_func
 112              		.fpu fpv4-sp-d16
 114              	Set_WiFi_Counter_Variables:
 115              	.LFB277:
 520:Middlewares/ST/STM32_SPWF0xSy/wifi_module.c **** }
 521:Middlewares/ST/STM32_SPWF0xSy/wifi_module.c **** 
 522:Middlewares/ST/STM32_SPWF0xSy/wifi_module.c **** /**
 523:Middlewares/ST/STM32_SPWF0xSy/wifi_module.c **** * @brief  Set_WiFi_Counter_Variables
 524:Middlewares/ST/STM32_SPWF0xSy/wifi_module.c **** *         Sets the default value of some counter Variables
 525:Middlewares/ST/STM32_SPWF0xSy/wifi_module.c **** * @param  None
 526:Middlewares/ST/STM32_SPWF0xSy/wifi_module.c **** * @retval None
 527:Middlewares/ST/STM32_SPWF0xSy/wifi_module.c **** */
 528:Middlewares/ST/STM32_SPWF0xSy/wifi_module.c **** void Set_WiFi_Counter_Variables(void)
 529:Middlewares/ST/STM32_SPWF0xSy/wifi_module.c **** {
 116              		.loc 1 529 0
 117              		.cfi_startproc
 118              		@ args = 0, pretend = 0, frame = 0
 119              		@ frame_needed = 0, uses_anonymous_args = 0
 120 0000 08B5     		push	{r3, lr}
 121              	.LCFI0:
 122              		.cfi_def_cfa_offset 8
 123              		.cfi_offset 3, -8
 124              		.cfi_offset 14, -4
 530:Middlewares/ST/STM32_SPWF0xSy/wifi_module.c ****   WiFi_Counter_Variables.no_of_open_client_sockets = 0;
 125              		.loc 1 530 0
 126 0002 174B     		ldr	r3, .L6
 127 0004 DA79     		ldrb	r2, [r3, #7]	@ zero_extendqisi2
 128 0006 6FF3C502 		bfc	r2, #3, #3
 129 000a DA71     		strb	r2, [r3, #7]
 531:Middlewares/ST/STM32_SPWF0xSy/wifi_module.c ****   WiFi_Counter_Variables.wind64_DQ_wait            = 0;
 130              		.loc 1 531 0
 131 000c 0021     		movs	r1, #0
 132 000e C3F8AC10 		str	r1, [r3, #172]
 532:Middlewares/ST/STM32_SPWF0xSy/wifi_module.c ****   WiFi_Counter_Variables.Socket_Data_Length        = 0;
 133              		.loc 1 532 0
 134 0012 C3F8A010 		str	r1, [r3, #160]
 533:Middlewares/ST/STM32_SPWF0xSy/wifi_module.c ****   WiFi_Counter_Variables.number_of_bytes           = 0;
 135              		.loc 1 533 0
 136 0016 C3F8A810 		str	r1, [r3, #168]
 534:Middlewares/ST/STM32_SPWF0xSy/wifi_module.c ****   WiFi_Counter_Variables.interim_number_of_bytes   = 0;
 137              		.loc 1 534 0
 138 001a C3F8B810 		str	r1, [r3, #184]
 535:Middlewares/ST/STM32_SPWF0xSy/wifi_module.c ****   WiFi_Counter_Variables.sock_total_count          = 0;
 139              		.loc 1 535 0
 140 001e C3F8B010 		str	r1, [r3, #176]
 536:Middlewares/ST/STM32_SPWF0xSy/wifi_module.c ****   WiFi_Counter_Variables.pop_buffer_size           = 0;
 141              		.loc 1 536 0
 142 0022 A3F89810 		strh	r1, [r3, #152]	@ movhi
 537:Middlewares/ST/STM32_SPWF0xSy/wifi_module.c ****   WiFi_Counter_Variables.epoch_time                = 0;
 143              		.loc 1 537 0
 144 0026 C3F8BC10 		str	r1, [r3, #188]
 538:Middlewares/ST/STM32_SPWF0xSy/wifi_module.c ****   WiFi_Counter_Variables.sleep_count               = 0;
 145              		.loc 1 538 0
 146 002a C3F8C410 		str	r1, [r3, #196]
 539:Middlewares/ST/STM32_SPWF0xSy/wifi_module.c ****   WiFi_Counter_Variables.standby_time              = 0;
 147              		.loc 1 539 0
 148 002e C3F8C810 		str	r1, [r3, #200]
ARM GAS  D:\cygwin64\tmp\cckuROSo.s 			page 13


 540:Middlewares/ST/STM32_SPWF0xSy/wifi_module.c ****   WiFi_Counter_Variables.scanned_ssids             = 0;
 149              		.loc 1 540 0
 150 0032 5973     		strb	r1, [r3, #13]
 541:Middlewares/ST/STM32_SPWF0xSy/wifi_module.c ****   WiFi_Counter_Variables.timeout_tick              = 0;
 151              		.loc 1 541 0
 152 0034 C3F8CC10 		str	r1, [r3, #204]
 542:Middlewares/ST/STM32_SPWF0xSy/wifi_module.c ****   WiFi_Counter_Variables.UserDataBuff_previous_index =0;
 153              		.loc 1 542 0
 154 0038 A3F89410 		strh	r1, [r3, #148]	@ movhi
 543:Middlewares/ST/STM32_SPWF0xSy/wifi_module.c ****   /* Default limit for client socket/server socket/web socket write is 4096 bytes. 
 544:Middlewares/ST/STM32_SPWF0xSy/wifi_module.c ****      This value will be updated with every call to get free_heap_size status variable*/
 545:Middlewares/ST/STM32_SPWF0xSy/wifi_module.c ****   WiFi_Counter_Variables.wifi_socket_write_limit   = 4*RINGBUF_SIZE;
 155              		.loc 1 545 0
 156 003c 4FF48052 		mov	r2, #4096
 157 0040 C3F8E420 		str	r2, [r3, #228]
 546:Middlewares/ST/STM32_SPWF0xSy/wifi_module.c **** #ifdef SPWF01
 547:Middlewares/ST/STM32_SPWF0xSy/wifi_module.c ****   WiFi_Counter_Variables.last_process_buffer_index = 5;
 158              		.loc 1 547 0
 159 0044 0522     		movs	r2, #5
 160 0046 A3F89A20 		strh	r2, [r3, #154]	@ movhi
 548:Middlewares/ST/STM32_SPWF0xSy/wifi_module.c **** #else
 549:Middlewares/ST/STM32_SPWF0xSy/wifi_module.c ****   WiFi_Counter_Variables.last_process_buffer_index = 10;
 550:Middlewares/ST/STM32_SPWF0xSy/wifi_module.c **** #endif
 551:Middlewares/ST/STM32_SPWF0xSy/wifi_module.c ****   
 552:Middlewares/ST/STM32_SPWF0xSy/wifi_module.c ****   /* By default, enable all client socket close callback*/
 553:Middlewares/ST/STM32_SPWF0xSy/wifi_module.c ****   memset(Client_Socket_Close_Callback,0x01,CLIENT_SOCKET_COUNT);
 161              		.loc 1 553 0
 162 004a 064B     		ldr	r3, .L6+4
 163 004c 4FF00132 		mov	r2, #16843009
 164 0050 1A60     		str	r2, [r3]	@ unaligned
 165 0052 5A60     		str	r2, [r3, #4]	@ unaligned
 554:Middlewares/ST/STM32_SPWF0xSy/wifi_module.c ****   memset(dma_buffer,0x00,DMA_BUFFER_SIZE);
 166              		.loc 1 554 0
 167 0054 4FF40062 		mov	r2, #2048
 168 0058 0348     		ldr	r0, .L6+8
 169 005a FFF7FEFF 		bl	memset
 170              	.LVL0:
 171 005e 08BD     		pop	{r3, pc}
 172              	.L7:
 173              		.align	2
 174              	.L6:
 175 0060 00000000 		.word	WiFi_Counter_Variables
 176 0064 00000000 		.word	Client_Socket_Close_Callback
 177 0068 00000000 		.word	dma_buffer
 178              		.cfi_endproc
 179              	.LFE277:
 181              		.section	.text.WiFi_Configuration,"ax",%progbits
 182              		.align	1
 183              		.global	WiFi_Configuration
 184              		.syntax unified
 185              		.thumb
 186              		.thumb_func
 187              		.fpu fpv4-sp-d16
 189              	WiFi_Configuration:
 190              	.LFB278:
 555:Middlewares/ST/STM32_SPWF0xSy/wifi_module.c **** }
 556:Middlewares/ST/STM32_SPWF0xSy/wifi_module.c **** 
ARM GAS  D:\cygwin64\tmp\cckuROSo.s 			page 14


 557:Middlewares/ST/STM32_SPWF0xSy/wifi_module.c **** /**
 558:Middlewares/ST/STM32_SPWF0xSy/wifi_module.c **** * @brief  WiFi_Configuration
 559:Middlewares/ST/STM32_SPWF0xSy/wifi_module.c **** *         Default Wifi configuration parameters
 560:Middlewares/ST/STM32_SPWF0xSy/wifi_module.c **** * @param  None
 561:Middlewares/ST/STM32_SPWF0xSy/wifi_module.c **** * @retval None
 562:Middlewares/ST/STM32_SPWF0xSy/wifi_module.c **** */
 563:Middlewares/ST/STM32_SPWF0xSy/wifi_module.c **** void WiFi_Configuration()
 564:Middlewares/ST/STM32_SPWF0xSy/wifi_module.c **** {
 191              		.loc 1 564 0
 192              		.cfi_startproc
 193              		@ args = 0, pretend = 0, frame = 0
 194              		@ frame_needed = 0, uses_anonymous_args = 0
 195              		@ link register save eliminated.
 565:Middlewares/ST/STM32_SPWF0xSy/wifi_module.c **** 
 566:Middlewares/ST/STM32_SPWF0xSy/wifi_module.c ****   /* Set the network privacy mode 
 567:Middlewares/ST/STM32_SPWF0xSy/wifi_module.c ****     (0=none, 1=WEP, 2=WPA-Personal (TKIP/AES) or WPA2-Personal (TKIP/AES)) */  
 568:Middlewares/ST/STM32_SPWF0xSy/wifi_module.c ****   WiFi_Config_Variables.wifi_mode               =  WiFi_STA_MODE;
 196              		.loc 1 568 0
 197 0000 104B     		ldr	r3, .L9
 198 0002 0122     		movs	r2, #1
 199 0004 1A75     		strb	r2, [r3, #20]
 569:Middlewares/ST/STM32_SPWF0xSy/wifi_module.c ****   WiFi_Config_Variables.wifi_priv_mode          =  WPA_Personal;
 200              		.loc 1 569 0
 201 0006 0221     		movs	r1, #2
 202 0008 83F82010 		strb	r1, [r3, #32]
 570:Middlewares/ST/STM32_SPWF0xSy/wifi_module.c ****   WiFi_Config_Variables.wifi_ssid               =  "SPWF0x" ;
 203              		.loc 1 570 0
 204 000c 0E49     		ldr	r1, .L9+4
 205 000e 5960     		str	r1, [r3, #4]
 571:Middlewares/ST/STM32_SPWF0xSy/wifi_module.c ****   WiFi_Config_Variables.Wifi_Sec_key            =  "12341234";
 206              		.loc 1 571 0
 207 0010 0E49     		ldr	r1, .L9+8
 208 0012 D960     		str	r1, [r3, #12]
 572:Middlewares/ST/STM32_SPWF0xSy/wifi_module.c ****   
 573:Middlewares/ST/STM32_SPWF0xSy/wifi_module.c ****    /*Power Management Settings*/
 574:Middlewares/ST/STM32_SPWF0xSy/wifi_module.c ****   WiFi_Config_Variables.sleep_enabled           = 0;//0=disabled, 1=enabled
 209              		.loc 1 574 0
 210 0014 93F82210 		ldrb	r1, [r3, #34]	@ zero_extendqisi2
 211 0018 6FF30001 		bfc	r1, #0, #1
 212 001c 83F82210 		strb	r1, [r3, #34]
 575:Middlewares/ST/STM32_SPWF0xSy/wifi_module.c ****   WiFi_Config_Variables.standby_enabled         = 1;
 213              		.loc 1 575 0
 214 0020 93F82910 		ldrb	r1, [r3, #41]	@ zero_extendqisi2
 215 0024 1143     		orrs	r1, r1, r2
 216 0026 83F82910 		strb	r1, [r3, #41]
 576:Middlewares/ST/STM32_SPWF0xSy/wifi_module.c ****   WiFi_Config_Variables.standby_time            = 10;//in seconds
 217              		.loc 1 576 0
 218 002a 0A21     		movs	r1, #10
 219 002c 5975     		strb	r1, [r3, #21]
 577:Middlewares/ST/STM32_SPWF0xSy/wifi_module.c ****   WiFi_Config_Variables.wifi_powersave          = 1;//0=Active, 1=PS Mode, 2=Fast-PS Mode
 220              		.loc 1 577 0
 221 002e 83F82120 		strb	r2, [r3, #33]
 578:Middlewares/ST/STM32_SPWF0xSy/wifi_module.c ****   WiFi_Config_Variables.wifi_operational_mode   = 11;//11= Doze mode, 12= Quiescent mode
 222              		.loc 1 578 0
 223 0032 0B21     		movs	r1, #11
 224 0034 83F83010 		strb	r1, [r3, #48]
 579:Middlewares/ST/STM32_SPWF0xSy/wifi_module.c ****   WiFi_Config_Variables.wifi_listen_interval    = 0; //Wakeup every n beacon
ARM GAS  D:\cygwin64\tmp\cckuROSo.s 			page 15


 225              		.loc 1 579 0
 226 0038 0021     		movs	r1, #0
 227 003a 83F82A10 		strb	r1, [r3, #42]
 580:Middlewares/ST/STM32_SPWF0xSy/wifi_module.c ****   WiFi_Config_Variables.wifi_beacon_wakeup      = 1;         
 228              		.loc 1 580 0
 229 003e 83F82820 		strb	r2, [r3, #40]
 230 0042 7047     		bx	lr
 231              	.L10:
 232              		.align	2
 233              	.L9:
 234 0044 00000000 		.word	WiFi_Config_Variables
 235 0048 00000000 		.word	.LC0
 236 004c 08000000 		.word	.LC1
 237              		.cfi_endproc
 238              	.LFE278:
 240              		.section	.text.wifi_reset,"ax",%progbits
 241              		.align	1
 242              		.global	wifi_reset
 243              		.syntax unified
 244              		.thumb
 245              		.thumb_func
 246              		.fpu fpv4-sp-d16
 248              	wifi_reset:
 249              	.LFB279:
 581:Middlewares/ST/STM32_SPWF0xSy/wifi_module.c **** }
 582:Middlewares/ST/STM32_SPWF0xSy/wifi_module.c **** 
 583:Middlewares/ST/STM32_SPWF0xSy/wifi_module.c **** /**
 584:Middlewares/ST/STM32_SPWF0xSy/wifi_module.c **** * @brief  wifi_reset
 585:Middlewares/ST/STM32_SPWF0xSy/wifi_module.c **** *         Reset WiFi module using PC12 gpio pin
 586:Middlewares/ST/STM32_SPWF0xSy/wifi_module.c **** * @param  None
 587:Middlewares/ST/STM32_SPWF0xSy/wifi_module.c **** * @retval None
 588:Middlewares/ST/STM32_SPWF0xSy/wifi_module.c **** */
 589:Middlewares/ST/STM32_SPWF0xSy/wifi_module.c **** void wifi_reset(void)
 590:Middlewares/ST/STM32_SPWF0xSy/wifi_module.c **** {
 250              		.loc 1 590 0
 251              		.cfi_startproc
 252              		@ args = 0, pretend = 0, frame = 8
 253              		@ frame_needed = 0, uses_anonymous_args = 0
 254 0000 F0B5     		push	{r4, r5, r6, r7, lr}
 255              	.LCFI1:
 256              		.cfi_def_cfa_offset 20
 257              		.cfi_offset 4, -20
 258              		.cfi_offset 5, -16
 259              		.cfi_offset 6, -12
 260              		.cfi_offset 7, -8
 261              		.cfi_offset 14, -4
 262 0002 83B0     		sub	sp, sp, #12
 263              	.LCFI2:
 264              		.cfi_def_cfa_offset 32
 265              	.LBB86:
 591:Middlewares/ST/STM32_SPWF0xSy/wifi_module.c ****   RESET_WAKEUP_GPIO_CLK_ENABLE();
 266              		.loc 1 591 0
 267 0004 0026     		movs	r6, #0
 268 0006 0096     		str	r6, [sp]
 269 0008 214B     		ldr	r3, .L15
 270 000a 1A6B     		ldr	r2, [r3, #48]
 271 000c 42F00402 		orr	r2, r2, #4
ARM GAS  D:\cygwin64\tmp\cckuROSo.s 			page 16


 272 0010 1A63     		str	r2, [r3, #48]
 273 0012 1A6B     		ldr	r2, [r3, #48]
 274 0014 02F00402 		and	r2, r2, #4
 275 0018 0092     		str	r2, [sp]
 276 001a 009A     		ldr	r2, [sp]
 277              	.LBE86:
 278              	.LBB87:
 592:Middlewares/ST/STM32_SPWF0xSy/wifi_module.c ****   __GPIOA_CLK_ENABLE();
 279              		.loc 1 592 0
 280 001c 0196     		str	r6, [sp, #4]
 281 001e 1A6B     		ldr	r2, [r3, #48]
 282 0020 42F00102 		orr	r2, r2, #1
 283 0024 1A63     		str	r2, [r3, #48]
 284 0026 1B6B     		ldr	r3, [r3, #48]
 285 0028 03F00103 		and	r3, r3, #1
 286 002c 0193     		str	r3, [sp, #4]
 287 002e 019B     		ldr	r3, [sp, #4]
 288              	.LBE87:
 593:Middlewares/ST/STM32_SPWF0xSy/wifi_module.c **** 
 594:Middlewares/ST/STM32_SPWF0xSy/wifi_module.c ****   wifi_instances.GPIO_InitStruct.Pin       = WiFi_RESET_GPIO_PIN;
 289              		.loc 1 594 0
 290 0030 1849     		ldr	r1, .L15+4
 291 0032 4FF48055 		mov	r5, #4096
 292 0036 0D63     		str	r5, [r1, #48]
 595:Middlewares/ST/STM32_SPWF0xSy/wifi_module.c ****   wifi_instances.GPIO_InitStruct.Mode      = GPIO_MODE_OUTPUT_PP;
 293              		.loc 1 595 0
 294 0038 0127     		movs	r7, #1
 295 003a 4F63     		str	r7, [r1, #52]
 596:Middlewares/ST/STM32_SPWF0xSy/wifi_module.c ****   wifi_instances.GPIO_InitStruct.Pull      = GPIO_PULLUP;
 296              		.loc 1 596 0
 297 003c 8F63     		str	r7, [r1, #56]
 597:Middlewares/ST/STM32_SPWF0xSy/wifi_module.c ****   wifi_instances.GPIO_InitStruct.Speed     = GPIO_SPEED_HIGH;
 298              		.loc 1 597 0
 299 003e 0323     		movs	r3, #3
 300 0040 CB63     		str	r3, [r1, #60]
 598:Middlewares/ST/STM32_SPWF0xSy/wifi_module.c **** 
 599:Middlewares/ST/STM32_SPWF0xSy/wifi_module.c ****   HAL_GPIO_Init(WiFi_RESET_GPIO_PORT, &wifi_instances.GPIO_InitStruct);
 301              		.loc 1 599 0
 302 0042 154C     		ldr	r4, .L15+8
 303 0044 3031     		adds	r1, r1, #48
 304 0046 2046     		mov	r0, r4
 305 0048 FFF7FEFF 		bl	HAL_GPIO_Init
 306              	.LVL1:
 600:Middlewares/ST/STM32_SPWF0xSy/wifi_module.c **** 
 601:Middlewares/ST/STM32_SPWF0xSy/wifi_module.c **** //  IO_status_flag.WiFi_WIND_State.WiFiHWStarted = WIFI_FALSE;
 602:Middlewares/ST/STM32_SPWF0xSy/wifi_module.c ****   wifi_connected = 0; //reset wifi_connected to get user callback
 307              		.loc 1 602 0
 308 004c 134B     		ldr	r3, .L15+12
 309 004e 1E70     		strb	r6, [r3]
 603:Middlewares/ST/STM32_SPWF0xSy/wifi_module.c **** //  memset((void*)&IO_status_flag.WiFi_WIND_State,0x00,sizeof(IO_status_flag.WiFi_WIND_State)); /*r
 604:Middlewares/ST/STM32_SPWF0xSy/wifi_module.c ****   IO_status_flag.WiFi_WIND_State = Undefine_state;
 310              		.loc 1 604 0
 311 0050 FF22     		movs	r2, #255
 312 0052 134B     		ldr	r3, .L15+16
 313 0054 9A75     		strb	r2, [r3, #22]
 605:Middlewares/ST/STM32_SPWF0xSy/wifi_module.c **** 
 606:Middlewares/ST/STM32_SPWF0xSy/wifi_module.c ****   /* ===   RESET PIN - PC12   ===*/
ARM GAS  D:\cygwin64\tmp\cckuROSo.s 			page 17


 607:Middlewares/ST/STM32_SPWF0xSy/wifi_module.c ****   HAL_GPIO_WritePin(WiFi_RESET_GPIO_PORT, WiFi_RESET_GPIO_PIN, GPIO_PIN_RESET);
 314              		.loc 1 607 0
 315 0056 3246     		mov	r2, r6
 316 0058 2946     		mov	r1, r5
 317 005a 2046     		mov	r0, r4
 318 005c FFF7FEFF 		bl	HAL_GPIO_WritePin
 319              	.LVL2:
 608:Middlewares/ST/STM32_SPWF0xSy/wifi_module.c ****   HAL_Delay(200);
 320              		.loc 1 608 0
 321 0060 C820     		movs	r0, #200
 322 0062 FFF7FEFF 		bl	HAL_Delay
 323              	.LVL3:
 609:Middlewares/ST/STM32_SPWF0xSy/wifi_module.c ****   /* ===   SET PIN - PC12   ===*/
 610:Middlewares/ST/STM32_SPWF0xSy/wifi_module.c ****   HAL_GPIO_WritePin(WiFi_RESET_GPIO_PORT, WiFi_RESET_GPIO_PIN, GPIO_PIN_SET);
 324              		.loc 1 610 0
 325 0066 3A46     		mov	r2, r7
 326 0068 2946     		mov	r1, r5
 327 006a 2046     		mov	r0, r4
 328 006c FFF7FEFF 		bl	HAL_GPIO_WritePin
 329              	.LVL4:
 611:Middlewares/ST/STM32_SPWF0xSy/wifi_module.c ****   HAL_Delay(50);
 330              		.loc 1 611 0
 331 0070 3220     		movs	r0, #50
 332 0072 FFF7FEFF 		bl	HAL_Delay
 333              	.LVL5:
 612:Middlewares/ST/STM32_SPWF0xSy/wifi_module.c ****   HAL_GPIO_DeInit(WiFi_RESET_GPIO_PORT, WiFi_RESET_GPIO_PIN);
 334              		.loc 1 612 0
 335 0076 2946     		mov	r1, r5
 336 0078 2046     		mov	r0, r4
 337 007a FFF7FEFF 		bl	HAL_GPIO_DeInit
 338              	.LVL6:
 613:Middlewares/ST/STM32_SPWF0xSy/wifi_module.c **** 
 614:Middlewares/ST/STM32_SPWF0xSy/wifi_module.c **** #ifndef WIFI_USE_VCOM
 615:Middlewares/ST/STM32_SPWF0xSy/wifi_module.c ****   while(IO_status_flag.WiFi_WIND_State != WiFiHWStarted)
 339              		.loc 1 615 0
 340 007e 00E0     		b	.L12
 341              	.L13:
 616:Middlewares/ST/STM32_SPWF0xSy/wifi_module.c ****     {
 617:Middlewares/ST/STM32_SPWF0xSy/wifi_module.c ****       __NOP(); //nothing to do
 342              		.loc 1 617 0
 343              		.syntax unified
 344              	@ 617 "Middlewares/ST/STM32_SPWF0xSy/wifi_module.c" 1
 345 0080 00BF     		nop
 346              	@ 0 "" 2
 347              		.thumb
 348              		.syntax unified
 349              	.L12:
 615:Middlewares/ST/STM32_SPWF0xSy/wifi_module.c ****     {
 350              		.loc 1 615 0
 351 0082 074B     		ldr	r3, .L15+16
 352 0084 9B7D     		ldrb	r3, [r3, #22]	@ zero_extendqisi2
 353 0086 DBB2     		uxtb	r3, r3
 354 0088 0E2B     		cmp	r3, #14
 355 008a F9D1     		bne	.L13
 618:Middlewares/ST/STM32_SPWF0xSy/wifi_module.c ****     }
 619:Middlewares/ST/STM32_SPWF0xSy/wifi_module.c **** #endif
 620:Middlewares/ST/STM32_SPWF0xSy/wifi_module.c **** }
ARM GAS  D:\cygwin64\tmp\cckuROSo.s 			page 18


 356              		.loc 1 620 0
 357 008c 03B0     		add	sp, sp, #12
 358              	.LCFI3:
 359              		.cfi_def_cfa_offset 20
 360              		@ sp needed
 361 008e F0BD     		pop	{r4, r5, r6, r7, pc}
 362              	.L16:
 363              		.align	2
 364              	.L15:
 365 0090 00380240 		.word	1073887232
 366 0094 00000000 		.word	wifi_instances
 367 0098 00080240 		.word	1073874944
 368 009c 00000000 		.word	wifi_connected
 369 00a0 00000000 		.word	IO_status_flag
 370              		.cfi_endproc
 371              	.LFE279:
 373              		.section	.text.PowerUp_WiFi_Module,"ax",%progbits
 374              		.align	1
 375              		.global	PowerUp_WiFi_Module
 376              		.syntax unified
 377              		.thumb
 378              		.thumb_func
 379              		.fpu fpv4-sp-d16
 381              	PowerUp_WiFi_Module:
 382              	.LFB280:
 621:Middlewares/ST/STM32_SPWF0xSy/wifi_module.c **** 
 622:Middlewares/ST/STM32_SPWF0xSy/wifi_module.c **** /**
 623:Middlewares/ST/STM32_SPWF0xSy/wifi_module.c **** * @brief  PowerUp_WiFi_Module
 624:Middlewares/ST/STM32_SPWF0xSy/wifi_module.c **** *         Power up Wi-Fi module,SET GPIO PA0 pin 
 625:Middlewares/ST/STM32_SPWF0xSy/wifi_module.c **** * @param  None
 626:Middlewares/ST/STM32_SPWF0xSy/wifi_module.c **** * @retval None
 627:Middlewares/ST/STM32_SPWF0xSy/wifi_module.c **** */
 628:Middlewares/ST/STM32_SPWF0xSy/wifi_module.c **** void PowerUp_WiFi_Module(void)
 629:Middlewares/ST/STM32_SPWF0xSy/wifi_module.c **** {
 383              		.loc 1 629 0
 384              		.cfi_startproc
 385              		@ args = 0, pretend = 0, frame = 0
 386              		@ frame_needed = 0, uses_anonymous_args = 0
 387 0000 08B5     		push	{r3, lr}
 388              	.LCFI4:
 389              		.cfi_def_cfa_offset 8
 390              		.cfi_offset 3, -8
 391              		.cfi_offset 14, -4
 630:Middlewares/ST/STM32_SPWF0xSy/wifi_module.c ****   /* ===   SET PIN - PC12   ===*/
 631:Middlewares/ST/STM32_SPWF0xSy/wifi_module.c ****   HAL_GPIO_WritePin(WiFi_RESET_GPIO_PORT, WiFi_RESET_GPIO_PIN, GPIO_PIN_SET);
 392              		.loc 1 631 0
 393 0002 0122     		movs	r2, #1
 394 0004 4FF48051 		mov	r1, #4096
 395 0008 0148     		ldr	r0, .L19
 396 000a FFF7FEFF 		bl	HAL_GPIO_WritePin
 397              	.LVL7:
 398 000e 08BD     		pop	{r3, pc}
 399              	.L20:
 400              		.align	2
 401              	.L19:
 402 0010 00080240 		.word	1073874944
 403              		.cfi_endproc
ARM GAS  D:\cygwin64\tmp\cckuROSo.s 			page 19


 404              	.LFE280:
 406              		.section	.text.Receive_Data,"ax",%progbits
 407              		.align	1
 408              		.global	Receive_Data
 409              		.syntax unified
 410              		.thumb
 411              		.thumb_func
 412              		.fpu fpv4-sp-d16
 414              	Receive_Data:
 415              	.LFB281:
 632:Middlewares/ST/STM32_SPWF0xSy/wifi_module.c **** }
 633:Middlewares/ST/STM32_SPWF0xSy/wifi_module.c **** 
 634:Middlewares/ST/STM32_SPWF0xSy/wifi_module.c **** /**
 635:Middlewares/ST/STM32_SPWF0xSy/wifi_module.c **** * @brief  Receive_Data
 636:Middlewares/ST/STM32_SPWF0xSy/wifi_module.c **** *         Receive data from UART port
 637:Middlewares/ST/STM32_SPWF0xSy/wifi_module.c **** * @param  None
 638:Middlewares/ST/STM32_SPWF0xSy/wifi_module.c **** * @retval None
 639:Middlewares/ST/STM32_SPWF0xSy/wifi_module.c **** */
 640:Middlewares/ST/STM32_SPWF0xSy/wifi_module.c **** void Receive_Data(void)
 641:Middlewares/ST/STM32_SPWF0xSy/wifi_module.c **** {
 416              		.loc 1 641 0
 417              		.cfi_startproc
 418              		@ args = 0, pretend = 0, frame = 0
 419              		@ frame_needed = 0, uses_anonymous_args = 0
 420 0000 08B5     		push	{r3, lr}
 421              	.LCFI5:
 422              		.cfi_def_cfa_offset 8
 423              		.cfi_offset 3, -8
 424              		.cfi_offset 14, -4
 642:Middlewares/ST/STM32_SPWF0xSy/wifi_module.c ****   HAL_GPIO_WritePin(WiFi_USART_RTS_GPIO_PORT, WiFi_USART_RTS_PIN, GPIO_PIN_RESET);//Assert RTS
 425              		.loc 1 642 0
 426 0002 0022     		movs	r2, #0
 427 0004 4FF48051 		mov	r1, #4096
 428 0008 0748     		ldr	r0, .L24
 429 000a FFF7FEFF 		bl	HAL_GPIO_WritePin
 430              	.LVL8:
 643:Middlewares/ST/STM32_SPWF0xSy/wifi_module.c ****   if(HAL_UART_Receive_IT(&UartWiFiHandle, (uint8_t *)WiFi_Counter_Variables.uart_byte, 1) !=HAL_OK)
 431              		.loc 1 643 0
 432 000e 0122     		movs	r2, #1
 433 0010 0649     		ldr	r1, .L24+4
 434 0012 0748     		ldr	r0, .L24+8
 435 0014 FFF7FEFF 		bl	HAL_UART_Receive_IT
 436              	.LVL9:
 437 0018 20B9     		cbnz	r0, .L21
 644:Middlewares/ST/STM32_SPWF0xSy/wifi_module.c ****     {
 645:Middlewares/ST/STM32_SPWF0xSy/wifi_module.c ****       #if DEBUG_PRINT
 646:Middlewares/ST/STM32_SPWF0xSy/wifi_module.c ****       printf("HAL_UARTx_Receive_IT Error");
 647:Middlewares/ST/STM32_SPWF0xSy/wifi_module.c ****       #endif
 648:Middlewares/ST/STM32_SPWF0xSy/wifi_module.c ****     }
 649:Middlewares/ST/STM32_SPWF0xSy/wifi_module.c ****   else 
 650:Middlewares/ST/STM32_SPWF0xSy/wifi_module.c ****     {
 651:Middlewares/ST/STM32_SPWF0xSy/wifi_module.c ****       WiFi_Control_Variables.Uartx_Rx_Processing = WIFI_TRUE;
 438              		.loc 1 651 0
 439 001a 064A     		ldr	r2, .L24+12
 440 001c 5378     		ldrb	r3, [r2, #1]	@ zero_extendqisi2
 441 001e 43F01003 		orr	r3, r3, #16
 442 0022 5370     		strb	r3, [r2, #1]
ARM GAS  D:\cygwin64\tmp\cckuROSo.s 			page 20


 443              	.L21:
 444 0024 08BD     		pop	{r3, pc}
 445              	.L25:
 446 0026 00BF     		.align	2
 447              	.L24:
 448 0028 00000240 		.word	1073872896
 449 002c 4E000000 		.word	WiFi_Counter_Variables+78
 450 0030 00000000 		.word	UartWiFiHandle
 451 0034 00000000 		.word	WiFi_Control_Variables
 452              		.cfi_endproc
 453              	.LFE281:
 455              		.section	.text.Receive_DMA_Uart_Data,"ax",%progbits
 456              		.align	1
 457              		.global	Receive_DMA_Uart_Data
 458              		.syntax unified
 459              		.thumb
 460              		.thumb_func
 461              		.fpu fpv4-sp-d16
 463              	Receive_DMA_Uart_Data:
 464              	.LFB282:
 652:Middlewares/ST/STM32_SPWF0xSy/wifi_module.c ****     }
 653:Middlewares/ST/STM32_SPWF0xSy/wifi_module.c **** }
 654:Middlewares/ST/STM32_SPWF0xSy/wifi_module.c **** 
 655:Middlewares/ST/STM32_SPWF0xSy/wifi_module.c **** 
 656:Middlewares/ST/STM32_SPWF0xSy/wifi_module.c **** /**
 657:Middlewares/ST/STM32_SPWF0xSy/wifi_module.c **** * @brief  Receive_DMA_Uart_Data
 658:Middlewares/ST/STM32_SPWF0xSy/wifi_module.c **** *         Receive data from DMA with UART
 659:Middlewares/ST/STM32_SPWF0xSy/wifi_module.c **** * @param  None
 660:Middlewares/ST/STM32_SPWF0xSy/wifi_module.c **** * @retval None
 661:Middlewares/ST/STM32_SPWF0xSy/wifi_module.c **** */
 662:Middlewares/ST/STM32_SPWF0xSy/wifi_module.c **** void Receive_DMA_Uart_Data(void)
 663:Middlewares/ST/STM32_SPWF0xSy/wifi_module.c **** {
 465              		.loc 1 663 0
 466              		.cfi_startproc
 467              		@ args = 0, pretend = 0, frame = 0
 468              		@ frame_needed = 0, uses_anonymous_args = 0
 469 0000 08B5     		push	{r3, lr}
 470              	.LCFI6:
 471              		.cfi_def_cfa_offset 8
 472              		.cfi_offset 3, -8
 473              		.cfi_offset 14, -4
 664:Middlewares/ST/STM32_SPWF0xSy/wifi_module.c ****   if(HAL_UART_Receive_DMA(&UartWiFiHandle, (uint8_t *)dma_buffer, DMA_BUFFER_SIZE) !=HAL_OK)
 474              		.loc 1 664 0
 475 0002 4FF40062 		mov	r2, #2048
 476 0006 0549     		ldr	r1, .L29
 477 0008 0548     		ldr	r0, .L29+4
 478 000a FFF7FEFF 		bl	HAL_UART_Receive_DMA
 479              	.LVL10:
 480 000e 20B9     		cbnz	r0, .L26
 665:Middlewares/ST/STM32_SPWF0xSy/wifi_module.c ****     {
 666:Middlewares/ST/STM32_SPWF0xSy/wifi_module.c ****       #if DEBUG_PRINT
 667:Middlewares/ST/STM32_SPWF0xSy/wifi_module.c ****       printf("HAL_UARTx_Receive_IT Error");
 668:Middlewares/ST/STM32_SPWF0xSy/wifi_module.c ****       #endif
 669:Middlewares/ST/STM32_SPWF0xSy/wifi_module.c ****     }
 670:Middlewares/ST/STM32_SPWF0xSy/wifi_module.c ****   else 
 671:Middlewares/ST/STM32_SPWF0xSy/wifi_module.c ****     {
 672:Middlewares/ST/STM32_SPWF0xSy/wifi_module.c ****       WiFi_Control_Variables.Uartx_Rx_Processing = WIFI_TRUE;
ARM GAS  D:\cygwin64\tmp\cckuROSo.s 			page 21


 481              		.loc 1 672 0
 482 0010 044A     		ldr	r2, .L29+8
 483 0012 5378     		ldrb	r3, [r2, #1]	@ zero_extendqisi2
 484 0014 43F01003 		orr	r3, r3, #16
 485 0018 5370     		strb	r3, [r2, #1]
 486              	.L26:
 487 001a 08BD     		pop	{r3, pc}
 488              	.L30:
 489              		.align	2
 490              	.L29:
 491 001c 00000000 		.word	dma_buffer
 492 0020 00000000 		.word	UartWiFiHandle
 493 0024 00000000 		.word	WiFi_Control_Variables
 494              		.cfi_endproc
 495              	.LFE282:
 497              		.section	.text.Start_Timer,"ax",%progbits
 498              		.align	1
 499              		.global	Start_Timer
 500              		.syntax unified
 501              		.thumb
 502              		.thumb_func
 503              		.fpu fpv4-sp-d16
 505              	Start_Timer:
 506              	.LFB284:
 673:Middlewares/ST/STM32_SPWF0xSy/wifi_module.c ****     }
 674:Middlewares/ST/STM32_SPWF0xSy/wifi_module.c **** }
 675:Middlewares/ST/STM32_SPWF0xSy/wifi_module.c **** 
 676:Middlewares/ST/STM32_SPWF0xSy/wifi_module.c **** /**
 677:Middlewares/ST/STM32_SPWF0xSy/wifi_module.c **** * @brief  Period elapsed callback in non blocking mode
 678:Middlewares/ST/STM32_SPWF0xSy/wifi_module.c **** *         This timer is used for calling back User registered functions with information
 679:Middlewares/ST/STM32_SPWF0xSy/wifi_module.c **** * @param  htim : TIM handle
 680:Middlewares/ST/STM32_SPWF0xSy/wifi_module.c **** * @retval None
 681:Middlewares/ST/STM32_SPWF0xSy/wifi_module.c **** */
 682:Middlewares/ST/STM32_SPWF0xSy/wifi_module.c **** void Wifi_TIM_Handler(TIM_HandleTypeDef *htim)
 683:Middlewares/ST/STM32_SPWF0xSy/wifi_module.c **** {
 684:Middlewares/ST/STM32_SPWF0xSy/wifi_module.c ****   /**********************************************************************
 685:Middlewares/ST/STM32_SPWF0xSy/wifi_module.c ****   *                                                                     *
 686:Middlewares/ST/STM32_SPWF0xSy/wifi_module.c ****   *       Be careful not to make a blocking                             *
 687:Middlewares/ST/STM32_SPWF0xSy/wifi_module.c ****   *       call from this function, see                                  *
 688:Middlewares/ST/STM32_SPWF0xSy/wifi_module.c ****   *       example Socket_Read() and Socket_Close()                      *
 689:Middlewares/ST/STM32_SPWF0xSy/wifi_module.c ****   *                                                                     *
 690:Middlewares/ST/STM32_SPWF0xSy/wifi_module.c ****   **********************************************************************/
 691:Middlewares/ST/STM32_SPWF0xSy/wifi_module.c ****   WiFi_Status_t status = WiFi_MODULE_SUCCESS;
 692:Middlewares/ST/STM32_SPWF0xSy/wifi_module.c ****   HAL_StatusTypeDef HAL_status = HAL_OK;
 693:Middlewares/ST/STM32_SPWF0xSy/wifi_module.c **** 
 694:Middlewares/ST/STM32_SPWF0xSy/wifi_module.c ****   if(WiFi_Control_Variables.stop_event_dequeue == WIFI_FALSE)
 695:Middlewares/ST/STM32_SPWF0xSy/wifi_module.c ****   {
 696:Middlewares/ST/STM32_SPWF0xSy/wifi_module.c ****     __disable_irq();
 697:Middlewares/ST/STM32_SPWF0xSy/wifi_module.c ****     wifi_instances.DeQed_wifi_event = pop_eventbuffer_queue(&wifi_instances.event_buff);
 698:Middlewares/ST/STM32_SPWF0xSy/wifi_module.c ****     __enable_irq();
 699:Middlewares/ST/STM32_SPWF0xSy/wifi_module.c **** 
 700:Middlewares/ST/STM32_SPWF0xSy/wifi_module.c ****     if(wifi_instances.DeQed_wifi_event!=NULL)
 701:Middlewares/ST/STM32_SPWF0xSy/wifi_module.c ****     {
 702:Middlewares/ST/STM32_SPWF0xSy/wifi_module.c ****       switch(wifi_instances.DeQed_wifi_event->event)
 703:Middlewares/ST/STM32_SPWF0xSy/wifi_module.c ****       {
 704:Middlewares/ST/STM32_SPWF0xSy/wifi_module.c ****         case WIFI_WIND_EVENT:
 705:Middlewares/ST/STM32_SPWF0xSy/wifi_module.c ****           Process_DeQed_Wind_Indication(wifi_instances.DeQed_wifi_event);
ARM GAS  D:\cygwin64\tmp\cckuROSo.s 			page 22


 706:Middlewares/ST/STM32_SPWF0xSy/wifi_module.c ****           break;
 707:Middlewares/ST/STM32_SPWF0xSy/wifi_module.c **** 
 708:Middlewares/ST/STM32_SPWF0xSy/wifi_module.c ****         case WIFI_WEBSOCK_ID_EVENT:                  
 709:Middlewares/ST/STM32_SPWF0xSy/wifi_module.c ****           WiFi_Counter_Variables.Socket_Open_ID = wifi_instances.DeQed_wifi_event->socket_id;
 710:Middlewares/ST/STM32_SPWF0xSy/wifi_module.c ****           open_web_socket[wifi_instances.DeQed_wifi_event->socket_id]  = WIFI_TRUE;
 711:Middlewares/ST/STM32_SPWF0xSy/wifi_module.c ****           IO_status_flag.AT_event_processing = WIFI_NO_EVENT;
 712:Middlewares/ST/STM32_SPWF0xSy/wifi_module.c ****           #if defined(CONSOLE_UART_ENABLED)
 713:Middlewares/ST/STM32_SPWF0xSy/wifi_module.c ****             IO_status_flag.AT_Response_Received = WIFI_TRUE;
 714:Middlewares/ST/STM32_SPWF0xSy/wifi_module.c ****             WiFi_Counter_Variables.AT_RESPONSE = WiFi_MODULE_SUCCESS;
 715:Middlewares/ST/STM32_SPWF0xSy/wifi_module.c ****           #endif
 716:Middlewares/ST/STM32_SPWF0xSy/wifi_module.c ****           break;
 717:Middlewares/ST/STM32_SPWF0xSy/wifi_module.c ****                 
 718:Middlewares/ST/STM32_SPWF0xSy/wifi_module.c ****         case WIFI_SOCK_ID_EVENT:
 719:Middlewares/ST/STM32_SPWF0xSy/wifi_module.c ****           /*check ID and update SocketID array*/
 720:Middlewares/ST/STM32_SPWF0xSy/wifi_module.c ****           if(WiFi_Counter_Variables.no_of_open_client_sockets >= 8)  //Max number of clients is 8
 721:Middlewares/ST/STM32_SPWF0xSy/wifi_module.c ****           {
 722:Middlewares/ST/STM32_SPWF0xSy/wifi_module.c ****             IO_status_flag.AT_Response_Received = WIFI_TRUE;
 723:Middlewares/ST/STM32_SPWF0xSy/wifi_module.c ****             WiFi_Counter_Variables.AT_RESPONSE = WiFi_NOT_SUPPORTED;     
 724:Middlewares/ST/STM32_SPWF0xSy/wifi_module.c ****             break;
 725:Middlewares/ST/STM32_SPWF0xSy/wifi_module.c ****           }
 726:Middlewares/ST/STM32_SPWF0xSy/wifi_module.c ****           WiFi_Counter_Variables.no_of_open_client_sockets++;
 727:Middlewares/ST/STM32_SPWF0xSy/wifi_module.c ****           open_sockets[wifi_instances.DeQed_wifi_event->socket_id]  = WIFI_TRUE;
 728:Middlewares/ST/STM32_SPWF0xSy/wifi_module.c ****           WiFi_Counter_Variables.Socket_Open_ID = wifi_instances.DeQed_wifi_event->socket_id;
 729:Middlewares/ST/STM32_SPWF0xSy/wifi_module.c ****           IO_status_flag.AT_event_processing = WIFI_NO_EVENT;
 730:Middlewares/ST/STM32_SPWF0xSy/wifi_module.c ****           #if defined(CONSOLE_UART_ENABLED)
 731:Middlewares/ST/STM32_SPWF0xSy/wifi_module.c ****             IO_status_flag.AT_Response_Received = WIFI_TRUE;
 732:Middlewares/ST/STM32_SPWF0xSy/wifi_module.c ****             WiFi_Counter_Variables.AT_RESPONSE = WiFi_MODULE_SUCCESS;
 733:Middlewares/ST/STM32_SPWF0xSy/wifi_module.c ****           #endif
 734:Middlewares/ST/STM32_SPWF0xSy/wifi_module.c ****           break;
 735:Middlewares/ST/STM32_SPWF0xSy/wifi_module.c ****                           
 736:Middlewares/ST/STM32_SPWF0xSy/wifi_module.c ****         case WIFI_SOCK_SERVER_ID_EVENT:
 737:Middlewares/ST/STM32_SPWF0xSy/wifi_module.c ****           /*check ID and update ServerSocketID array*/
 738:Middlewares/ST/STM32_SPWF0xSy/wifi_module.c ****           WiFi_Control_Variables.enable_timeout_timer = WIFI_FALSE;
 739:Middlewares/ST/STM32_SPWF0xSy/wifi_module.c ****           WiFi_Counter_Variables.timeout_tick = 0;
 740:Middlewares/ST/STM32_SPWF0xSy/wifi_module.c ****           if(WiFi_Counter_Variables.no_of_open_server_sockets >= 4)  //Max number of server socket 
 741:Middlewares/ST/STM32_SPWF0xSy/wifi_module.c ****           {
 742:Middlewares/ST/STM32_SPWF0xSy/wifi_module.c ****             IO_status_flag.AT_Response_Received = WIFI_TRUE;
 743:Middlewares/ST/STM32_SPWF0xSy/wifi_module.c ****             WiFi_Counter_Variables.AT_RESPONSE = WiFi_NOT_SUPPORTED;     
 744:Middlewares/ST/STM32_SPWF0xSy/wifi_module.c ****             break;
 745:Middlewares/ST/STM32_SPWF0xSy/wifi_module.c ****           }
 746:Middlewares/ST/STM32_SPWF0xSy/wifi_module.c ****           WiFi_Counter_Variables.no_of_open_server_sockets++;
 747:Middlewares/ST/STM32_SPWF0xSy/wifi_module.c ****           open_server_sockets[wifi_instances.DeQed_wifi_event->socket_id]  = WIFI_TRUE;
 748:Middlewares/ST/STM32_SPWF0xSy/wifi_module.c ****           WiFi_Counter_Variables.Server_Socket_Open_ID = wifi_instances.DeQed_wifi_event->socket_id
 749:Middlewares/ST/STM32_SPWF0xSy/wifi_module.c ****           IO_status_flag.AT_event_processing = WIFI_NO_EVENT;
 750:Middlewares/ST/STM32_SPWF0xSy/wifi_module.c ****           #if defined(CONSOLE_UART_ENABLED)
 751:Middlewares/ST/STM32_SPWF0xSy/wifi_module.c ****             IO_status_flag.AT_Response_Received = WIFI_TRUE;
 752:Middlewares/ST/STM32_SPWF0xSy/wifi_module.c ****             WiFi_Counter_Variables.AT_RESPONSE = WiFi_MODULE_SUCCESS;
 753:Middlewares/ST/STM32_SPWF0xSy/wifi_module.c ****           #endif
 754:Middlewares/ST/STM32_SPWF0xSy/wifi_module.c ****           break;
 755:Middlewares/ST/STM32_SPWF0xSy/wifi_module.c **** 
 756:Middlewares/ST/STM32_SPWF0xSy/wifi_module.c ****         #ifdef SPWF04
 757:Middlewares/ST/STM32_SPWF0xSy/wifi_module.c ****           case WIFI_TFTP_EVENT:
 758:Middlewares/ST/STM32_SPWF0xSy/wifi_module.c ****             Reset_AT_CMD_Buffer();
 759:Middlewares/ST/STM32_SPWF0xSy/wifi_module.c ****             #if defined(CONSOLE_UART_ENABLED)
 760:Middlewares/ST/STM32_SPWF0xSy/wifi_module.c ****               if(WiFi_Counter_Variables.http_ind==1) //by default port number is 69, user port numb
 761:Middlewares/ST/STM32_SPWF0xSy/wifi_module.c ****               {
 762:Middlewares/ST/STM32_SPWF0xSy/wifi_module.c ****                 if(WiFi_Counter_Variables.curr_port_number!=0)
ARM GAS  D:\cygwin64\tmp\cckuROSo.s 			page 23


 763:Middlewares/ST/STM32_SPWF0xSy/wifi_module.c ****                   sprintf((char*)WiFi_AT_Cmd_Buff,AT_TFTPPUT_REQUEST,WiFi_Counter_Variables.curr_ho
 764:Middlewares/ST/STM32_SPWF0xSy/wifi_module.c ****                 else 
 765:Middlewares/ST/STM32_SPWF0xSy/wifi_module.c ****                   sprintf((char*)WiFi_AT_Cmd_Buff,AT_TFTPPUT_REQUEST,WiFi_Counter_Variables.curr_ho
 766:Middlewares/ST/STM32_SPWF0xSy/wifi_module.c ****               }
 767:Middlewares/ST/STM32_SPWF0xSy/wifi_module.c ****               else if(WiFi_Counter_Variables.http_ind==0) 
 768:Middlewares/ST/STM32_SPWF0xSy/wifi_module.c ****               {
 769:Middlewares/ST/STM32_SPWF0xSy/wifi_module.c ****                 if(WiFi_Counter_Variables.curr_port_number!=0)
 770:Middlewares/ST/STM32_SPWF0xSy/wifi_module.c ****                   sprintf((char*)WiFi_AT_Cmd_Buff,AT_TFTPGET_REQUEST,WiFi_Counter_Variables.curr_ho
 771:Middlewares/ST/STM32_SPWF0xSy/wifi_module.c ****                 else 
 772:Middlewares/ST/STM32_SPWF0xSy/wifi_module.c ****                   sprintf((char*)WiFi_AT_Cmd_Buff,AT_TFTPGET_REQUEST,WiFi_Counter_Variables.curr_ho
 773:Middlewares/ST/STM32_SPWF0xSy/wifi_module.c ****               }
 774:Middlewares/ST/STM32_SPWF0xSy/wifi_module.c **** 
 775:Middlewares/ST/STM32_SPWF0xSy/wifi_module.c ****               status = USART_Transmit_AT_Cmd(strlen((char*)WiFi_AT_Cmd_Buff));
 776:Middlewares/ST/STM32_SPWF0xSy/wifi_module.c ****             #else /*SPI Tx*/
 777:Middlewares/ST/STM32_SPWF0xSy/wifi_module.c ****               if(WiFi_Counter_Variables.http_ind==1)
 778:Middlewares/ST/STM32_SPWF0xSy/wifi_module.c ****               {
 779:Middlewares/ST/STM32_SPWF0xSy/wifi_module.c ****                 if(WiFi_Counter_Variables.curr_port_number!=0)
 780:Middlewares/ST/STM32_SPWF0xSy/wifi_module.c ****                   sprintf((char*)WiFi_AT_Cmd_Buff,"AT+S.TFTPPUT=%s,%d,%s",WiFi_Counter_Variables.cu
 781:Middlewares/ST/STM32_SPWF0xSy/wifi_module.c ****                 else
 782:Middlewares/ST/STM32_SPWF0xSy/wifi_module.c ****                   sprintf((char*)WiFi_AT_Cmd_Buff,"AT+S.TFTPPUT=%s,NULL,%s",WiFi_Counter_Variables.
 783:Middlewares/ST/STM32_SPWF0xSy/wifi_module.c ****               }
 784:Middlewares/ST/STM32_SPWF0xSy/wifi_module.c ****               else if(WiFi_Counter_Variables.http_ind==0)
 785:Middlewares/ST/STM32_SPWF0xSy/wifi_module.c ****               {
 786:Middlewares/ST/STM32_SPWF0xSy/wifi_module.c ****                 if(WiFi_Counter_Variables.curr_port_number!=0)
 787:Middlewares/ST/STM32_SPWF0xSy/wifi_module.c ****                   sprintf((char*)WiFi_AT_Cmd_Buff,"AT+S.TFTPGET=%s,%d,%s,NULL",WiFi_Counter_Variabl
 788:Middlewares/ST/STM32_SPWF0xSy/wifi_module.c ****                 else 
 789:Middlewares/ST/STM32_SPWF0xSy/wifi_module.c ****                   sprintf((char*)WiFi_AT_Cmd_Buff,"AT+S.TFTPGET=%s,NULL,%s,NULL",WiFi_Counter_Varia
 790:Middlewares/ST/STM32_SPWF0xSy/wifi_module.c ****               }
 791:Middlewares/ST/STM32_SPWF0xSy/wifi_module.c **** 
 792:Middlewares/ST/STM32_SPWF0xSy/wifi_module.c ****               run_spi_cmd((char*)WiFi_AT_Cmd_Buff, SPI_POLL);
 793:Middlewares/ST/STM32_SPWF0xSy/wifi_module.c ****               status = WiFi_MODULE_SUCCESS;//@TBD: Check return error code
 794:Middlewares/ST/STM32_SPWF0xSy/wifi_module.c ****             #endif
 795:Middlewares/ST/STM32_SPWF0xSy/wifi_module.c ****             if(status == WiFi_MODULE_SUCCESS) 
 796:Middlewares/ST/STM32_SPWF0xSy/wifi_module.c ****             {
 797:Middlewares/ST/STM32_SPWF0xSy/wifi_module.c ****               WiFi_Counter_Variables.timeout_tick = 0;
 798:Middlewares/ST/STM32_SPWF0xSy/wifi_module.c ****               WiFi_Control_Variables.enable_timeout_timer = WIFI_TRUE;
 799:Middlewares/ST/STM32_SPWF0xSy/wifi_module.c ****               WiFi_Control_Variables.stop_event_dequeue = WIFI_TRUE;
 800:Middlewares/ST/STM32_SPWF0xSy/wifi_module.c ****               WiFi_Control_Variables.Ok_terminated_data_request_pending = WIFI_TRUE;
 801:Middlewares/ST/STM32_SPWF0xSy/wifi_module.c ****               IO_status_flag.AT_event_processing = WIFI_TFTP_EVENT;
 802:Middlewares/ST/STM32_SPWF0xSy/wifi_module.c ****             }
 803:Middlewares/ST/STM32_SPWF0xSy/wifi_module.c ****             else
 804:Middlewares/ST/STM32_SPWF0xSy/wifi_module.c ****             {
 805:Middlewares/ST/STM32_SPWF0xSy/wifi_module.c ****               #if DEBUG_PRINT
 806:Middlewares/ST/STM32_SPWF0xSy/wifi_module.c ****                 printf("\r\n ERROR DURING TFTP COMMAND TRANSFER \r\n");
 807:Middlewares/ST/STM32_SPWF0xSy/wifi_module.c ****               #endif
 808:Middlewares/ST/STM32_SPWF0xSy/wifi_module.c ****               WiFi_Counter_Variables.AT_RESPONSE = WiFi_AT_CMD_RESP_ERROR;
 809:Middlewares/ST/STM32_SPWF0xSy/wifi_module.c ****               IO_status_flag.AT_Response_Received = WIFI_TRUE;
 810:Middlewares/ST/STM32_SPWF0xSy/wifi_module.c ****             }
 811:Middlewares/ST/STM32_SPWF0xSy/wifi_module.c ****             break;
 812:Middlewares/ST/STM32_SPWF0xSy/wifi_module.c ****                           
 813:Middlewares/ST/STM32_SPWF0xSy/wifi_module.c ****           case WIFI_MQTT_ID_EVENT:
 814:Middlewares/ST/STM32_SPWF0xSy/wifi_module.c ****             /* MQTT ID received */
 815:Middlewares/ST/STM32_SPWF0xSy/wifi_module.c ****             WiFi_Counter_Variables.Socket_Open_ID = wifi_instances.DeQed_wifi_event->socket_id;
 816:Middlewares/ST/STM32_SPWF0xSy/wifi_module.c ****             IO_status_flag.AT_event_processing = WIFI_NO_EVENT;
 817:Middlewares/ST/STM32_SPWF0xSy/wifi_module.c ****             IO_status_flag.AT_Response_Received = WIFI_TRUE;
 818:Middlewares/ST/STM32_SPWF0xSy/wifi_module.c ****             WiFi_Counter_Variables.AT_RESPONSE = WiFi_MODULE_SUCCESS;
 819:Middlewares/ST/STM32_SPWF0xSy/wifi_module.c ****             break;
ARM GAS  D:\cygwin64\tmp\cckuROSo.s 			page 24


 820:Middlewares/ST/STM32_SPWF0xSy/wifi_module.c **** 
 821:Middlewares/ST/STM32_SPWF0xSy/wifi_module.c ****           case WIFI_MQTT_EVENT:
 822:Middlewares/ST/STM32_SPWF0xSy/wifi_module.c ****             Reset_AT_CMD_Buffer();
 823:Middlewares/ST/STM32_SPWF0xSy/wifi_module.c ****             if(mqtt_type == CONNECT || mqtt_type == SUBSCRIBE || mqtt_type == UNSUBSCRIBE || mqtt_t
 824:Middlewares/ST/STM32_SPWF0xSy/wifi_module.c ****             {
 825:Middlewares/ST/STM32_SPWF0xSy/wifi_module.c ****               if(mqtt_type == CONNECT)
 826:Middlewares/ST/STM32_SPWF0xSy/wifi_module.c ****               {
 827:Middlewares/ST/STM32_SPWF0xSy/wifi_module.c ****                 #ifdef CONSOLE_UART_ENABLED
 828:Middlewares/ST/STM32_SPWF0xSy/wifi_module.c ****                   sprintf((char*)WiFi_AT_Cmd_Buff,AT_MQTT_CONN,WiFi_Counter_Variables.curr_hostname
 829:Middlewares/ST/STM32_SPWF0xSy/wifi_module.c ****                   status = USART_Transmit_AT_Cmd(strlen((char*)WiFi_AT_Cmd_Buff));
 830:Middlewares/ST/STM32_SPWF0xSy/wifi_module.c ****                 #else
 831:Middlewares/ST/STM32_SPWF0xSy/wifi_module.c ****                   sprintf((char*)WiFi_AT_Cmd_Buff,"AT+S.MQTTCONN=%s,%d,NULL,NULL,NULL,NULL,NULL,NUL
 832:Middlewares/ST/STM32_SPWF0xSy/wifi_module.c ****                   run_spi_cmd((char*)WiFi_AT_Cmd_Buff, SPI_POLL);
 833:Middlewares/ST/STM32_SPWF0xSy/wifi_module.c ****                   IO_status_flag.AT_event_processing = WIFI_MQTT_CONNECT_EVENT;
 834:Middlewares/ST/STM32_SPWF0xSy/wifi_module.c ****                   status = WiFi_MODULE_SUCCESS;//@TBD: Check return error code from run_spi_cmd
 835:Middlewares/ST/STM32_SPWF0xSy/wifi_module.c ****                 #endif
 836:Middlewares/ST/STM32_SPWF0xSy/wifi_module.c ****               }
 837:Middlewares/ST/STM32_SPWF0xSy/wifi_module.c ****               else if(mqtt_type == SUBSCRIBE)
 838:Middlewares/ST/STM32_SPWF0xSy/wifi_module.c ****               {
 839:Middlewares/ST/STM32_SPWF0xSy/wifi_module.c ****                 #ifdef CONSOLE_UART_ENABLED
 840:Middlewares/ST/STM32_SPWF0xSy/wifi_module.c ****                   sprintf((char*)WiFi_AT_Cmd_Buff,AT_MQTT_SUB,WiFi_Counter_Variables.curr_path);
 841:Middlewares/ST/STM32_SPWF0xSy/wifi_module.c ****                   status = USART_Transmit_AT_Cmd(strlen((char*)WiFi_AT_Cmd_Buff));
 842:Middlewares/ST/STM32_SPWF0xSy/wifi_module.c ****                 #else
 843:Middlewares/ST/STM32_SPWF0xSy/wifi_module.c ****                   sprintf((char*)WiFi_AT_Cmd_Buff,"AT+S.MQTTSUB=0,%s,\r",WiFi_Counter_Variables.cur
 844:Middlewares/ST/STM32_SPWF0xSy/wifi_module.c ****                   run_spi_cmd((char*)WiFi_AT_Cmd_Buff, SPI_POLL);
 845:Middlewares/ST/STM32_SPWF0xSy/wifi_module.c ****                   status = WiFi_MODULE_SUCCESS;//@TBD: Check return error code from run_spi_cmd
 846:Middlewares/ST/STM32_SPWF0xSy/wifi_module.c ****                   IO_status_flag.AT_event_processing = WIFI_MQTT_EVENT;
 847:Middlewares/ST/STM32_SPWF0xSy/wifi_module.c ****                 #endif
 848:Middlewares/ST/STM32_SPWF0xSy/wifi_module.c ****               }
 849:Middlewares/ST/STM32_SPWF0xSy/wifi_module.c ****               else if(mqtt_type == UNSUBSCRIBE)
 850:Middlewares/ST/STM32_SPWF0xSy/wifi_module.c ****               {
 851:Middlewares/ST/STM32_SPWF0xSy/wifi_module.c ****                 #ifdef CONSOLE_UART_ENABLED
 852:Middlewares/ST/STM32_SPWF0xSy/wifi_module.c ****                   sprintf((char*)WiFi_AT_Cmd_Buff,AT_MQTT_UNSUB,WiFi_Counter_Variables.curr_path);
 853:Middlewares/ST/STM32_SPWF0xSy/wifi_module.c ****                   status = USART_Transmit_AT_Cmd(strlen((char*)WiFi_AT_Cmd_Buff));
 854:Middlewares/ST/STM32_SPWF0xSy/wifi_module.c ****                 #else
 855:Middlewares/ST/STM32_SPWF0xSy/wifi_module.c ****                   sprintf((char*)WiFi_AT_Cmd_Buff,"AT+S.MQTTUNSUB=0,%s\r",WiFi_Counter_Variables.cu
 856:Middlewares/ST/STM32_SPWF0xSy/wifi_module.c ****                   run_spi_cmd((char*)WiFi_AT_Cmd_Buff, SPI_POLL);
 857:Middlewares/ST/STM32_SPWF0xSy/wifi_module.c ****                   status = WiFi_MODULE_SUCCESS;//@TBD: Check return error code from run_spi_cmd
 858:Middlewares/ST/STM32_SPWF0xSy/wifi_module.c ****                   IO_status_flag.AT_event_processing = WIFI_MQTT_EVENT;
 859:Middlewares/ST/STM32_SPWF0xSy/wifi_module.c ****                 #endif
 860:Middlewares/ST/STM32_SPWF0xSy/wifi_module.c ****               }
 861:Middlewares/ST/STM32_SPWF0xSy/wifi_module.c ****               else
 862:Middlewares/ST/STM32_SPWF0xSy/wifi_module.c ****               {
 863:Middlewares/ST/STM32_SPWF0xSy/wifi_module.c ****                 #ifdef CONSOLE_UART_ENABLED
 864:Middlewares/ST/STM32_SPWF0xSy/wifi_module.c ****                   sprintf((char*)WiFi_AT_Cmd_Buff,AT_MQTT_DISC);
 865:Middlewares/ST/STM32_SPWF0xSy/wifi_module.c ****                   status = USART_Transmit_AT_Cmd(strlen((char*)WiFi_AT_Cmd_Buff));
 866:Middlewares/ST/STM32_SPWF0xSy/wifi_module.c ****                 #else
 867:Middlewares/ST/STM32_SPWF0xSy/wifi_module.c ****                   sprintf((char*)WiFi_AT_Cmd_Buff,"AT+S.MQTTDISC=0");
 868:Middlewares/ST/STM32_SPWF0xSy/wifi_module.c ****                   run_spi_cmd((char*)WiFi_AT_Cmd_Buff, SPI_POLL);
 869:Middlewares/ST/STM32_SPWF0xSy/wifi_module.c ****                   status = WiFi_MODULE_SUCCESS;//@TBD: Check return error code from run_spi_cmd
 870:Middlewares/ST/STM32_SPWF0xSy/wifi_module.c ****                   IO_status_flag.AT_event_processing = WIFI_MQTT_EVENT;
 871:Middlewares/ST/STM32_SPWF0xSy/wifi_module.c ****                 #endif
 872:Middlewares/ST/STM32_SPWF0xSy/wifi_module.c ****               }
 873:Middlewares/ST/STM32_SPWF0xSy/wifi_module.c ****                                 
 874:Middlewares/ST/STM32_SPWF0xSy/wifi_module.c ****               if(status != WiFi_MODULE_SUCCESS)
 875:Middlewares/ST/STM32_SPWF0xSy/wifi_module.c ****               {
 876:Middlewares/ST/STM32_SPWF0xSy/wifi_module.c ****                 #if DEBUG_PRINT
ARM GAS  D:\cygwin64\tmp\cckuROSo.s 			page 25


 877:Middlewares/ST/STM32_SPWF0xSy/wifi_module.c ****                   printf("\r\n ERROR During MQTT \r\n");
 878:Middlewares/ST/STM32_SPWF0xSy/wifi_module.c ****                 #endif
 879:Middlewares/ST/STM32_SPWF0xSy/wifi_module.c ****                 WiFi_Counter_Variables.AT_RESPONSE = WiFi_AT_CMD_RESP_ERROR;
 880:Middlewares/ST/STM32_SPWF0xSy/wifi_module.c ****                 IO_status_flag.AT_Response_Received = WIFI_TRUE;
 881:Middlewares/ST/STM32_SPWF0xSy/wifi_module.c ****               }
 882:Middlewares/ST/STM32_SPWF0xSy/wifi_module.c ****             }
 883:Middlewares/ST/STM32_SPWF0xSy/wifi_module.c ****             else if(mqtt_type == PUBLISH)
 884:Middlewares/ST/STM32_SPWF0xSy/wifi_module.c ****             {
 885:Middlewares/ST/STM32_SPWF0xSy/wifi_module.c ****               #ifdef CONSOLE_UART_ENABLED
 886:Middlewares/ST/STM32_SPWF0xSy/wifi_module.c ****                 sprintf((char*)WiFi_AT_Cmd_Buff,AT_MQTT_PUB,WiFi_Counter_Variables.curr_path,WiFi_C
 887:Middlewares/ST/STM32_SPWF0xSy/wifi_module.c ****                 status = USART_Transmit_AT_Cmd(strlen((char*)WiFi_AT_Cmd_Buff));
 888:Middlewares/ST/STM32_SPWF0xSy/wifi_module.c ****               #else
 889:Middlewares/ST/STM32_SPWF0xSy/wifi_module.c ****                 sprintf((char*)WiFi_AT_Cmd_Buff,"AT+S.MQTTPUB=0,%s,NULL,NULL,%d %s",WiFi_Counter_Va
 890:Middlewares/ST/STM32_SPWF0xSy/wifi_module.c ****                 run_spi_cmd((char*)WiFi_AT_Cmd_Buff, SPI_POLL);
 891:Middlewares/ST/STM32_SPWF0xSy/wifi_module.c ****                 status = WiFi_MODULE_SUCCESS;//@TBD: Check return error code from run_spi_cmd
 892:Middlewares/ST/STM32_SPWF0xSy/wifi_module.c ****               #endif
 893:Middlewares/ST/STM32_SPWF0xSy/wifi_module.c ****               if(status != WiFi_MODULE_SUCCESS)
 894:Middlewares/ST/STM32_SPWF0xSy/wifi_module.c ****               {
 895:Middlewares/ST/STM32_SPWF0xSy/wifi_module.c ****                 #if DEBUG_PRINT
 896:Middlewares/ST/STM32_SPWF0xSy/wifi_module.c ****                   printf("\r\n ERROR During MQTT \r\n");
 897:Middlewares/ST/STM32_SPWF0xSy/wifi_module.c ****                 #endif
 898:Middlewares/ST/STM32_SPWF0xSy/wifi_module.c ****                 WiFi_Counter_Variables.AT_RESPONSE = WiFi_AT_CMD_RESP_ERROR;
 899:Middlewares/ST/STM32_SPWF0xSy/wifi_module.c ****                 IO_status_flag.AT_Response_Received = WIFI_TRUE;
 900:Middlewares/ST/STM32_SPWF0xSy/wifi_module.c ****               }
 901:Middlewares/ST/STM32_SPWF0xSy/wifi_module.c ****               else
 902:Middlewares/ST/STM32_SPWF0xSy/wifi_module.c ****               {
 903:Middlewares/ST/STM32_SPWF0xSy/wifi_module.c ****                 Reset_AT_CMD_Buffer();                                
 904:Middlewares/ST/STM32_SPWF0xSy/wifi_module.c ****                 #if defined(CONSOLE_UART_ENABLED)
 905:Middlewares/ST/STM32_SPWF0xSy/wifi_module.c ****                   memcpy((char*)WiFi_AT_Cmd_Buff, (char*)WiFi_Counter_Variables.curr_data, WiFi_Cou
 906:Middlewares/ST/STM32_SPWF0xSy/wifi_module.c ****                   status = USART_Transmit_AT_Cmd(WiFi_Counter_Variables.curr_DataLength);
 907:Middlewares/ST/STM32_SPWF0xSy/wifi_module.c ****                 #else
 908:Middlewares/ST/STM32_SPWF0xSy/wifi_module.c ****                   //SPI_Transmit_Manager_Poll(WiFi_AT_Cmd_Buff, WiFi_Counter_Variables.curr_DataLen
 909:Middlewares/ST/STM32_SPWF0xSy/wifi_module.c ****                   status = WiFi_MODULE_SUCCESS;//@TBD: Check return error code
 910:Middlewares/ST/STM32_SPWF0xSy/wifi_module.c ****                   IO_status_flag.AT_event_processing = WIFI_MQTT_EVENT;
 911:Middlewares/ST/STM32_SPWF0xSy/wifi_module.c ****                   IO_status_flag.send_data = WIFI_TRUE;
 912:Middlewares/ST/STM32_SPWF0xSy/wifi_module.c ****                   WiFi_Control_Variables.stop_event_dequeue = WIFI_TRUE;
 913:Middlewares/ST/STM32_SPWF0xSy/wifi_module.c ****                 #endif
 914:Middlewares/ST/STM32_SPWF0xSy/wifi_module.c ****               }
 915:Middlewares/ST/STM32_SPWF0xSy/wifi_module.c ****             }
 916:Middlewares/ST/STM32_SPWF0xSy/wifi_module.c ****             mqtt_type = NO_TYPE;
 917:Middlewares/ST/STM32_SPWF0xSy/wifi_module.c ****             /* Just to try */
 918:Middlewares/ST/STM32_SPWF0xSy/wifi_module.c ****             Reset_AT_CMD_Buffer();
 919:Middlewares/ST/STM32_SPWF0xSy/wifi_module.c ****             break;
 920:Middlewares/ST/STM32_SPWF0xSy/wifi_module.c ****                           
 921:Middlewares/ST/STM32_SPWF0xSy/wifi_module.c ****           case WIFI_SMTP_EVENT:
 922:Middlewares/ST/STM32_SPWF0xSy/wifi_module.c ****             Reset_AT_CMD_Buffer();
 923:Middlewares/ST/STM32_SPWF0xSy/wifi_module.c ****             #if defined(CONSOLE_UART_ENABLED)
 924:Middlewares/ST/STM32_SPWF0xSy/wifi_module.c ****               sprintf((char*)WiFi_AT_Cmd_Buff,AT_SEND_MAIL,WiFi_Counter_Variables.curr_hostname,(in
 925:Middlewares/ST/STM32_SPWF0xSy/wifi_module.c ****                       WiFi_Counter_Variables.curr_path,WiFi_Counter_Variables.curr_pURL, WiFi_Count
 926:Middlewares/ST/STM32_SPWF0xSy/wifi_module.c ****               status = USART_Transmit_AT_Cmd(strlen((char*)WiFi_AT_Cmd_Buff));
 927:Middlewares/ST/STM32_SPWF0xSy/wifi_module.c ****             #else
 928:Middlewares/ST/STM32_SPWF0xSy/wifi_module.c ****               sprintf((char*)WiFi_AT_Cmd_Buff,"AT+S.SMTP=%s,%lu,NULL,NULL,NULL,NULL,%s,%s,NULL,NULL
 929:Middlewares/ST/STM32_SPWF0xSy/wifi_module.c ****                       WiFi_Counter_Variables.curr_hostname,WiFi_Counter_Variables.curr_port_number,
 930:Middlewares/ST/STM32_SPWF0xSy/wifi_module.c ****                       WiFi_Counter_Variables.curr_pURL, WiFi_Counter_Variables.temp, WiFi_Counter_V
 931:Middlewares/ST/STM32_SPWF0xSy/wifi_module.c ****               run_spi_cmd((char*)WiFi_AT_Cmd_Buff, SPI_POLL);
 932:Middlewares/ST/STM32_SPWF0xSy/wifi_module.c ****               IO_status_flag.AT_event_processing = WIFI_SMTP_EVENT;
 933:Middlewares/ST/STM32_SPWF0xSy/wifi_module.c ****               status = WiFi_MODULE_SUCCESS;//@TBD: Check return error code from run_spi_cmd
ARM GAS  D:\cygwin64\tmp\cckuROSo.s 			page 26


 934:Middlewares/ST/STM32_SPWF0xSy/wifi_module.c ****             #endif
 935:Middlewares/ST/STM32_SPWF0xSy/wifi_module.c **** 
 936:Middlewares/ST/STM32_SPWF0xSy/wifi_module.c ****             if(status != WiFi_MODULE_SUCCESS)
 937:Middlewares/ST/STM32_SPWF0xSy/wifi_module.c ****             {
 938:Middlewares/ST/STM32_SPWF0xSy/wifi_module.c ****               #if DEBUG_PRINT
 939:Middlewares/ST/STM32_SPWF0xSy/wifi_module.c ****                 printf("\r\n ERROR During SMTP \r\n");
 940:Middlewares/ST/STM32_SPWF0xSy/wifi_module.c ****               #endif
 941:Middlewares/ST/STM32_SPWF0xSy/wifi_module.c ****               WiFi_Counter_Variables.AT_RESPONSE = WiFi_AT_CMD_RESP_ERROR;
 942:Middlewares/ST/STM32_SPWF0xSy/wifi_module.c ****               IO_status_flag.AT_Response_Received = WIFI_TRUE;
 943:Middlewares/ST/STM32_SPWF0xSy/wifi_module.c ****             }
 944:Middlewares/ST/STM32_SPWF0xSy/wifi_module.c ****             else
 945:Middlewares/ST/STM32_SPWF0xSy/wifi_module.c ****             {
 946:Middlewares/ST/STM32_SPWF0xSy/wifi_module.c ****               Reset_AT_CMD_Buffer();                                
 947:Middlewares/ST/STM32_SPWF0xSy/wifi_module.c ****               #if defined(CONSOLE_UART_ENABLED)
 948:Middlewares/ST/STM32_SPWF0xSy/wifi_module.c ****                 memcpy((char*)WiFi_AT_Cmd_Buff, (char*)WiFi_Counter_Variables.curr_data, WiFi_Count
 949:Middlewares/ST/STM32_SPWF0xSy/wifi_module.c ****                 #if defined (USE_STM32L0XX_NUCLEO) || (USE_STM32F4XX_NUCLEO) || (USE_STM32L4XX_NUCL
 950:Middlewares/ST/STM32_SPWF0xSy/wifi_module.c ****                   __disable_irq();
 951:Middlewares/ST/STM32_SPWF0xSy/wifi_module.c ****                 #endif
 952:Middlewares/ST/STM32_SPWF0xSy/wifi_module.c ****                 status = USART_Transmit_AT_Cmd(WiFi_Counter_Variables.curr_DataLength);
 953:Middlewares/ST/STM32_SPWF0xSy/wifi_module.c ****                 #if defined (USE_STM32L0XX_NUCLEO) || (USE_STM32F4XX_NUCLEO) || (USE_STM32L4XX_NUCL
 954:Middlewares/ST/STM32_SPWF0xSy/wifi_module.c ****                   __enable_irq();
 955:Middlewares/ST/STM32_SPWF0xSy/wifi_module.c ****                 #endif
 956:Middlewares/ST/STM32_SPWF0xSy/wifi_module.c ****               #else
 957:Middlewares/ST/STM32_SPWF0xSy/wifi_module.c ****                 //SPI_Transmit_Manager_Poll(WiFi_AT_Cmd_Buff, WiFi_Counter_Variables.curr_DataLengt
 958:Middlewares/ST/STM32_SPWF0xSy/wifi_module.c ****                 status = WiFi_MODULE_SUCCESS;//@TBD: Check return error code
 959:Middlewares/ST/STM32_SPWF0xSy/wifi_module.c ****                 IO_status_flag.AT_event_processing = WIFI_CLIENT_SOCKET_WRITE_EVENT;  /* Check whic
 960:Middlewares/ST/STM32_SPWF0xSy/wifi_module.c ****                 IO_status_flag.send_data = WIFI_TRUE;
 961:Middlewares/ST/STM32_SPWF0xSy/wifi_module.c ****                 WiFi_Control_Variables.stop_event_dequeue = WIFI_TRUE;
 962:Middlewares/ST/STM32_SPWF0xSy/wifi_module.c ****               #endif
 963:Middlewares/ST/STM32_SPWF0xSy/wifi_module.c ****             }
 964:Middlewares/ST/STM32_SPWF0xSy/wifi_module.c ****             break;
 965:Middlewares/ST/STM32_SPWF0xSy/wifi_module.c **** 
 966:Middlewares/ST/STM32_SPWF0xSy/wifi_module.c ****           case WIFI_CLIENT_SOCKET_LIST_EVENT:
 967:Middlewares/ST/STM32_SPWF0xSy/wifi_module.c ****             Reset_AT_CMD_Buffer();
 968:Middlewares/ST/STM32_SPWF0xSy/wifi_module.c ****             #if defined(CONSOLE_UART_ENABLED)
 969:Middlewares/ST/STM32_SPWF0xSy/wifi_module.c ****               sprintf((char*)WiFi_AT_Cmd_Buff,AT_LIST_OPEN_CLIENT_SOCKET);
 970:Middlewares/ST/STM32_SPWF0xSy/wifi_module.c **** 
 971:Middlewares/ST/STM32_SPWF0xSy/wifi_module.c ****               status = USART_Transmit_AT_Cmd(strlen((char*)WiFi_AT_Cmd_Buff));
 972:Middlewares/ST/STM32_SPWF0xSy/wifi_module.c ****             #else
 973:Middlewares/ST/STM32_SPWF0xSy/wifi_module.c ****               sprintf((char*)WiFi_AT_Cmd_Buff,"AT+S.SOCKL");
 974:Middlewares/ST/STM32_SPWF0xSy/wifi_module.c ****               run_spi_cmd((char*)WiFi_AT_Cmd_Buff, SPI_POLL);
 975:Middlewares/ST/STM32_SPWF0xSy/wifi_module.c ****               IO_status_flag.AT_event_processing = WIFI_LIST_EVENT;
 976:Middlewares/ST/STM32_SPWF0xSy/wifi_module.c ****               status = WiFi_MODULE_SUCCESS;//@TBD: Check return error code from run_spi_cmd
 977:Middlewares/ST/STM32_SPWF0xSy/wifi_module.c ****             #endif
 978:Middlewares/ST/STM32_SPWF0xSy/wifi_module.c ****               
 979:Middlewares/ST/STM32_SPWF0xSy/wifi_module.c ****               if(status != WiFi_MODULE_SUCCESS)
 980:Middlewares/ST/STM32_SPWF0xSy/wifi_module.c ****               {
 981:Middlewares/ST/STM32_SPWF0xSy/wifi_module.c ****                 #if DEBUG_PRINT
 982:Middlewares/ST/STM32_SPWF0xSy/wifi_module.c ****                   printf("\r\n ERROR During LIST \r\n");
 983:Middlewares/ST/STM32_SPWF0xSy/wifi_module.c ****                 #endif
 984:Middlewares/ST/STM32_SPWF0xSy/wifi_module.c ****                 WiFi_Counter_Variables.AT_RESPONSE = WiFi_AT_CMD_RESP_ERROR;
 985:Middlewares/ST/STM32_SPWF0xSy/wifi_module.c ****                 IO_status_flag.AT_Response_Received = WIFI_TRUE;
 986:Middlewares/ST/STM32_SPWF0xSy/wifi_module.c ****               }  
 987:Middlewares/ST/STM32_SPWF0xSy/wifi_module.c ****               else
 988:Middlewares/ST/STM32_SPWF0xSy/wifi_module.c ****               {
 989:Middlewares/ST/STM32_SPWF0xSy/wifi_module.c ****                 WiFi_Control_Variables.stop_event_dequeue = WIFI_TRUE;
 990:Middlewares/ST/STM32_SPWF0xSy/wifi_module.c ****                 WiFi_Control_Variables.Ok_terminated_data_request_pending = WIFI_TRUE;
ARM GAS  D:\cygwin64\tmp\cckuROSo.s 			page 27


 991:Middlewares/ST/STM32_SPWF0xSy/wifi_module.c ****                 WiFi_Control_Variables.enable_receive_socket_list_response = WIFI_TRUE;
 992:Middlewares/ST/STM32_SPWF0xSy/wifi_module.c ****               }
 993:Middlewares/ST/STM32_SPWF0xSy/wifi_module.c ****             break;
 994:Middlewares/ST/STM32_SPWF0xSy/wifi_module.c ****                             
 995:Middlewares/ST/STM32_SPWF0xSy/wifi_module.c ****           case WIFI_CLIENT_WEB_SOCKET_LIST_EVENT:
 996:Middlewares/ST/STM32_SPWF0xSy/wifi_module.c ****             Reset_AT_CMD_Buffer();
 997:Middlewares/ST/STM32_SPWF0xSy/wifi_module.c ****             #if defined(CONSOLE_UART_ENABLED)
 998:Middlewares/ST/STM32_SPWF0xSy/wifi_module.c ****               sprintf((char*)WiFi_AT_Cmd_Buff,AT_LIST_OPEN_WEB_CLIENT_SOCKET);
 999:Middlewares/ST/STM32_SPWF0xSy/wifi_module.c **** 
1000:Middlewares/ST/STM32_SPWF0xSy/wifi_module.c ****               status = USART_Transmit_AT_Cmd(strlen((char*)WiFi_AT_Cmd_Buff));
1001:Middlewares/ST/STM32_SPWF0xSy/wifi_module.c ****             #else
1002:Middlewares/ST/STM32_SPWF0xSy/wifi_module.c ****               sprintf((char*)WiFi_AT_Cmd_Buff,"AT+S.WSOCKL");
1003:Middlewares/ST/STM32_SPWF0xSy/wifi_module.c ****               run_spi_cmd((char*)WiFi_AT_Cmd_Buff, SPI_POLL);
1004:Middlewares/ST/STM32_SPWF0xSy/wifi_module.c ****               IO_status_flag.AT_event_processing = WIFI_LIST_EVENT;
1005:Middlewares/ST/STM32_SPWF0xSy/wifi_module.c ****               status = WiFi_MODULE_SUCCESS;//@TBD: Check return error code from run_spi_cmd
1006:Middlewares/ST/STM32_SPWF0xSy/wifi_module.c ****             #endif
1007:Middlewares/ST/STM32_SPWF0xSy/wifi_module.c ****               
1008:Middlewares/ST/STM32_SPWF0xSy/wifi_module.c ****              if(status != WiFi_MODULE_SUCCESS)
1009:Middlewares/ST/STM32_SPWF0xSy/wifi_module.c ****               {
1010:Middlewares/ST/STM32_SPWF0xSy/wifi_module.c ****                 #if DEBUG_PRINT
1011:Middlewares/ST/STM32_SPWF0xSy/wifi_module.c ****                   printf("\r\n ERROR During LIST \r\n");
1012:Middlewares/ST/STM32_SPWF0xSy/wifi_module.c ****                 #endif
1013:Middlewares/ST/STM32_SPWF0xSy/wifi_module.c ****                 WiFi_Counter_Variables.AT_RESPONSE = WiFi_AT_CMD_RESP_ERROR;
1014:Middlewares/ST/STM32_SPWF0xSy/wifi_module.c ****                 IO_status_flag.AT_Response_Received = WIFI_TRUE;
1015:Middlewares/ST/STM32_SPWF0xSy/wifi_module.c ****               }
1016:Middlewares/ST/STM32_SPWF0xSy/wifi_module.c ****               else
1017:Middlewares/ST/STM32_SPWF0xSy/wifi_module.c ****               {
1018:Middlewares/ST/STM32_SPWF0xSy/wifi_module.c ****                 WiFi_Control_Variables.stop_event_dequeue = WIFI_TRUE;
1019:Middlewares/ST/STM32_SPWF0xSy/wifi_module.c ****                 WiFi_Control_Variables.Ok_terminated_data_request_pending = WIFI_TRUE;
1020:Middlewares/ST/STM32_SPWF0xSy/wifi_module.c ****                 WiFi_Control_Variables.enable_receive_socket_list_response = WIFI_TRUE;
1021:Middlewares/ST/STM32_SPWF0xSy/wifi_module.c ****               }
1022:Middlewares/ST/STM32_SPWF0xSy/wifi_module.c ****             break;
1023:Middlewares/ST/STM32_SPWF0xSy/wifi_module.c ****                             
1024:Middlewares/ST/STM32_SPWF0xSy/wifi_module.c ****           case WIFI_SERVER_SOCKET_LIST_EVENT:
1025:Middlewares/ST/STM32_SPWF0xSy/wifi_module.c ****             Reset_AT_CMD_Buffer();
1026:Middlewares/ST/STM32_SPWF0xSy/wifi_module.c ****             #if defined(CONSOLE_UART_ENABLED)
1027:Middlewares/ST/STM32_SPWF0xSy/wifi_module.c ****               sprintf((char*)WiFi_AT_Cmd_Buff,AT_LIST_BOUND_CLIENT_SOCKET);
1028:Middlewares/ST/STM32_SPWF0xSy/wifi_module.c ****               status = USART_Transmit_AT_Cmd(strlen((char*)WiFi_AT_Cmd_Buff));
1029:Middlewares/ST/STM32_SPWF0xSy/wifi_module.c ****             #else
1030:Middlewares/ST/STM32_SPWF0xSy/wifi_module.c ****               sprintf((char*)WiFi_AT_Cmd_Buff,"AT+S.SOCKDL");
1031:Middlewares/ST/STM32_SPWF0xSy/wifi_module.c ****               run_spi_cmd((char*)WiFi_AT_Cmd_Buff, SPI_POLL);
1032:Middlewares/ST/STM32_SPWF0xSy/wifi_module.c ****               IO_status_flag.AT_event_processing = WIFI_LIST_EVENT;
1033:Middlewares/ST/STM32_SPWF0xSy/wifi_module.c ****               status = WiFi_MODULE_SUCCESS;//@TBD: Check return error code
1034:Middlewares/ST/STM32_SPWF0xSy/wifi_module.c ****             #endif
1035:Middlewares/ST/STM32_SPWF0xSy/wifi_module.c ****             
1036:Middlewares/ST/STM32_SPWF0xSy/wifi_module.c ****             if(status != WiFi_MODULE_SUCCESS)
1037:Middlewares/ST/STM32_SPWF0xSy/wifi_module.c ****             {
1038:Middlewares/ST/STM32_SPWF0xSy/wifi_module.c ****               #if DEBUG_PRINT
1039:Middlewares/ST/STM32_SPWF0xSy/wifi_module.c ****                 printf("\r\n ERROR During LIST \r\n");
1040:Middlewares/ST/STM32_SPWF0xSy/wifi_module.c ****               #endif
1041:Middlewares/ST/STM32_SPWF0xSy/wifi_module.c ****               WiFi_Counter_Variables.AT_RESPONSE = WiFi_AT_CMD_RESP_ERROR;
1042:Middlewares/ST/STM32_SPWF0xSy/wifi_module.c ****               IO_status_flag.AT_Response_Received = WIFI_TRUE;
1043:Middlewares/ST/STM32_SPWF0xSy/wifi_module.c ****               IO_status_flag.AT_event_processing = WIFI_HTTP_EVENT;
1044:Middlewares/ST/STM32_SPWF0xSy/wifi_module.c ****             }
1045:Middlewares/ST/STM32_SPWF0xSy/wifi_module.c ****             else
1046:Middlewares/ST/STM32_SPWF0xSy/wifi_module.c ****             {
1047:Middlewares/ST/STM32_SPWF0xSy/wifi_module.c ****               WiFi_Control_Variables.stop_event_dequeue = WIFI_TRUE;
ARM GAS  D:\cygwin64\tmp\cckuROSo.s 			page 28


1048:Middlewares/ST/STM32_SPWF0xSy/wifi_module.c ****               WiFi_Control_Variables.Ok_terminated_data_request_pending = WIFI_TRUE;
1049:Middlewares/ST/STM32_SPWF0xSy/wifi_module.c ****               WiFi_Control_Variables.enable_receive_socket_list_response = WIFI_TRUE;
1050:Middlewares/ST/STM32_SPWF0xSy/wifi_module.c ****             }
1051:Middlewares/ST/STM32_SPWF0xSy/wifi_module.c ****             break;
1052:Middlewares/ST/STM32_SPWF0xSy/wifi_module.c ****             
1053:Middlewares/ST/STM32_SPWF0xSy/wifi_module.c ****           case WIFI_SERVER_SOCKET_WRITE_EVENT:
1054:Middlewares/ST/STM32_SPWF0xSy/wifi_module.c ****             Reset_AT_CMD_Buffer();
1055:Middlewares/ST/STM32_SPWF0xSy/wifi_module.c ****             
1056:Middlewares/ST/STM32_SPWF0xSy/wifi_module.c ****             /* AT+S.SOCKDW=<id>,<clientID>,len<cr> */
1057:Middlewares/ST/STM32_SPWF0xSy/wifi_module.c ****             #if defined(CONSOLE_UART_ENABLED)
1058:Middlewares/ST/STM32_SPWF0xSy/wifi_module.c ****               sprintf((char*)WiFi_AT_Cmd_Buff,AT_SERVER_SOCKET_WRITE, WiFi_Counter_Variables.curr_s
1059:Middlewares/ST/STM32_SPWF0xSy/wifi_module.c ****                       WiFi_Counter_Variables.curr_DataLength);
1060:Middlewares/ST/STM32_SPWF0xSy/wifi_module.c ****               status = USART_Transmit_AT_Cmd(strlen((char*)WiFi_AT_Cmd_Buff));
1061:Middlewares/ST/STM32_SPWF0xSy/wifi_module.c ****             #else
1062:Middlewares/ST/STM32_SPWF0xSy/wifi_module.c ****               sprintf((char*)WiFi_AT_Cmd_Buff,"AT+S.SOCKDW=%d,%d,%d %s", WiFi_Counter_Variables.cur
1063:Middlewares/ST/STM32_SPWF0xSy/wifi_module.c ****                       WiFi_Counter_Variables.curr_DataLength, "DATA");
1064:Middlewares/ST/STM32_SPWF0xSy/wifi_module.c ****               run_spi_cmd((char*)WiFi_AT_Cmd_Buff, SPI_POLL);
1065:Middlewares/ST/STM32_SPWF0xSy/wifi_module.c ****               status = WiFi_MODULE_SUCCESS;//@TBD: Check return error code
1066:Middlewares/ST/STM32_SPWF0xSy/wifi_module.c ****             #endif
1067:Middlewares/ST/STM32_SPWF0xSy/wifi_module.c ****             if(status == WiFi_MODULE_SUCCESS)
1068:Middlewares/ST/STM32_SPWF0xSy/wifi_module.c ****             {
1069:Middlewares/ST/STM32_SPWF0xSy/wifi_module.c ****               Reset_AT_CMD_Buffer();
1070:Middlewares/ST/STM32_SPWF0xSy/wifi_module.c ****               #if defined(CONSOLE_UART_ENABLED)
1071:Middlewares/ST/STM32_SPWF0xSy/wifi_module.c ****                   WiFi_Control_Variables.stop_event_dequeue = WIFI_TRUE;
1072:Middlewares/ST/STM32_SPWF0xSy/wifi_module.c ****                   HAL_status = HAL_UART_Transmit_DMA(&UartWiFiHandle, (uint8_t *)WiFi_Counter_Varia
1073:Middlewares/ST/STM32_SPWF0xSy/wifi_module.c ****               #else
1074:Middlewares/ST/STM32_SPWF0xSy/wifi_module.c ****                 //SPI_Transmit_Manager_Poll(WiFi_AT_Cmd_Buff, WiFi_Counter_Variables.curr_DataLengt
1075:Middlewares/ST/STM32_SPWF0xSy/wifi_module.c ****                 status = WiFi_MODULE_SUCCESS;//@TBD: Check return error code
1076:Middlewares/ST/STM32_SPWF0xSy/wifi_module.c ****                 IO_status_flag.AT_event_processing = WIFI_SERVER_SOCKET_WRITE_EVENT;
1077:Middlewares/ST/STM32_SPWF0xSy/wifi_module.c ****                 IO_status_flag.send_data = WIFI_TRUE;
1078:Middlewares/ST/STM32_SPWF0xSy/wifi_module.c ****                 WiFi_Control_Variables.stop_event_dequeue = WIFI_TRUE;
1079:Middlewares/ST/STM32_SPWF0xSy/wifi_module.c ****                 Start_AT_CMD_Timer();
1080:Middlewares/ST/STM32_SPWF0xSy/wifi_module.c ****               #endif
1081:Middlewares/ST/STM32_SPWF0xSy/wifi_module.c ****             }
1082:Middlewares/ST/STM32_SPWF0xSy/wifi_module.c ****             if(status != WiFi_MODULE_SUCCESS || HAL_status != HAL_OK)
1083:Middlewares/ST/STM32_SPWF0xSy/wifi_module.c ****             {
1084:Middlewares/ST/STM32_SPWF0xSy/wifi_module.c ****               #if DEBUG_PRINT
1085:Middlewares/ST/STM32_SPWF0xSy/wifi_module.c ****                 printf("\r\n ERROR In Server Socket Write\r\n");
1086:Middlewares/ST/STM32_SPWF0xSy/wifi_module.c ****               #endif
1087:Middlewares/ST/STM32_SPWF0xSy/wifi_module.c ****               IO_status_flag.AT_Response_Received = WIFI_TRUE;
1088:Middlewares/ST/STM32_SPWF0xSy/wifi_module.c ****               WiFi_Counter_Variables.AT_RESPONSE = WiFi_AT_CMD_RESP_ERROR;
1089:Middlewares/ST/STM32_SPWF0xSy/wifi_module.c ****             }
1090:Middlewares/ST/STM32_SPWF0xSy/wifi_module.c ****             break;
1091:Middlewares/ST/STM32_SPWF0xSy/wifi_module.c ****             
1092:Middlewares/ST/STM32_SPWF0xSy/wifi_module.c ****           case WIFI_CLIENT_WEB_SOCKET_WRITE_EVENT:
1093:Middlewares/ST/STM32_SPWF0xSy/wifi_module.c ****             Reset_AT_CMD_Buffer();
1094:Middlewares/ST/STM32_SPWF0xSy/wifi_module.c **** 
1095:Middlewares/ST/STM32_SPWF0xSy/wifi_module.c ****             /* AT+S.WSOCKW=00,11<cr> */
1096:Middlewares/ST/STM32_SPWF0xSy/wifi_module.c ****             #if defined(CONSOLE_UART_ENABLED)
1097:Middlewares/ST/STM32_SPWF0xSy/wifi_module.c ****               sprintf((char*)WiFi_AT_Cmd_Buff,AT_WEB_SOCKET_WRITE,0,WiFi_Counter_Variables.curr_Dat
1098:Middlewares/ST/STM32_SPWF0xSy/wifi_module.c ****               status = USART_Transmit_AT_Cmd(strlen((char*)WiFi_AT_Cmd_Buff));
1099:Middlewares/ST/STM32_SPWF0xSy/wifi_module.c ****             #else
1100:Middlewares/ST/STM32_SPWF0xSy/wifi_module.c ****               sprintf((char*)WiFi_AT_Cmd_Buff,"AT+S.WSOCKW=%d,0,0,0,%d %s",0, WiFi_Counter_Variable
1101:Middlewares/ST/STM32_SPWF0xSy/wifi_module.c ****               run_spi_cmd((char*)WiFi_AT_Cmd_Buff, SPI_POLL);
1102:Middlewares/ST/STM32_SPWF0xSy/wifi_module.c ****               status = WiFi_MODULE_SUCCESS;//@TBD: Check return error code
1103:Middlewares/ST/STM32_SPWF0xSy/wifi_module.c ****             #endif
1104:Middlewares/ST/STM32_SPWF0xSy/wifi_module.c ****             if(status == WiFi_MODULE_SUCCESS) 
ARM GAS  D:\cygwin64\tmp\cckuROSo.s 			page 29


1105:Middlewares/ST/STM32_SPWF0xSy/wifi_module.c ****             {
1106:Middlewares/ST/STM32_SPWF0xSy/wifi_module.c ****               Reset_AT_CMD_Buffer();   
1107:Middlewares/ST/STM32_SPWF0xSy/wifi_module.c **** 
1108:Middlewares/ST/STM32_SPWF0xSy/wifi_module.c ****               #if defined(CONSOLE_UART_ENABLED)
1109:Middlewares/ST/STM32_SPWF0xSy/wifi_module.c ****                 WiFi_Control_Variables.stop_event_dequeue = WIFI_TRUE;
1110:Middlewares/ST/STM32_SPWF0xSy/wifi_module.c ****                 HAL_status = HAL_UART_Transmit_DMA(&UartWiFiHandle, (uint8_t *)WiFi_Counter_Variabl
1111:Middlewares/ST/STM32_SPWF0xSy/wifi_module.c ****               #else
1112:Middlewares/ST/STM32_SPWF0xSy/wifi_module.c ****                   //SPI_Transmit_Manager_Poll(WiFi_AT_Cmd_Buff, WiFi_Counter_Variables.curr_DataLen
1113:Middlewares/ST/STM32_SPWF0xSy/wifi_module.c ****                   status = WiFi_MODULE_SUCCESS;//@TBD: Check return error code
1114:Middlewares/ST/STM32_SPWF0xSy/wifi_module.c ****                   IO_status_flag.AT_event_processing = WIFI_CLIENT_WEB_SOCKET_WRITE_EVENT;
1115:Middlewares/ST/STM32_SPWF0xSy/wifi_module.c ****                   IO_status_flag.send_data = WIFI_TRUE;
1116:Middlewares/ST/STM32_SPWF0xSy/wifi_module.c ****                   WiFi_Control_Variables.stop_event_dequeue = WIFI_TRUE;
1117:Middlewares/ST/STM32_SPWF0xSy/wifi_module.c ****                   Start_AT_CMD_Timer();
1118:Middlewares/ST/STM32_SPWF0xSy/wifi_module.c ****               #endif
1119:Middlewares/ST/STM32_SPWF0xSy/wifi_module.c ****             }
1120:Middlewares/ST/STM32_SPWF0xSy/wifi_module.c ****             if(status != WiFi_MODULE_SUCCESS || HAL_status != HAL_OK)
1121:Middlewares/ST/STM32_SPWF0xSy/wifi_module.c ****             {
1122:Middlewares/ST/STM32_SPWF0xSy/wifi_module.c ****               #if DEBUG_PRINT
1123:Middlewares/ST/STM32_SPWF0xSy/wifi_module.c ****                 printf("\r\n ERROR In Socket Write\r\n");
1124:Middlewares/ST/STM32_SPWF0xSy/wifi_module.c ****               #endif
1125:Middlewares/ST/STM32_SPWF0xSy/wifi_module.c ****               IO_status_flag.AT_Response_Received = WIFI_TRUE;
1126:Middlewares/ST/STM32_SPWF0xSy/wifi_module.c ****               WiFi_Counter_Variables.AT_RESPONSE = WiFi_AT_CMD_RESP_ERROR;
1127:Middlewares/ST/STM32_SPWF0xSy/wifi_module.c ****             }
1128:Middlewares/ST/STM32_SPWF0xSy/wifi_module.c ****             break;
1129:Middlewares/ST/STM32_SPWF0xSy/wifi_module.c **** 
1130:Middlewares/ST/STM32_SPWF0xSy/wifi_module.c ****           case WIFI_CLIENT_WEB_SOCKET_OPEN_EVENT:
1131:Middlewares/ST/STM32_SPWF0xSy/wifi_module.c ****             Reset_AT_CMD_Buffer();
1132:Middlewares/ST/STM32_SPWF0xSy/wifi_module.c ****             #if defined(CONSOLE_UART_ENABLED)
1133:Middlewares/ST/STM32_SPWF0xSy/wifi_module.c ****                 /* AT+S.SOCKON = myserver,1234,t <cr> */  
1134:Middlewares/ST/STM32_SPWF0xSy/wifi_module.c ****                 sprintf((char*)WiFi_AT_Cmd_Buff,AT_WEB_SOCKET_OPEN,WiFi_Counter_Variables.curr_host
1135:Middlewares/ST/STM32_SPWF0xSy/wifi_module.c ****                 status = USART_Transmit_AT_Cmd(strlen((char*)WiFi_AT_Cmd_Buff));
1136:Middlewares/ST/STM32_SPWF0xSy/wifi_module.c ****             #else
1137:Middlewares/ST/STM32_SPWF0xSy/wifi_module.c ****                 /* AT+S.SOCKON = myserver,1234,t <cr> */  
1138:Middlewares/ST/STM32_SPWF0xSy/wifi_module.c ****                 //@TBD: Set "is_secure_socket" only when the socket being opened is TLS/"s"/"domain
1139:Middlewares/ST/STM32_SPWF0xSy/wifi_module.c ****                 if((strcmp((char const *)WiFi_Counter_Variables.curr_protocol,"t")!=0) && (strcmp((
1140:Middlewares/ST/STM32_SPWF0xSy/wifi_module.c ****                   WiFi_Control_Variables.is_secure_socket = WIFI_TRUE;
1141:Middlewares/ST/STM32_SPWF0xSy/wifi_module.c ****                 sprintf((char*)WiFi_AT_Cmd_Buff,"AT+S.WSOCKON=%s,%d,NULL,0,NULL,NULL,NULL,NULL,NULL
1142:Middlewares/ST/STM32_SPWF0xSy/wifi_module.c ****                 run_spi_cmd((char*)WiFi_AT_Cmd_Buff, SPI_POLL);
1143:Middlewares/ST/STM32_SPWF0xSy/wifi_module.c ****                 status = WiFi_MODULE_SUCCESS;//@TBD: Check return error code from run_spi_cmd
1144:Middlewares/ST/STM32_SPWF0xSy/wifi_module.c ****             #endif
1145:Middlewares/ST/STM32_SPWF0xSy/wifi_module.c **** 
1146:Middlewares/ST/STM32_SPWF0xSy/wifi_module.c ****             if(status != WiFi_MODULE_SUCCESS)
1147:Middlewares/ST/STM32_SPWF0xSy/wifi_module.c ****             {
1148:Middlewares/ST/STM32_SPWF0xSy/wifi_module.c ****               #if DEBUG_PRINT
1149:Middlewares/ST/STM32_SPWF0xSy/wifi_module.c ****                 printf("\r\n ERROR During Web Socket Open \r\n");
1150:Middlewares/ST/STM32_SPWF0xSy/wifi_module.c ****               #endif
1151:Middlewares/ST/STM32_SPWF0xSy/wifi_module.c ****               IO_status_flag.AT_Response_Received = WIFI_TRUE;
1152:Middlewares/ST/STM32_SPWF0xSy/wifi_module.c ****               WiFi_Counter_Variables.AT_RESPONSE = WiFi_AT_CMD_RESP_ERROR;
1153:Middlewares/ST/STM32_SPWF0xSy/wifi_module.c ****             }
1154:Middlewares/ST/STM32_SPWF0xSy/wifi_module.c ****             else
1155:Middlewares/ST/STM32_SPWF0xSy/wifi_module.c ****             {
1156:Middlewares/ST/STM32_SPWF0xSy/wifi_module.c ****               IO_status_flag.AT_event_processing = WIFI_CLIENT_WEB_SOCKET_OPEN_EVENT;
1157:Middlewares/ST/STM32_SPWF0xSy/wifi_module.c ****               WiFi_Counter_Variables.timeout_tick = 0;
1158:Middlewares/ST/STM32_SPWF0xSy/wifi_module.c ****               WiFi_Control_Variables.enable_timeout_timer = WIFI_TRUE;                             
1159:Middlewares/ST/STM32_SPWF0xSy/wifi_module.c ****             }
1160:Middlewares/ST/STM32_SPWF0xSy/wifi_module.c ****             break;
1161:Middlewares/ST/STM32_SPWF0xSy/wifi_module.c **** 
ARM GAS  D:\cygwin64\tmp\cckuROSo.s 			page 30


1162:Middlewares/ST/STM32_SPWF0xSy/wifi_module.c ****           case WIFI_CLIENT_WEB_SOCKET_CLOSE_EVENT:
1163:Middlewares/ST/STM32_SPWF0xSy/wifi_module.c ****             if(open_web_socket[wifi_instances.DeQed_wifi_event->socket_id])
1164:Middlewares/ST/STM32_SPWF0xSy/wifi_module.c ****             {
1165:Middlewares/ST/STM32_SPWF0xSy/wifi_module.c ****               Reset_AT_CMD_Buffer();
1166:Middlewares/ST/STM32_SPWF0xSy/wifi_module.c ****               //@TBD: Do a SOCK.R (Read) before closing the socket
1167:Middlewares/ST/STM32_SPWF0xSy/wifi_module.c ****                #if defined(CONSOLE_UART_ENABLED)
1168:Middlewares/ST/STM32_SPWF0xSy/wifi_module.c ****                 /* AT+S.WSOCKC=<socket_id><status><cr>   status = 0->normal closure 1->going away*/
1169:Middlewares/ST/STM32_SPWF0xSy/wifi_module.c ****                 sprintf((char*)WiFi_AT_Cmd_Buff,AT_WEB_SOCKET_CLOSE,wifi_instances.DeQed_wifi_event
1170:Middlewares/ST/STM32_SPWF0xSy/wifi_module.c ****                 status = USART_Transmit_AT_Cmd(strlen((char*)WiFi_AT_Cmd_Buff));
1171:Middlewares/ST/STM32_SPWF0xSy/wifi_module.c ****               #else
1172:Middlewares/ST/STM32_SPWF0xSy/wifi_module.c ****                 sprintf((char*)WiFi_AT_Cmd_Buff,"AT+S.WSOCKC=%d,0",wifi_instances.DeQed_wifi_event-
1173:Middlewares/ST/STM32_SPWF0xSy/wifi_module.c ****                 IO_status_flag.prevent_push_OK_event    = WIFI_TRUE;
1174:Middlewares/ST/STM32_SPWF0xSy/wifi_module.c ****                 IO_status_flag.web_socket_close_ongoing = WIFI_TRUE;
1175:Middlewares/ST/STM32_SPWF0xSy/wifi_module.c ****                 run_spi_cmd((char*)WiFi_AT_Cmd_Buff, SPI_POLL);
1176:Middlewares/ST/STM32_SPWF0xSy/wifi_module.c ****                 status = WiFi_MODULE_SUCCESS;//@TBD: Check return error code from run_spi_cmd
1177:Middlewares/ST/STM32_SPWF0xSy/wifi_module.c ****               #endif
1178:Middlewares/ST/STM32_SPWF0xSy/wifi_module.c ****               if(status == WiFi_MODULE_SUCCESS)
1179:Middlewares/ST/STM32_SPWF0xSy/wifi_module.c ****               {
1180:Middlewares/ST/STM32_SPWF0xSy/wifi_module.c ****                 WiFi_Counter_Variables.AT_RESPONSE = WiFi_MODULE_SUCCESS;
1181:Middlewares/ST/STM32_SPWF0xSy/wifi_module.c ****                 WiFi_Control_Variables.stop_event_dequeue          = WIFI_TRUE;
1182:Middlewares/ST/STM32_SPWF0xSy/wifi_module.c ****                 WiFi_Counter_Variables.remote_socket_closed_id     = wifi_instances.DeQed_wifi_even
1183:Middlewares/ST/STM32_SPWF0xSy/wifi_module.c **** 
1184:Middlewares/ST/STM32_SPWF0xSy/wifi_module.c ****                 //for making changes in the value of open_web_sockets[sock_id] if no error is retur
1185:Middlewares/ST/STM32_SPWF0xSy/wifi_module.c ****                 IO_status_flag.web_socket_close_ongoing = WIFI_TRUE;
1186:Middlewares/ST/STM32_SPWF0xSy/wifi_module.c ****                 
1187:Middlewares/ST/STM32_SPWF0xSy/wifi_module.c ****                 //prevent the OK received after socket close command to be Q'ed
1188:Middlewares/ST/STM32_SPWF0xSy/wifi_module.c ****                 IO_status_flag.prevent_push_OK_event       = WIFI_TRUE;
1189:Middlewares/ST/STM32_SPWF0xSy/wifi_module.c ****               }
1190:Middlewares/ST/STM32_SPWF0xSy/wifi_module.c ****               else
1191:Middlewares/ST/STM32_SPWF0xSy/wifi_module.c ****               {
1192:Middlewares/ST/STM32_SPWF0xSy/wifi_module.c ****                 #if DEBUG_PRINT
1193:Middlewares/ST/STM32_SPWF0xSy/wifi_module.c ****                   printf("\r\n ERROR During Socket Close \r\n");
1194:Middlewares/ST/STM32_SPWF0xSy/wifi_module.c ****                 #endif
1195:Middlewares/ST/STM32_SPWF0xSy/wifi_module.c ****               }
1196:Middlewares/ST/STM32_SPWF0xSy/wifi_module.c ****             }
1197:Middlewares/ST/STM32_SPWF0xSy/wifi_module.c ****             break;
1198:Middlewares/ST/STM32_SPWF0xSy/wifi_module.c **** 
1199:Middlewares/ST/STM32_SPWF0xSy/wifi_module.c ****         #endif
1200:Middlewares/ST/STM32_SPWF0xSy/wifi_module.c **** 
1201:Middlewares/ST/STM32_SPWF0xSy/wifi_module.c ****         case WIFI_HTTP_EVENT:
1202:Middlewares/ST/STM32_SPWF0xSy/wifi_module.c ****           Reset_AT_CMD_Buffer();  
1203:Middlewares/ST/STM32_SPWF0xSy/wifi_module.c ****           #if defined(CONSOLE_UART_ENABLED)
1204:Middlewares/ST/STM32_SPWF0xSy/wifi_module.c ****             if(WiFi_Counter_Variables.http_ind==1) 
1205:Middlewares/ST/STM32_SPWF0xSy/wifi_module.c ****               sprintf((char*)WiFi_AT_Cmd_Buff,AT_HTTPPOST_REQUEST,WiFi_Counter_Variables.curr_hostn
1206:Middlewares/ST/STM32_SPWF0xSy/wifi_module.c ****             else if(WiFi_Counter_Variables.http_ind==0) 
1207:Middlewares/ST/STM32_SPWF0xSy/wifi_module.c ****               sprintf((char*)WiFi_AT_Cmd_Buff,AT_HTTPGET_REQUEST,WiFi_Counter_Variables.curr_hostna
1208:Middlewares/ST/STM32_SPWF0xSy/wifi_module.c **** 
1209:Middlewares/ST/STM32_SPWF0xSy/wifi_module.c ****             status = USART_Transmit_AT_Cmd(strlen((char*)WiFi_AT_Cmd_Buff));
1210:Middlewares/ST/STM32_SPWF0xSy/wifi_module.c ****           #else /*SPI Tx*/
1211:Middlewares/ST/STM32_SPWF0xSy/wifi_module.c ****             if(WiFi_Counter_Variables.http_ind==1) 
1212:Middlewares/ST/STM32_SPWF0xSy/wifi_module.c ****             {
1213:Middlewares/ST/STM32_SPWF0xSy/wifi_module.c ****               if(WiFi_Counter_Variables.curr_port_number!=0)
1214:Middlewares/ST/STM32_SPWF0xSy/wifi_module.c ****                 sprintf((char*)WiFi_AT_Cmd_Buff,"AT+S.HTTPPOST=%s,%s,%d,0,NULL,NULL,NULL,NULL",WiFi
1215:Middlewares/ST/STM32_SPWF0xSy/wifi_module.c ****               else 
1216:Middlewares/ST/STM32_SPWF0xSy/wifi_module.c ****                 sprintf((char*)WiFi_AT_Cmd_Buff,"AT+S.HTTPPOST=%s,%s",WiFi_Counter_Variables.curr_h
1217:Middlewares/ST/STM32_SPWF0xSy/wifi_module.c ****             }
1218:Middlewares/ST/STM32_SPWF0xSy/wifi_module.c ****             else if(WiFi_Counter_Variables.http_ind==0) 
ARM GAS  D:\cygwin64\tmp\cckuROSo.s 			page 31


1219:Middlewares/ST/STM32_SPWF0xSy/wifi_module.c ****             {
1220:Middlewares/ST/STM32_SPWF0xSy/wifi_module.c ****               if(WiFi_Counter_Variables.curr_port_number!=0)
1221:Middlewares/ST/STM32_SPWF0xSy/wifi_module.c ****                 sprintf((char*)WiFi_AT_Cmd_Buff,"AT+S.HTTPGET=%s,%s,%d,0,NULL,NULL,NULL,NULL",WiFi_
1222:Middlewares/ST/STM32_SPWF0xSy/wifi_module.c ****               else 
1223:Middlewares/ST/STM32_SPWF0xSy/wifi_module.c ****                 sprintf((char*)WiFi_AT_Cmd_Buff,"AT+S.HTTPGET=%s,%s,80,0,NULL,NULL,NULL,NULL",WiFi_
1224:Middlewares/ST/STM32_SPWF0xSy/wifi_module.c ****             }
1225:Middlewares/ST/STM32_SPWF0xSy/wifi_module.c **** 
1226:Middlewares/ST/STM32_SPWF0xSy/wifi_module.c ****             run_spi_cmd((char*)WiFi_AT_Cmd_Buff, SPI_POLL);
1227:Middlewares/ST/STM32_SPWF0xSy/wifi_module.c ****             status = WiFi_MODULE_SUCCESS;//@TBD: Check return error code
1228:Middlewares/ST/STM32_SPWF0xSy/wifi_module.c ****           #endif
1229:Middlewares/ST/STM32_SPWF0xSy/wifi_module.c ****           if(status == WiFi_MODULE_SUCCESS)
1230:Middlewares/ST/STM32_SPWF0xSy/wifi_module.c ****           {
1231:Middlewares/ST/STM32_SPWF0xSy/wifi_module.c ****             WiFi_Counter_Variables.timeout_tick = 0;
1232:Middlewares/ST/STM32_SPWF0xSy/wifi_module.c ****             WiFi_Control_Variables.enable_timeout_timer = WIFI_TRUE;
1233:Middlewares/ST/STM32_SPWF0xSy/wifi_module.c ****             WiFi_Control_Variables.stop_event_dequeue = WIFI_TRUE;
1234:Middlewares/ST/STM32_SPWF0xSy/wifi_module.c ****             WiFi_Control_Variables.Ok_terminated_data_request_pending = WIFI_TRUE;
1235:Middlewares/ST/STM32_SPWF0xSy/wifi_module.c ****             IO_status_flag.AT_event_processing = WIFI_HTTP_EVENT;
1236:Middlewares/ST/STM32_SPWF0xSy/wifi_module.c ****           }
1237:Middlewares/ST/STM32_SPWF0xSy/wifi_module.c ****           else
1238:Middlewares/ST/STM32_SPWF0xSy/wifi_module.c ****           {
1239:Middlewares/ST/STM32_SPWF0xSy/wifi_module.c ****             #if DEBUG_PRINT
1240:Middlewares/ST/STM32_SPWF0xSy/wifi_module.c ****               printf("\r\n ERROR DURING HTTP COMMAND TRANSFER \r\n");
1241:Middlewares/ST/STM32_SPWF0xSy/wifi_module.c ****             #endif
1242:Middlewares/ST/STM32_SPWF0xSy/wifi_module.c ****             WiFi_Counter_Variables.AT_RESPONSE = WiFi_AT_CMD_RESP_ERROR;
1243:Middlewares/ST/STM32_SPWF0xSy/wifi_module.c ****             IO_status_flag.AT_Response_Received = WIFI_TRUE;
1244:Middlewares/ST/STM32_SPWF0xSy/wifi_module.c ****           }       
1245:Middlewares/ST/STM32_SPWF0xSy/wifi_module.c ****           break;
1246:Middlewares/ST/STM32_SPWF0xSy/wifi_module.c **** 
1247:Middlewares/ST/STM32_SPWF0xSy/wifi_module.c ****         case WIFI_CLIENT_SOCKET_WRITE_EVENT:
1248:Middlewares/ST/STM32_SPWF0xSy/wifi_module.c ****           Reset_AT_CMD_Buffer();
1249:Middlewares/ST/STM32_SPWF0xSy/wifi_module.c **** 
1250:Middlewares/ST/STM32_SPWF0xSy/wifi_module.c ****           /* AT+S.SOCKW=00,11<cr> */
1251:Middlewares/ST/STM32_SPWF0xSy/wifi_module.c ****           #if defined(CONSOLE_UART_ENABLED)
1252:Middlewares/ST/STM32_SPWF0xSy/wifi_module.c ****             sprintf((char*)WiFi_AT_Cmd_Buff,AT_SOCKET_WRITE, WiFi_Counter_Variables.curr_sockID, Wi
1253:Middlewares/ST/STM32_SPWF0xSy/wifi_module.c ****             status = USART_Transmit_AT_Cmd(strlen((char*)WiFi_AT_Cmd_Buff));
1254:Middlewares/ST/STM32_SPWF0xSy/wifi_module.c ****           #else
1255:Middlewares/ST/STM32_SPWF0xSy/wifi_module.c ****             sprintf((char*)WiFi_AT_Cmd_Buff,"AT+S.SOCKW=%d,%d %s", WiFi_Counter_Variables.curr_sock
1256:Middlewares/ST/STM32_SPWF0xSy/wifi_module.c ****             run_spi_cmd((char*)WiFi_AT_Cmd_Buff, SPI_POLL);
1257:Middlewares/ST/STM32_SPWF0xSy/wifi_module.c ****             status = WiFi_MODULE_SUCCESS;//@TBD: Check return error code
1258:Middlewares/ST/STM32_SPWF0xSy/wifi_module.c ****           #endif
1259:Middlewares/ST/STM32_SPWF0xSy/wifi_module.c ****           if(status == WiFi_MODULE_SUCCESS) 
1260:Middlewares/ST/STM32_SPWF0xSy/wifi_module.c ****           {
1261:Middlewares/ST/STM32_SPWF0xSy/wifi_module.c ****             Reset_AT_CMD_Buffer();                                
1262:Middlewares/ST/STM32_SPWF0xSy/wifi_module.c ****             #if defined(CONSOLE_UART_ENABLED)
1263:Middlewares/ST/STM32_SPWF0xSy/wifi_module.c ****               
1264:Middlewares/ST/STM32_SPWF0xSy/wifi_module.c ****               #if defined(SPWF01)
1265:Middlewares/ST/STM32_SPWF0xSy/wifi_module.c ****                 #if defined (USE_STM32L0XX_NUCLEO) || (USE_STM32F4XX_NUCLEO) || (USE_STM32L4XX_NUCL
1266:Middlewares/ST/STM32_SPWF0xSy/wifi_module.c ****                   __disable_irq();
1267:Middlewares/ST/STM32_SPWF0xSy/wifi_module.c ****                 #endif
1268:Middlewares/ST/STM32_SPWF0xSy/wifi_module.c ****                 if(HAL_UART_Transmit_IT(&UartWiFiHandle, (uint8_t *)WiFi_Counter_Variables.curr_dat
1269:Middlewares/ST/STM32_SPWF0xSy/wifi_module.c ****                 {
1270:Middlewares/ST/STM32_SPWF0xSy/wifi_module.c ****                   status = WiFi_HAL_UART_ERROR;
1271:Middlewares/ST/STM32_SPWF0xSy/wifi_module.c ****                 }
1272:Middlewares/ST/STM32_SPWF0xSy/wifi_module.c ****                 #if defined (USE_STM32L0XX_NUCLEO) || (USE_STM32F4XX_NUCLEO) || (USE_STM32L4XX_NUCL
1273:Middlewares/ST/STM32_SPWF0xSy/wifi_module.c ****                   __enable_irq();
1274:Middlewares/ST/STM32_SPWF0xSy/wifi_module.c ****                 #endif
1275:Middlewares/ST/STM32_SPWF0xSy/wifi_module.c ****               #else
ARM GAS  D:\cygwin64\tmp\cckuROSo.s 			page 32


1276:Middlewares/ST/STM32_SPWF0xSy/wifi_module.c ****                 WiFi_Control_Variables.stop_event_dequeue = WIFI_TRUE;
1277:Middlewares/ST/STM32_SPWF0xSy/wifi_module.c ****                 HAL_status = HAL_UART_Transmit_DMA(&UartWiFiHandle, (uint8_t *)WiFi_Counter_Variabl
1278:Middlewares/ST/STM32_SPWF0xSy/wifi_module.c ****               #endif
1279:Middlewares/ST/STM32_SPWF0xSy/wifi_module.c **** 
1280:Middlewares/ST/STM32_SPWF0xSy/wifi_module.c ****             #else
1281:Middlewares/ST/STM32_SPWF0xSy/wifi_module.c ****               //SPI_Transmit_Manager_Poll(WiFi_AT_Cmd_Buff, WiFi_Counter_Variables.curr_DataLength)
1282:Middlewares/ST/STM32_SPWF0xSy/wifi_module.c ****               status = WiFi_MODULE_SUCCESS;//@TBD: Check return error code
1283:Middlewares/ST/STM32_SPWF0xSy/wifi_module.c ****               IO_status_flag.AT_event_processing = WIFI_CLIENT_SOCKET_WRITE_EVENT;
1284:Middlewares/ST/STM32_SPWF0xSy/wifi_module.c ****               IO_status_flag.send_data = WIFI_TRUE;
1285:Middlewares/ST/STM32_SPWF0xSy/wifi_module.c ****               WiFi_Control_Variables.stop_event_dequeue = WIFI_TRUE;
1286:Middlewares/ST/STM32_SPWF0xSy/wifi_module.c ****               Start_AT_CMD_Timer();
1287:Middlewares/ST/STM32_SPWF0xSy/wifi_module.c ****             #endif
1288:Middlewares/ST/STM32_SPWF0xSy/wifi_module.c ****           }
1289:Middlewares/ST/STM32_SPWF0xSy/wifi_module.c ****           if(status != WiFi_MODULE_SUCCESS || HAL_status != HAL_OK)
1290:Middlewares/ST/STM32_SPWF0xSy/wifi_module.c ****           {
1291:Middlewares/ST/STM32_SPWF0xSy/wifi_module.c ****             #if DEBUG_PRINT
1292:Middlewares/ST/STM32_SPWF0xSy/wifi_module.c ****               printf("\r\n ERROR In Socket Write\r\n");
1293:Middlewares/ST/STM32_SPWF0xSy/wifi_module.c ****             #endif
1294:Middlewares/ST/STM32_SPWF0xSy/wifi_module.c ****             IO_status_flag.AT_Response_Received = WIFI_TRUE;
1295:Middlewares/ST/STM32_SPWF0xSy/wifi_module.c ****             WiFi_Counter_Variables.AT_RESPONSE = WiFi_AT_CMD_RESP_ERROR;
1296:Middlewares/ST/STM32_SPWF0xSy/wifi_module.c ****           }
1297:Middlewares/ST/STM32_SPWF0xSy/wifi_module.c ****           break;
1298:Middlewares/ST/STM32_SPWF0xSy/wifi_module.c ****           
1299:Middlewares/ST/STM32_SPWF0xSy/wifi_module.c ****         case WIFI_CLIENT_SOCKET_OPEN_EVENT:
1300:Middlewares/ST/STM32_SPWF0xSy/wifi_module.c ****           Reset_AT_CMD_Buffer();
1301:Middlewares/ST/STM32_SPWF0xSy/wifi_module.c ****           #if defined(CONSOLE_UART_ENABLED)
1302:Middlewares/ST/STM32_SPWF0xSy/wifi_module.c ****               /* AT+S.SOCKON = myserver,1234,t <cr> */  
1303:Middlewares/ST/STM32_SPWF0xSy/wifi_module.c ****               sprintf((char*)WiFi_AT_Cmd_Buff,AT_SOCKET_OPEN,WiFi_Counter_Variables.curr_hostname,(
1304:Middlewares/ST/STM32_SPWF0xSy/wifi_module.c ****               status = USART_Transmit_AT_Cmd(strlen((char*)WiFi_AT_Cmd_Buff));
1305:Middlewares/ST/STM32_SPWF0xSy/wifi_module.c ****           #else
1306:Middlewares/ST/STM32_SPWF0xSy/wifi_module.c ****               /* AT+S.SOCKON = myserver,1234,t <cr> */  
1307:Middlewares/ST/STM32_SPWF0xSy/wifi_module.c ****               //@TBD: Set "is_secure_socket" only when the socket being opened is TLS/"s"/"domain.t
1308:Middlewares/ST/STM32_SPWF0xSy/wifi_module.c ****               if((strcmp((char const *)WiFi_Counter_Variables.curr_protocol,"t")!=0) && (strcmp((ch
1309:Middlewares/ST/STM32_SPWF0xSy/wifi_module.c ****                 WiFi_Control_Variables.is_secure_socket = WIFI_TRUE;
1310:Middlewares/ST/STM32_SPWF0xSy/wifi_module.c ****               sprintf((char*)WiFi_AT_Cmd_Buff,"AT+S.SOCKON=%s,%d,NULL,%s",WiFi_Counter_Variables.cu
1311:Middlewares/ST/STM32_SPWF0xSy/wifi_module.c ****               run_spi_cmd((char*)WiFi_AT_Cmd_Buff, SPI_POLL);
1312:Middlewares/ST/STM32_SPWF0xSy/wifi_module.c ****               status = WiFi_MODULE_SUCCESS;//@TBD: Check return error code from run_spi_cmd
1313:Middlewares/ST/STM32_SPWF0xSy/wifi_module.c ****           #endif
1314:Middlewares/ST/STM32_SPWF0xSy/wifi_module.c **** 
1315:Middlewares/ST/STM32_SPWF0xSy/wifi_module.c ****           if(status != WiFi_MODULE_SUCCESS)
1316:Middlewares/ST/STM32_SPWF0xSy/wifi_module.c ****           {
1317:Middlewares/ST/STM32_SPWF0xSy/wifi_module.c ****             #if DEBUG_PRINT
1318:Middlewares/ST/STM32_SPWF0xSy/wifi_module.c ****               printf("\r\n ERROR During Socket Open \r\n");
1319:Middlewares/ST/STM32_SPWF0xSy/wifi_module.c ****             #endif
1320:Middlewares/ST/STM32_SPWF0xSy/wifi_module.c ****             IO_status_flag.AT_Response_Received = WIFI_TRUE;
1321:Middlewares/ST/STM32_SPWF0xSy/wifi_module.c ****             WiFi_Counter_Variables.AT_RESPONSE = WiFi_AT_CMD_RESP_ERROR;
1322:Middlewares/ST/STM32_SPWF0xSy/wifi_module.c ****           }
1323:Middlewares/ST/STM32_SPWF0xSy/wifi_module.c ****           else
1324:Middlewares/ST/STM32_SPWF0xSy/wifi_module.c ****           {
1325:Middlewares/ST/STM32_SPWF0xSy/wifi_module.c ****             IO_status_flag.AT_event_processing = WIFI_CLIENT_SOCKET_OPEN_EVENT;
1326:Middlewares/ST/STM32_SPWF0xSy/wifi_module.c ****             WiFi_Counter_Variables.timeout_tick = 0;
1327:Middlewares/ST/STM32_SPWF0xSy/wifi_module.c ****             WiFi_Control_Variables.enable_timeout_timer = WIFI_TRUE;                               
1328:Middlewares/ST/STM32_SPWF0xSy/wifi_module.c ****           }
1329:Middlewares/ST/STM32_SPWF0xSy/wifi_module.c ****           break;
1330:Middlewares/ST/STM32_SPWF0xSy/wifi_module.c **** 
1331:Middlewares/ST/STM32_SPWF0xSy/wifi_module.c ****         case WIFI_SERVER_SOCKET_OPEN_EVENT:  
1332:Middlewares/ST/STM32_SPWF0xSy/wifi_module.c ****           Reset_AT_CMD_Buffer();
ARM GAS  D:\cygwin64\tmp\cckuROSo.s 			page 33


1333:Middlewares/ST/STM32_SPWF0xSy/wifi_module.c ****           /* AT+S.SOCKDON=portNo,t<cr> */
1334:Middlewares/ST/STM32_SPWF0xSy/wifi_module.c ****           #if defined(CONSOLE_UART_ENABLED)
1335:Middlewares/ST/STM32_SPWF0xSy/wifi_module.c ****             sprintf((char*)WiFi_AT_Cmd_Buff,AT_SERVER_SOCKET_OPEN,(int)WiFi_Counter_Variables.curr_
1336:Middlewares/ST/STM32_SPWF0xSy/wifi_module.c ****             status = USART_Transmit_AT_Cmd(strlen((char*)WiFi_AT_Cmd_Buff));
1337:Middlewares/ST/STM32_SPWF0xSy/wifi_module.c ****           #else
1338:Middlewares/ST/STM32_SPWF0xSy/wifi_module.c ****             sprintf((char*)WiFi_AT_Cmd_Buff,"AT+S.SOCKDON=%d,%s",(int)WiFi_Counter_Variables.curr_p
1339:Middlewares/ST/STM32_SPWF0xSy/wifi_module.c ****             run_spi_cmd((char*)WiFi_AT_Cmd_Buff, SPI_POLL);
1340:Middlewares/ST/STM32_SPWF0xSy/wifi_module.c ****             status = WiFi_MODULE_SUCCESS;//@TBD: Check return error code from run_spi_cmd
1341:Middlewares/ST/STM32_SPWF0xSy/wifi_module.c ****           #endif
1342:Middlewares/ST/STM32_SPWF0xSy/wifi_module.c ****                           
1343:Middlewares/ST/STM32_SPWF0xSy/wifi_module.c ****           if(status != WiFi_MODULE_SUCCESS)
1344:Middlewares/ST/STM32_SPWF0xSy/wifi_module.c ****           {
1345:Middlewares/ST/STM32_SPWF0xSy/wifi_module.c ****             #if DEBUG_PRINT
1346:Middlewares/ST/STM32_SPWF0xSy/wifi_module.c ****               printf("\r\n ERROR During Server Socket Open \r\n");
1347:Middlewares/ST/STM32_SPWF0xSy/wifi_module.c ****             #endif
1348:Middlewares/ST/STM32_SPWF0xSy/wifi_module.c ****             IO_status_flag.AT_Response_Received = WIFI_TRUE;
1349:Middlewares/ST/STM32_SPWF0xSy/wifi_module.c ****             WiFi_Counter_Variables.AT_RESPONSE = WiFi_AT_CMD_RESP_ERROR;
1350:Middlewares/ST/STM32_SPWF0xSy/wifi_module.c ****           }
1351:Middlewares/ST/STM32_SPWF0xSy/wifi_module.c ****           else
1352:Middlewares/ST/STM32_SPWF0xSy/wifi_module.c ****           {
1353:Middlewares/ST/STM32_SPWF0xSy/wifi_module.c ****             IO_status_flag.AT_event_processing = WIFI_SERVER_SOCKET_OPEN_EVENT;
1354:Middlewares/ST/STM32_SPWF0xSy/wifi_module.c ****             WiFi_Counter_Variables.timeout_tick = 0;
1355:Middlewares/ST/STM32_SPWF0xSy/wifi_module.c ****             WiFi_Control_Variables.enable_timeout_timer = WIFI_TRUE;
1356:Middlewares/ST/STM32_SPWF0xSy/wifi_module.c ****           }
1357:Middlewares/ST/STM32_SPWF0xSy/wifi_module.c ****           break;
1358:Middlewares/ST/STM32_SPWF0xSy/wifi_module.c ****                         
1359:Middlewares/ST/STM32_SPWF0xSy/wifi_module.c ****         case WIFI_CLIENT_SOCKET_CLOSE_EVENT:
1360:Middlewares/ST/STM32_SPWF0xSy/wifi_module.c ****           if(open_sockets[wifi_instances.DeQed_wifi_event->socket_id])
1361:Middlewares/ST/STM32_SPWF0xSy/wifi_module.c ****           {
1362:Middlewares/ST/STM32_SPWF0xSy/wifi_module.c ****             Reset_AT_CMD_Buffer();
1363:Middlewares/ST/STM32_SPWF0xSy/wifi_module.c ****             //@TBD: Do a SOCK.R (Read) before closing the socket
1364:Middlewares/ST/STM32_SPWF0xSy/wifi_module.c ****              #if defined(CONSOLE_UART_ENABLED)
1365:Middlewares/ST/STM32_SPWF0xSy/wifi_module.c ****                  /* AT+S.SOCKC=00<cr> */                                
1366:Middlewares/ST/STM32_SPWF0xSy/wifi_module.c ****                 sprintf((char*)WiFi_AT_Cmd_Buff,AT_SOCKET_CLOSE,wifi_instances.DeQed_wifi_event->so
1367:Middlewares/ST/STM32_SPWF0xSy/wifi_module.c ****                 status = USART_Transmit_AT_Cmd(strlen((char*)WiFi_AT_Cmd_Buff));
1368:Middlewares/ST/STM32_SPWF0xSy/wifi_module.c ****             #else
1369:Middlewares/ST/STM32_SPWF0xSy/wifi_module.c ****                 sprintf((char*)WiFi_AT_Cmd_Buff,"AT+S.SOCKC=%d",wifi_instances.DeQed_wifi_event->so
1370:Middlewares/ST/STM32_SPWF0xSy/wifi_module.c ****                 run_spi_cmd((char*)WiFi_AT_Cmd_Buff, SPI_POLL);
1371:Middlewares/ST/STM32_SPWF0xSy/wifi_module.c ****                 status = WiFi_MODULE_SUCCESS;//@TBD: Check return error code from run_spi_cmd
1372:Middlewares/ST/STM32_SPWF0xSy/wifi_module.c ****             #endif
1373:Middlewares/ST/STM32_SPWF0xSy/wifi_module.c ****             if(status == WiFi_MODULE_SUCCESS)
1374:Middlewares/ST/STM32_SPWF0xSy/wifi_module.c ****             {
1375:Middlewares/ST/STM32_SPWF0xSy/wifi_module.c ****               WiFi_Counter_Variables.AT_RESPONSE = WiFi_MODULE_SUCCESS;
1376:Middlewares/ST/STM32_SPWF0xSy/wifi_module.c ****               WiFi_Control_Variables.stop_event_dequeue          = WIFI_TRUE;
1377:Middlewares/ST/STM32_SPWF0xSy/wifi_module.c ****               WiFi_Counter_Variables.remote_socket_closed_id     = wifi_instances.DeQed_wifi_event-
1378:Middlewares/ST/STM32_SPWF0xSy/wifi_module.c ****               
1379:Middlewares/ST/STM32_SPWF0xSy/wifi_module.c ****               //for making changes in the value of open_sockets[sock_id] if no error is returned
1380:Middlewares/ST/STM32_SPWF0xSy/wifi_module.c ****               IO_status_flag.client_socket_close_ongoing = WIFI_TRUE;
1381:Middlewares/ST/STM32_SPWF0xSy/wifi_module.c ****               
1382:Middlewares/ST/STM32_SPWF0xSy/wifi_module.c ****               //prevent the OK received after socket close command to be Q'ed
1383:Middlewares/ST/STM32_SPWF0xSy/wifi_module.c ****               IO_status_flag.prevent_push_OK_event       = WIFI_TRUE;
1384:Middlewares/ST/STM32_SPWF0xSy/wifi_module.c ****             }
1385:Middlewares/ST/STM32_SPWF0xSy/wifi_module.c ****             else
1386:Middlewares/ST/STM32_SPWF0xSy/wifi_module.c ****             {
1387:Middlewares/ST/STM32_SPWF0xSy/wifi_module.c ****               #if DEBUG_PRINT
1388:Middlewares/ST/STM32_SPWF0xSy/wifi_module.c ****                 printf("\r\n ERROR During Socket Close \r\n");
1389:Middlewares/ST/STM32_SPWF0xSy/wifi_module.c ****               #endif
ARM GAS  D:\cygwin64\tmp\cckuROSo.s 			page 34


1390:Middlewares/ST/STM32_SPWF0xSy/wifi_module.c ****             }
1391:Middlewares/ST/STM32_SPWF0xSy/wifi_module.c ****           }
1392:Middlewares/ST/STM32_SPWF0xSy/wifi_module.c ****           else
1393:Middlewares/ST/STM32_SPWF0xSy/wifi_module.c ****             printf("\r\n Socket already close");
1394:Middlewares/ST/STM32_SPWF0xSy/wifi_module.c ****           break; 
1395:Middlewares/ST/STM32_SPWF0xSy/wifi_module.c **** 
1396:Middlewares/ST/STM32_SPWF0xSy/wifi_module.c ****         case WIFI_SERVER_SOCKET_CLOSE_EVENT:
1397:Middlewares/ST/STM32_SPWF0xSy/wifi_module.c ****           Reset_AT_CMD_Buffer();
1398:Middlewares/ST/STM32_SPWF0xSy/wifi_module.c ****           #ifdef SPWF04
1399:Middlewares/ST/STM32_SPWF0xSy/wifi_module.c ****             if(open_server_sockets[wifi_instances.DeQed_wifi_event->server_id])
1400:Middlewares/ST/STM32_SPWF0xSy/wifi_module.c ****             {
1401:Middlewares/ST/STM32_SPWF0xSy/wifi_module.c ****               #if defined(CONSOLE_UART_ENABLED)
1402:Middlewares/ST/STM32_SPWF0xSy/wifi_module.c ****                 if(wifi_instances.DeQed_wifi_event->socket_id != 9)
1403:Middlewares/ST/STM32_SPWF0xSy/wifi_module.c ****                 {
1404:Middlewares/ST/STM32_SPWF0xSy/wifi_module.c ****                   /* cannot check if the socket we are trying to close is connected to socket or no
1405:Middlewares/ST/STM32_SPWF0xSy/wifi_module.c ****                      in tls sometimes we get wind:62 without getting wind:61. */
1406:Middlewares/ST/STM32_SPWF0xSy/wifi_module.c ****                     sprintf((char *)WiFi_AT_Cmd_Buff,AT_SPECIFIC_CLIENT_ON_SERVER_CLOSE,wifi_instan
1407:Middlewares/ST/STM32_SPWF0xSy/wifi_module.c ****                     WiFi_Control_Variables.close_specific_client = WIFI_TRUE;
1408:Middlewares/ST/STM32_SPWF0xSy/wifi_module.c ****                 }
1409:Middlewares/ST/STM32_SPWF0xSy/wifi_module.c ****                 else
1410:Middlewares/ST/STM32_SPWF0xSy/wifi_module.c ****                 {
1411:Middlewares/ST/STM32_SPWF0xSy/wifi_module.c ****                   /* @TBD: Not implemented now */
1412:Middlewares/ST/STM32_SPWF0xSy/wifi_module.c ****                   WiFi_Control_Variables.stop_event_dequeue      = WIFI_TRUE;
1413:Middlewares/ST/STM32_SPWF0xSy/wifi_module.c ****                   /* Query every connected client and if result of all query zero then close the se
1414:Middlewares/ST/STM32_SPWF0xSy/wifi_module.c ****                   sprintf((char *)WiFi_AT_Cmd_Buff,AT_SERVER_SOCKET_CLOSE,wifi_instances.DeQed_wifi
1415:Middlewares/ST/STM32_SPWF0xSy/wifi_module.c ****                   WiFi_Control_Variables.close_complete_server_socket = WIFI_TRUE;
1416:Middlewares/ST/STM32_SPWF0xSy/wifi_module.c ****                 }
1417:Middlewares/ST/STM32_SPWF0xSy/wifi_module.c ****                 status = USART_Transmit_AT_Cmd(strlen((char*)WiFi_AT_Cmd_Buff));
1418:Middlewares/ST/STM32_SPWF0xSy/wifi_module.c ****               #else
1419:Middlewares/ST/STM32_SPWF0xSy/wifi_module.c ****                 if(wifi_instances.DeQed_wifi_event->socket_id != 9)
1420:Middlewares/ST/STM32_SPWF0xSy/wifi_module.c ****                 {
1421:Middlewares/ST/STM32_SPWF0xSy/wifi_module.c ****                     /* cannot check if the socket we are trying to close is connected to socket or 
1422:Middlewares/ST/STM32_SPWF0xSy/wifi_module.c ****                      in tls sometimes we get wind:62 without getting wind:61. */
1423:Middlewares/ST/STM32_SPWF0xSy/wifi_module.c ****                     sprintf((char*)WiFi_AT_Cmd_Buff,"AT+S.SOCKDC=%d,%d",wifi_instances.DeQed_wifi_e
1424:Middlewares/ST/STM32_SPWF0xSy/wifi_module.c ****                     WiFi_Control_Variables.close_specific_client = WIFI_TRUE;
1425:Middlewares/ST/STM32_SPWF0xSy/wifi_module.c ****                 }
1426:Middlewares/ST/STM32_SPWF0xSy/wifi_module.c ****                 else
1427:Middlewares/ST/STM32_SPWF0xSy/wifi_module.c ****                   sprintf((char*)WiFi_AT_Cmd_Buff,"AT+S.SOCKDC=%d",wifi_instances.DeQed_wifi_event-
1428:Middlewares/ST/STM32_SPWF0xSy/wifi_module.c ****                 run_spi_cmd((char*)WiFi_AT_Cmd_Buff, SPI_POLL);
1429:Middlewares/ST/STM32_SPWF0xSy/wifi_module.c ****                 status = WiFi_MODULE_SUCCESS;//@TBD: Check return error code from run_spi_cmd
1430:Middlewares/ST/STM32_SPWF0xSy/wifi_module.c ****               #endif
1431:Middlewares/ST/STM32_SPWF0xSy/wifi_module.c ****               if(status == WiFi_MODULE_SUCCESS)
1432:Middlewares/ST/STM32_SPWF0xSy/wifi_module.c ****               {
1433:Middlewares/ST/STM32_SPWF0xSy/wifi_module.c ****                 WiFi_Counter_Variables.AT_RESPONSE = WiFi_MODULE_SUCCESS;
1434:Middlewares/ST/STM32_SPWF0xSy/wifi_module.c ****                 WiFi_Control_Variables.stop_event_dequeue      = WIFI_TRUE;
1435:Middlewares/ST/STM32_SPWF0xSy/wifi_module.c ****                 WiFi_Counter_Variables.remote_server_closed_id = wifi_instances.DeQed_wifi_event->s
1436:Middlewares/ST/STM32_SPWF0xSy/wifi_module.c ****                 WiFi_Counter_Variables.remote_socket_closed_id = wifi_instances.DeQed_wifi_event->s
1437:Middlewares/ST/STM32_SPWF0xSy/wifi_module.c **** 
1438:Middlewares/ST/STM32_SPWF0xSy/wifi_module.c ****                 //for making changes in the value of open_sockets[sock_id] if no error is returned
1439:Middlewares/ST/STM32_SPWF0xSy/wifi_module.c ****                 IO_status_flag.server_socket_close_ongoing = WIFI_TRUE;
1440:Middlewares/ST/STM32_SPWF0xSy/wifi_module.c **** 
1441:Middlewares/ST/STM32_SPWF0xSy/wifi_module.c ****                 //prevent the OK received after socket close command to be Q'ed
1442:Middlewares/ST/STM32_SPWF0xSy/wifi_module.c ****                 IO_status_flag.prevent_push_OK_event       = WIFI_TRUE;
1443:Middlewares/ST/STM32_SPWF0xSy/wifi_module.c ****               }
1444:Middlewares/ST/STM32_SPWF0xSy/wifi_module.c ****               else
1445:Middlewares/ST/STM32_SPWF0xSy/wifi_module.c ****               {
1446:Middlewares/ST/STM32_SPWF0xSy/wifi_module.c ****                 #if DEBUG_PRINT
ARM GAS  D:\cygwin64\tmp\cckuROSo.s 			page 35


1447:Middlewares/ST/STM32_SPWF0xSy/wifi_module.c ****                   printf("\r\n ERROR During Socket Close \r\n");
1448:Middlewares/ST/STM32_SPWF0xSy/wifi_module.c ****                 #endif
1449:Middlewares/ST/STM32_SPWF0xSy/wifi_module.c ****               }
1450:Middlewares/ST/STM32_SPWF0xSy/wifi_module.c ****             }
1451:Middlewares/ST/STM32_SPWF0xSy/wifi_module.c ****           #else
1452:Middlewares/ST/STM32_SPWF0xSy/wifi_module.c ****             sprintf((char *)WiFi_AT_Cmd_Buff,AT_SERVER_SOCKET_CLOSE);
1453:Middlewares/ST/STM32_SPWF0xSy/wifi_module.c ****             status = USART_Transmit_AT_Cmd(strlen((char*)WiFi_AT_Cmd_Buff));
1454:Middlewares/ST/STM32_SPWF0xSy/wifi_module.c ****             if(status == WiFi_MODULE_SUCCESS)
1455:Middlewares/ST/STM32_SPWF0xSy/wifi_module.c ****             {
1456:Middlewares/ST/STM32_SPWF0xSy/wifi_module.c ****               WiFi_Counter_Variables.AT_RESPONSE = WiFi_MODULE_SUCCESS;
1457:Middlewares/ST/STM32_SPWF0xSy/wifi_module.c ****               WiFi_Control_Variables.stop_event_dequeue = WIFI_TRUE;
1458:Middlewares/ST/STM32_SPWF0xSy/wifi_module.c ****             }
1459:Middlewares/ST/STM32_SPWF0xSy/wifi_module.c ****           #endif
1460:Middlewares/ST/STM32_SPWF0xSy/wifi_module.c ****           break;
1461:Middlewares/ST/STM32_SPWF0xSy/wifi_module.c **** 
1462:Middlewares/ST/STM32_SPWF0xSy/wifi_module.c ****         case WIFI_FILE_CREATE_EVENT:
1463:Middlewares/ST/STM32_SPWF0xSy/wifi_module.c ****           Reset_AT_CMD_Buffer();
1464:Middlewares/ST/STM32_SPWF0xSy/wifi_module.c ****           
1465:Middlewares/ST/STM32_SPWF0xSy/wifi_module.c ****           /* AT+S.FSC=/index.html,<datalength> */
1466:Middlewares/ST/STM32_SPWF0xSy/wifi_module.c ****           #ifdef CONSOLE_UART_ENABLED
1467:Middlewares/ST/STM32_SPWF0xSy/wifi_module.c ****             sprintf((char*)WiFi_AT_Cmd_Buff, AT_CREATE_FILE, WiFi_Counter_Variables.curr_filename, 
1468:Middlewares/ST/STM32_SPWF0xSy/wifi_module.c **** 
1469:Middlewares/ST/STM32_SPWF0xSy/wifi_module.c ****             status = USART_Transmit_AT_Cmd(strlen((char*)WiFi_AT_Cmd_Buff));
1470:Middlewares/ST/STM32_SPWF0xSy/wifi_module.c ****             if (status != WiFi_MODULE_SUCCESS)
1471:Middlewares/ST/STM32_SPWF0xSy/wifi_module.c ****             {
1472:Middlewares/ST/STM32_SPWF0xSy/wifi_module.c ****               IO_status_flag.AT_Response_Received = WIFI_TRUE;
1473:Middlewares/ST/STM32_SPWF0xSy/wifi_module.c ****               WiFi_Counter_Variables.AT_RESPONSE = WiFi_AT_CMD_RESP_ERROR;
1474:Middlewares/ST/STM32_SPWF0xSy/wifi_module.c ****             }
1475:Middlewares/ST/STM32_SPWF0xSy/wifi_module.c ****             else
1476:Middlewares/ST/STM32_SPWF0xSy/wifi_module.c ****             {
1477:Middlewares/ST/STM32_SPWF0xSy/wifi_module.c ****               #ifdef SPWF01
1478:Middlewares/ST/STM32_SPWF0xSy/wifi_module.c ****                 status = USART_Receive_AT_Resp( );
1479:Middlewares/ST/STM32_SPWF0xSy/wifi_module.c ****                 if(status != WiFi_MODULE_SUCCESS)  
1480:Middlewares/ST/STM32_SPWF0xSy/wifi_module.c ****                 {
1481:Middlewares/ST/STM32_SPWF0xSy/wifi_module.c ****                   IO_status_flag.AT_Response_Received = WIFI_TRUE;
1482:Middlewares/ST/STM32_SPWF0xSy/wifi_module.c ****                   WiFi_Counter_Variables.AT_RESPONSE = WiFi_AT_CMD_RESP_ERROR;
1483:Middlewares/ST/STM32_SPWF0xSy/wifi_module.c ****                 }
1484:Middlewares/ST/STM32_SPWF0xSy/wifi_module.c **** 
1485:Middlewares/ST/STM32_SPWF0xSy/wifi_module.c ****                 /* AT+S.FSA=/index.html */
1486:Middlewares/ST/STM32_SPWF0xSy/wifi_module.c ****                 sprintf((char*)WiFi_AT_Cmd_Buff,AT_APPEND_FILE,WiFi_Counter_Variables.curr_filename
1487:Middlewares/ST/STM32_SPWF0xSy/wifi_module.c ****                 status = USART_Transmit_AT_Cmd(strlen((char*)WiFi_AT_Cmd_Buff));
1488:Middlewares/ST/STM32_SPWF0xSy/wifi_module.c ****                 if(status != WiFi_MODULE_SUCCESS)
1489:Middlewares/ST/STM32_SPWF0xSy/wifi_module.c ****                 {
1490:Middlewares/ST/STM32_SPWF0xSy/wifi_module.c ****                   IO_status_flag.AT_Response_Received = WIFI_TRUE;
1491:Middlewares/ST/STM32_SPWF0xSy/wifi_module.c ****                   WiFi_Counter_Variables.AT_RESPONSE = WiFi_AT_CMD_RESP_ERROR;
1492:Middlewares/ST/STM32_SPWF0xSy/wifi_module.c ****                 }
1493:Middlewares/ST/STM32_SPWF0xSy/wifi_module.c ****               #endif
1494:Middlewares/ST/STM32_SPWF0xSy/wifi_module.c ****               Reset_AT_CMD_Buffer();
1495:Middlewares/ST/STM32_SPWF0xSy/wifi_module.c ****               memcpy((char*)WiFi_AT_Cmd_Buff, (char*)WiFi_Counter_Variables.curr_data,WiFi_Counter_
1496:Middlewares/ST/STM32_SPWF0xSy/wifi_module.c ****               status = USART_Transmit_AT_Cmd(strlen((char*)WiFi_AT_Cmd_Buff));
1497:Middlewares/ST/STM32_SPWF0xSy/wifi_module.c ****               if(status != WiFi_MODULE_SUCCESS) 
1498:Middlewares/ST/STM32_SPWF0xSy/wifi_module.c ****               {
1499:Middlewares/ST/STM32_SPWF0xSy/wifi_module.c ****                 IO_status_flag.AT_Response_Received = WIFI_TRUE;
1500:Middlewares/ST/STM32_SPWF0xSy/wifi_module.c ****                 WiFi_Counter_Variables.AT_RESPONSE = WiFi_AT_CMD_RESP_ERROR;
1501:Middlewares/ST/STM32_SPWF0xSy/wifi_module.c ****               }
1502:Middlewares/ST/STM32_SPWF0xSy/wifi_module.c ****             }
1503:Middlewares/ST/STM32_SPWF0xSy/wifi_module.c ****             #else  // for SPI SPWF04
ARM GAS  D:\cygwin64\tmp\cckuROSo.s 			page 36


1504:Middlewares/ST/STM32_SPWF0xSy/wifi_module.c ****               sprintf((char*)WiFi_AT_Cmd_Buff,"AT+S.FSC=%s,%d %s", WiFi_Counter_Variables.curr_file
1505:Middlewares/ST/STM32_SPWF0xSy/wifi_module.c ****               run_spi_cmd((char*)WiFi_AT_Cmd_Buff, SPI_POLL);
1506:Middlewares/ST/STM32_SPWF0xSy/wifi_module.c ****               status = WiFi_MODULE_SUCCESS;//@TBD: Check return error code
1507:Middlewares/ST/STM32_SPWF0xSy/wifi_module.c **** 
1508:Middlewares/ST/STM32_SPWF0xSy/wifi_module.c ****               if(status == WiFi_MODULE_SUCCESS) 
1509:Middlewares/ST/STM32_SPWF0xSy/wifi_module.c ****               {
1510:Middlewares/ST/STM32_SPWF0xSy/wifi_module.c ****                 //SPI_Transmit_Manager_Poll(WiFi_AT_Cmd_Buff, WiFi_Counter_Variables.curr_DataLengt
1511:Middlewares/ST/STM32_SPWF0xSy/wifi_module.c ****                 status = WiFi_MODULE_SUCCESS;//@TBD: Check return error code
1512:Middlewares/ST/STM32_SPWF0xSy/wifi_module.c ****                 IO_status_flag.AT_event_processing = WIFI_NO_EVENT;
1513:Middlewares/ST/STM32_SPWF0xSy/wifi_module.c ****                 IO_status_flag.send_data = WIFI_TRUE;
1514:Middlewares/ST/STM32_SPWF0xSy/wifi_module.c ****                 WiFi_Control_Variables.stop_event_dequeue = WIFI_TRUE;
1515:Middlewares/ST/STM32_SPWF0xSy/wifi_module.c ****               }
1516:Middlewares/ST/STM32_SPWF0xSy/wifi_module.c ****             if(status != WiFi_MODULE_SUCCESS)
1517:Middlewares/ST/STM32_SPWF0xSy/wifi_module.c ****             {
1518:Middlewares/ST/STM32_SPWF0xSy/wifi_module.c ****               #if DEBUG_PRINT
1519:Middlewares/ST/STM32_SPWF0xSy/wifi_module.c ****                 printf("\r\n ERROR In Socket Write\r\n");
1520:Middlewares/ST/STM32_SPWF0xSy/wifi_module.c ****               #endif
1521:Middlewares/ST/STM32_SPWF0xSy/wifi_module.c ****               IO_status_flag.AT_Response_Received = WIFI_TRUE;
1522:Middlewares/ST/STM32_SPWF0xSy/wifi_module.c ****               WiFi_Counter_Variables.AT_RESPONSE = WiFi_AT_CMD_RESP_ERROR;
1523:Middlewares/ST/STM32_SPWF0xSy/wifi_module.c ****             }
1524:Middlewares/ST/STM32_SPWF0xSy/wifi_module.c ****             #endif
1525:Middlewares/ST/STM32_SPWF0xSy/wifi_module.c ****             break;
1526:Middlewares/ST/STM32_SPWF0xSy/wifi_module.c ****                           
1527:Middlewares/ST/STM32_SPWF0xSy/wifi_module.c ****           case WIFI_FILE_EVENT:
1528:Middlewares/ST/STM32_SPWF0xSy/wifi_module.c ****             Reset_AT_CMD_Buffer();
1529:Middlewares/ST/STM32_SPWF0xSy/wifi_module.c **** 
1530:Middlewares/ST/STM32_SPWF0xSy/wifi_module.c ****             if(WiFi_Counter_Variables.curr_filename == NULL)
1531:Middlewares/ST/STM32_SPWF0xSy/wifi_module.c ****             {
1532:Middlewares/ST/STM32_SPWF0xSy/wifi_module.c ****               /* AT+S.FSL */
1533:Middlewares/ST/STM32_SPWF0xSy/wifi_module.c ****               #ifdef CONSOLE_UART_ENABLED
1534:Middlewares/ST/STM32_SPWF0xSy/wifi_module.c ****                 sprintf((char*)WiFi_AT_Cmd_Buff,AT_DISPLAY_FILENAME_LIST);
1535:Middlewares/ST/STM32_SPWF0xSy/wifi_module.c ****               #else
1536:Middlewares/ST/STM32_SPWF0xSy/wifi_module.c ****                 sprintf((char*)WiFi_AT_Cmd_Buff,"AT+S.FSL");
1537:Middlewares/ST/STM32_SPWF0xSy/wifi_module.c ****                 run_spi_cmd((char*)WiFi_AT_Cmd_Buff, SPI_POLL);
1538:Middlewares/ST/STM32_SPWF0xSy/wifi_module.c ****                 status = WiFi_MODULE_SUCCESS;//@TBD: Check return error code
1539:Middlewares/ST/STM32_SPWF0xSy/wifi_module.c ****               #endif
1540:Middlewares/ST/STM32_SPWF0xSy/wifi_module.c ****             }
1541:Middlewares/ST/STM32_SPWF0xSy/wifi_module.c ****             else if(WiFi_Counter_Variables.curr_hostname == NULL)
1542:Middlewares/ST/STM32_SPWF0xSy/wifi_module.c ****             {
1543:Middlewares/ST/STM32_SPWF0xSy/wifi_module.c ****               /* AT+S.FSP=/index.html */
1544:Middlewares/ST/STM32_SPWF0xSy/wifi_module.c ****               #ifdef CONSOLE_UART_ENABLED
1545:Middlewares/ST/STM32_SPWF0xSy/wifi_module.c ****                 sprintf((char*)WiFi_AT_Cmd_Buff,AT_DISPLAY_FILE_CONTENT,WiFi_Counter_Variables.curr
1546:Middlewares/ST/STM32_SPWF0xSy/wifi_module.c ****               #else
1547:Middlewares/ST/STM32_SPWF0xSy/wifi_module.c ****                 sprintf((char*)WiFi_AT_Cmd_Buff,"AT+S.FSP=/%s,NULL,NULL",WiFi_Counter_Variables.cur
1548:Middlewares/ST/STM32_SPWF0xSy/wifi_module.c ****                 run_spi_cmd((char*)WiFi_AT_Cmd_Buff, SPI_POLL);
1549:Middlewares/ST/STM32_SPWF0xSy/wifi_module.c ****                 status = WiFi_MODULE_SUCCESS;//@TBD: Check return error code
1550:Middlewares/ST/STM32_SPWF0xSy/wifi_module.c ****               #endif
1551:Middlewares/ST/STM32_SPWF0xSy/wifi_module.c ****             }
1552:Middlewares/ST/STM32_SPWF0xSy/wifi_module.c ****             else
1553:Middlewares/ST/STM32_SPWF0xSy/wifi_module.c ****             {
1554:Middlewares/ST/STM32_SPWF0xSy/wifi_module.c ****               /* AT+S.FSUPDATE=%s,/outfile.img  */
1555:Middlewares/ST/STM32_SPWF0xSy/wifi_module.c ****               #ifdef CONSOLE_UART_ENABLED
1556:Middlewares/ST/STM32_SPWF0xSy/wifi_module.c ****                 sprintf((char*)WiFi_AT_Cmd_Buff,AT_DOWNLOAD_IMAGE_FILE,WiFi_Counter_Variables.curr_
1557:Middlewares/ST/STM32_SPWF0xSy/wifi_module.c ****               #else
1558:Middlewares/ST/STM32_SPWF0xSy/wifi_module.c ****                 sprintf((char*)WiFi_AT_Cmd_Buff,"AT+S.FSUPDATE=e,%s,/%s,%d,NULL,NULL,NULL",WiFi_Cou
1559:Middlewares/ST/STM32_SPWF0xSy/wifi_module.c ****                 run_spi_cmd((char*)WiFi_AT_Cmd_Buff, SPI_POLL);
1560:Middlewares/ST/STM32_SPWF0xSy/wifi_module.c ****                 status = WiFi_MODULE_SUCCESS;//@TBD: Check return error code
ARM GAS  D:\cygwin64\tmp\cckuROSo.s 			page 37


1561:Middlewares/ST/STM32_SPWF0xSy/wifi_module.c ****               #endif
1562:Middlewares/ST/STM32_SPWF0xSy/wifi_module.c ****             }
1563:Middlewares/ST/STM32_SPWF0xSy/wifi_module.c **** 
1564:Middlewares/ST/STM32_SPWF0xSy/wifi_module.c ****             #ifdef CONSOLE_UART_ENABLED
1565:Middlewares/ST/STM32_SPWF0xSy/wifi_module.c ****               status = USART_Transmit_AT_Cmd(strlen((char*)WiFi_AT_Cmd_Buff));
1566:Middlewares/ST/STM32_SPWF0xSy/wifi_module.c ****             #endif
1567:Middlewares/ST/STM32_SPWF0xSy/wifi_module.c ****             if(status == WiFi_MODULE_SUCCESS)
1568:Middlewares/ST/STM32_SPWF0xSy/wifi_module.c ****             {
1569:Middlewares/ST/STM32_SPWF0xSy/wifi_module.c ****               WiFi_Control_Variables.enable_receive_file_response = WIFI_TRUE;
1570:Middlewares/ST/STM32_SPWF0xSy/wifi_module.c ****               #ifdef CONSOLE_UART_ENABLED
1571:Middlewares/ST/STM32_SPWF0xSy/wifi_module.c ****                 #ifdef SPWF01
1572:Middlewares/ST/STM32_SPWF0xSy/wifi_module.c ****                   WiFi_Control_Variables.enable_receive_data_chunk  = WIFI_TRUE;
1573:Middlewares/ST/STM32_SPWF0xSy/wifi_module.c ****                 #endif
1574:Middlewares/ST/STM32_SPWF0xSy/wifi_module.c ****                 WiFi_Control_Variables.enable_receive_http_response = WIFI_TRUE;
1575:Middlewares/ST/STM32_SPWF0xSy/wifi_module.c ****               #else
1576:Middlewares/ST/STM32_SPWF0xSy/wifi_module.c ****                 WiFi_Control_Variables.stop_event_dequeue = WIFI_TRUE;
1577:Middlewares/ST/STM32_SPWF0xSy/wifi_module.c ****                 WiFi_Control_Variables.Ok_terminated_data_request_pending = WIFI_TRUE;
1578:Middlewares/ST/STM32_SPWF0xSy/wifi_module.c ****                 IO_status_flag.AT_event_processing = WIFI_HTTP_EVENT;
1579:Middlewares/ST/STM32_SPWF0xSy/wifi_module.c ****               #endif
1580:Middlewares/ST/STM32_SPWF0xSy/wifi_module.c ****             }
1581:Middlewares/ST/STM32_SPWF0xSy/wifi_module.c ****             else
1582:Middlewares/ST/STM32_SPWF0xSy/wifi_module.c ****             {
1583:Middlewares/ST/STM32_SPWF0xSy/wifi_module.c ****               #if DEBUG_PRINT
1584:Middlewares/ST/STM32_SPWF0xSy/wifi_module.c ****                 printf("\r\n ERROR DURING FILE OPERATION \r\n");
1585:Middlewares/ST/STM32_SPWF0xSy/wifi_module.c ****               #endif
1586:Middlewares/ST/STM32_SPWF0xSy/wifi_module.c ****               IO_status_flag.AT_Response_Received = WIFI_TRUE;
1587:Middlewares/ST/STM32_SPWF0xSy/wifi_module.c ****               WiFi_Counter_Variables.AT_RESPONSE = WiFi_AT_CMD_RESP_ERROR;
1588:Middlewares/ST/STM32_SPWF0xSy/wifi_module.c ****             }
1589:Middlewares/ST/STM32_SPWF0xSy/wifi_module.c ****             break;
1590:Middlewares/ST/STM32_SPWF0xSy/wifi_module.c **** 
1591:Middlewares/ST/STM32_SPWF0xSy/wifi_module.c ****           case WIFI_FILE1_EVENT:
1592:Middlewares/ST/STM32_SPWF0xSy/wifi_module.c ****             Reset_AT_CMD_Buffer();
1593:Middlewares/ST/STM32_SPWF0xSy/wifi_module.c **** 
1594:Middlewares/ST/STM32_SPWF0xSy/wifi_module.c ****             if( WiFi_Counter_Variables.volume == -1 && WiFi_Counter_Variables.erase == -1) 
1595:Middlewares/ST/STM32_SPWF0xSy/wifi_module.c ****             {
1596:Middlewares/ST/STM32_SPWF0xSy/wifi_module.c ****               if(WiFi_Counter_Variables.curr_filename !=NULL && WiFi_Counter_Variables.mod_filename
1597:Middlewares/ST/STM32_SPWF0xSy/wifi_module.c ****               {
1598:Middlewares/ST/STM32_SPWF0xSy/wifi_module.c ****                 /* Rename a file.... AT+S.FSR=<old_filename>,<new_filename> */
1599:Middlewares/ST/STM32_SPWF0xSy/wifi_module.c ****                 #if defined(SPWF04) && defined(CONSOLE_UART_ENABLED)
1600:Middlewares/ST/STM32_SPWF0xSy/wifi_module.c ****                     sprintf((char*)WiFi_AT_Cmd_Buff,AT_RENAME_FILE, WiFi_Counter_Variables.curr_fil
1601:Middlewares/ST/STM32_SPWF0xSy/wifi_module.c ****                 #elif defined(SPWF04)
1602:Middlewares/ST/STM32_SPWF0xSy/wifi_module.c ****                     sprintf((char*)WiFi_AT_Cmd_Buff,"AT+S.FSR=/%s,%s", WiFi_Counter_Variables.curr_
1603:Middlewares/ST/STM32_SPWF0xSy/wifi_module.c ****                     run_spi_cmd((char*)WiFi_AT_Cmd_Buff, SPI_POLL);
1604:Middlewares/ST/STM32_SPWF0xSy/wifi_module.c ****                     status = WiFi_MODULE_SUCCESS;//@TBD: Check return error code
1605:Middlewares/ST/STM32_SPWF0xSy/wifi_module.c ****                 #endif
1606:Middlewares/ST/STM32_SPWF0xSy/wifi_module.c ****               }
1607:Middlewares/ST/STM32_SPWF0xSy/wifi_module.c ****               else if(WiFi_Counter_Variables.curr_filename !=NULL && WiFi_Counter_Variables.mod_fil
1608:Middlewares/ST/STM32_SPWF0xSy/wifi_module.c ****               {
1609:Middlewares/ST/STM32_SPWF0xSy/wifi_module.c ****                   /* Delete a file...AT+S.FSD=<filename> */
1610:Middlewares/ST/STM32_SPWF0xSy/wifi_module.c ****                   #ifdef CONSOLE_UART_ENABLED
1611:Middlewares/ST/STM32_SPWF0xSy/wifi_module.c ****                     sprintf((char*)WiFi_AT_Cmd_Buff,AT_DELETE_FILE, WiFi_Counter_Variables.curr_fil
1612:Middlewares/ST/STM32_SPWF0xSy/wifi_module.c ****                   #else
1613:Middlewares/ST/STM32_SPWF0xSy/wifi_module.c ****                     sprintf((char*)WiFi_AT_Cmd_Buff,"AT+S.FSD=/%s", WiFi_Counter_Variables.curr_fil
1614:Middlewares/ST/STM32_SPWF0xSy/wifi_module.c ****                     run_spi_cmd((char*)WiFi_AT_Cmd_Buff, SPI_POLL);
1615:Middlewares/ST/STM32_SPWF0xSy/wifi_module.c ****                     status = WiFi_MODULE_SUCCESS;//@TBD: Check return error code
1616:Middlewares/ST/STM32_SPWF0xSy/wifi_module.c ****                   #endif
1617:Middlewares/ST/STM32_SPWF0xSy/wifi_module.c ****               }
ARM GAS  D:\cygwin64\tmp\cckuROSo.s 			page 38


1618:Middlewares/ST/STM32_SPWF0xSy/wifi_module.c ****             }
1619:Middlewares/ST/STM32_SPWF0xSy/wifi_module.c ****             else
1620:Middlewares/ST/STM32_SPWF0xSy/wifi_module.c ****             {
1621:Middlewares/ST/STM32_SPWF0xSy/wifi_module.c ****               /* erase user memory volume...AT+S.FSU=[<volume>],[<erase>] */                       
1622:Middlewares/ST/STM32_SPWF0xSy/wifi_module.c ****               #if defined(SPWF04) && defined(CONSOLE_UART_ENABLED)
1623:Middlewares/ST/STM32_SPWF0xSy/wifi_module.c ****                   sprintf((char*)WiFi_AT_Cmd_Buff,AT_UNMOUNT_USER_MEMORY, WiFi_Counter_Variables.vo
1624:Middlewares/ST/STM32_SPWF0xSy/wifi_module.c ****               #elif defined SPWF04
1625:Middlewares/ST/STM32_SPWF0xSy/wifi_module.c ****                   sprintf((char*)WiFi_AT_Cmd_Buff,"AT+S.FSU");
1626:Middlewares/ST/STM32_SPWF0xSy/wifi_module.c ****                   run_spi_cmd((char*)WiFi_AT_Cmd_Buff, SPI_POLL);
1627:Middlewares/ST/STM32_SPWF0xSy/wifi_module.c ****                   status = WiFi_MODULE_SUCCESS;//@TBD: Check return error code
1628:Middlewares/ST/STM32_SPWF0xSy/wifi_module.c ****               #endif
1629:Middlewares/ST/STM32_SPWF0xSy/wifi_module.c ****             }
1630:Middlewares/ST/STM32_SPWF0xSy/wifi_module.c ****             #ifdef CONSOLE_UART_ENABLED
1631:Middlewares/ST/STM32_SPWF0xSy/wifi_module.c ****               status = USART_Transmit_AT_Cmd(strlen((char*)WiFi_AT_Cmd_Buff));
1632:Middlewares/ST/STM32_SPWF0xSy/wifi_module.c ****             #endif
1633:Middlewares/ST/STM32_SPWF0xSy/wifi_module.c ****             /* Wait till OK of this command is not received */
1634:Middlewares/ST/STM32_SPWF0xSy/wifi_module.c ****             if(status != WiFi_MODULE_SUCCESS)
1635:Middlewares/ST/STM32_SPWF0xSy/wifi_module.c ****              {
1636:Middlewares/ST/STM32_SPWF0xSy/wifi_module.c ****                  #if DEBUG_PRINT
1637:Middlewares/ST/STM32_SPWF0xSy/wifi_module.c ****                    printf("\r\n ERROR During File Event\r\n");
1638:Middlewares/ST/STM32_SPWF0xSy/wifi_module.c ****                  #endif
1639:Middlewares/ST/STM32_SPWF0xSy/wifi_module.c ****                  IO_status_flag.AT_Response_Received = WIFI_TRUE;
1640:Middlewares/ST/STM32_SPWF0xSy/wifi_module.c ****                  WiFi_Counter_Variables.AT_RESPONSE = WiFi_AT_CMD_RESP_ERROR;
1641:Middlewares/ST/STM32_SPWF0xSy/wifi_module.c ****              }
1642:Middlewares/ST/STM32_SPWF0xSy/wifi_module.c ****             break;
1643:Middlewares/ST/STM32_SPWF0xSy/wifi_module.c **** 
1644:Middlewares/ST/STM32_SPWF0xSy/wifi_module.c ****           case WIFI_FW_UPDATE_EVENT:
1645:Middlewares/ST/STM32_SPWF0xSy/wifi_module.c ****             Reset_AT_CMD_Buffer();
1646:Middlewares/ST/STM32_SPWF0xSy/wifi_module.c ****             #if defined(CONSOLE_UART_ENABLED)
1647:Middlewares/ST/STM32_SPWF0xSy/wifi_module.c ****               /*AT+S.FWUPDATE=e,<hostname>,[<path&query>,<port>,<TLS>,<username>,<passwd>]\r*/
1648:Middlewares/ST/STM32_SPWF0xSy/wifi_module.c ****               sprintf((char*)WiFi_AT_Cmd_Buff,AT_FWUPDATE,WiFi_Counter_Variables.curr_hostname,WiFi
1649:Middlewares/ST/STM32_SPWF0xSy/wifi_module.c ****               status = USART_Transmit_AT_Cmd(strlen((char*)WiFi_AT_Cmd_Buff));
1650:Middlewares/ST/STM32_SPWF0xSy/wifi_module.c ****             #else
1651:Middlewares/ST/STM32_SPWF0xSy/wifi_module.c ****               sprintf((char*)WiFi_AT_Cmd_Buff,"AT+S.FWUPDATE=e,%s,/%s,%d,0,NULL,NULL",WiFi_Counter_
1652:Middlewares/ST/STM32_SPWF0xSy/wifi_module.c ****               run_spi_cmd((char*)WiFi_AT_Cmd_Buff, SPI_POLL);
1653:Middlewares/ST/STM32_SPWF0xSy/wifi_module.c ****               status = WiFi_MODULE_SUCCESS;//@TBD: Check return error code from run_spi_cmd
1654:Middlewares/ST/STM32_SPWF0xSy/wifi_module.c ****             #endif
1655:Middlewares/ST/STM32_SPWF0xSy/wifi_module.c ****             
1656:Middlewares/ST/STM32_SPWF0xSy/wifi_module.c ****             if(status == WiFi_MODULE_SUCCESS)
1657:Middlewares/ST/STM32_SPWF0xSy/wifi_module.c ****             {
1658:Middlewares/ST/STM32_SPWF0xSy/wifi_module.c ****               WiFi_Control_Variables.enable_fw_update_read      = WIFI_TRUE;
1659:Middlewares/ST/STM32_SPWF0xSy/wifi_module.c ****               #if defined(SPWF01)
1660:Middlewares/ST/STM32_SPWF0xSy/wifi_module.c ****                 WiFi_Control_Variables.enable_receive_data_chunk  = WIFI_TRUE;
1661:Middlewares/ST/STM32_SPWF0xSy/wifi_module.c ****               #else
1662:Middlewares/ST/STM32_SPWF0xSy/wifi_module.c ****                 #if defined(CONSOLE_UART_ENABLED)
1663:Middlewares/ST/STM32_SPWF0xSy/wifi_module.c ****                   WiFi_Control_Variables.enable_receive_http_response = WIFI_TRUE;
1664:Middlewares/ST/STM32_SPWF0xSy/wifi_module.c ****                 #else
1665:Middlewares/ST/STM32_SPWF0xSy/wifi_module.c ****                   IO_status_flag.AT_event_processing = WIFI_FW_UPDATE_EVENT;
1666:Middlewares/ST/STM32_SPWF0xSy/wifi_module.c ****                 #endif
1667:Middlewares/ST/STM32_SPWF0xSy/wifi_module.c ****               #endif
1668:Middlewares/ST/STM32_SPWF0xSy/wifi_module.c ****             }
1669:Middlewares/ST/STM32_SPWF0xSy/wifi_module.c ****             else 
1670:Middlewares/ST/STM32_SPWF0xSy/wifi_module.c ****             {
1671:Middlewares/ST/STM32_SPWF0xSy/wifi_module.c ****               #if DEBUG_PRINT
1672:Middlewares/ST/STM32_SPWF0xSy/wifi_module.c ****                 printf("\r\n ERROR DURING FIRMWARE UPDATE \r\n");
1673:Middlewares/ST/STM32_SPWF0xSy/wifi_module.c ****               #endif
1674:Middlewares/ST/STM32_SPWF0xSy/wifi_module.c ****               IO_status_flag.AT_Response_Received = WIFI_TRUE;
ARM GAS  D:\cygwin64\tmp\cckuROSo.s 			page 39


1675:Middlewares/ST/STM32_SPWF0xSy/wifi_module.c ****               WiFi_Counter_Variables.AT_RESPONSE = WiFi_AT_CMD_RESP_ERROR;
1676:Middlewares/ST/STM32_SPWF0xSy/wifi_module.c ****             }
1677:Middlewares/ST/STM32_SPWF0xSy/wifi_module.c ****             break;
1678:Middlewares/ST/STM32_SPWF0xSy/wifi_module.c **** 
1679:Middlewares/ST/STM32_SPWF0xSy/wifi_module.c ****           case WIFI_ERROR_EVENT:
1680:Middlewares/ST/STM32_SPWF0xSy/wifi_module.c ****             #if DEBUG_PRINT
1681:Middlewares/ST/STM32_SPWF0xSy/wifi_module.c ****               //printf("\r\n ERROR!\r\n");
1682:Middlewares/ST/STM32_SPWF0xSy/wifi_module.c ****             #endif
1683:Middlewares/ST/STM32_SPWF0xSy/wifi_module.c ****             IO_status_flag.AT_Response_Received = WIFI_TRUE;
1684:Middlewares/ST/STM32_SPWF0xSy/wifi_module.c ****             WiFi_Counter_Variables.AT_RESPONSE = WiFi_AT_CMD_RESP_ERROR;
1685:Middlewares/ST/STM32_SPWF0xSy/wifi_module.c ****             IO_status_flag.AT_event_processing = WIFI_NO_EVENT;
1686:Middlewares/ST/STM32_SPWF0xSy/wifi_module.c ****             break;
1687:Middlewares/ST/STM32_SPWF0xSy/wifi_module.c **** 
1688:Middlewares/ST/STM32_SPWF0xSy/wifi_module.c ****           case WIFI_OK_EVENT:
1689:Middlewares/ST/STM32_SPWF0xSy/wifi_module.c ****             #if DEBUG_PRINT
1690:Middlewares/ST/STM32_SPWF0xSy/wifi_module.c ****             printf("\r\n<<OK\r\n");
1691:Middlewares/ST/STM32_SPWF0xSy/wifi_module.c ****             #endif
1692:Middlewares/ST/STM32_SPWF0xSy/wifi_module.c ****             #ifndef CONSOLE_UART_ENABLED
1693:Middlewares/ST/STM32_SPWF0xSy/wifi_module.c ****               WiFi_Control_Variables.enable_receive_socket_list_response = WIFI_FALSE;
1694:Middlewares/ST/STM32_SPWF0xSy/wifi_module.c ****               WiFi_Control_Variables.enable_receive_file_response = WIFI_FALSE;
1695:Middlewares/ST/STM32_SPWF0xSy/wifi_module.c ****             #endif
1696:Middlewares/ST/STM32_SPWF0xSy/wifi_module.c ****             // no break
1697:Middlewares/ST/STM32_SPWF0xSy/wifi_module.c ****           case WIFI_GCFG_EVENT:
1698:Middlewares/ST/STM32_SPWF0xSy/wifi_module.c ****           case WIFI_GPIO_EVENT:
1699:Middlewares/ST/STM32_SPWF0xSy/wifi_module.c ****             IO_status_flag.AT_Response_Received = WIFI_TRUE;
1700:Middlewares/ST/STM32_SPWF0xSy/wifi_module.c ****             WiFi_Counter_Variables.AT_RESPONSE = WiFi_MODULE_SUCCESS;
1701:Middlewares/ST/STM32_SPWF0xSy/wifi_module.c ****             IO_status_flag.AT_event_processing = WIFI_NO_EVENT;
1702:Middlewares/ST/STM32_SPWF0xSy/wifi_module.c ****             break;
1703:Middlewares/ST/STM32_SPWF0xSy/wifi_module.c **** 
1704:Middlewares/ST/STM32_SPWF0xSy/wifi_module.c ****           case WIFI_STANDBY_CONFIG_EVENT:
1705:Middlewares/ST/STM32_SPWF0xSy/wifi_module.c ****             #if DEBUG_PRINT
1706:Middlewares/ST/STM32_SPWF0xSy/wifi_module.c ****                 printf("\r\nGoing into standby..\r\n");  
1707:Middlewares/ST/STM32_SPWF0xSy/wifi_module.c ****             #endif
1708:Middlewares/ST/STM32_SPWF0xSy/wifi_module.c ****             break;
1709:Middlewares/ST/STM32_SPWF0xSy/wifi_module.c **** 
1710:Middlewares/ST/STM32_SPWF0xSy/wifi_module.c ****           case WIFI_RESUME_CONFIG_EVENT:
1711:Middlewares/ST/STM32_SPWF0xSy/wifi_module.c ****             #if DEBUG_PRINT
1712:Middlewares/ST/STM32_SPWF0xSy/wifi_module.c ****                 printf("\r\nResuming from standby..\r\n");
1713:Middlewares/ST/STM32_SPWF0xSy/wifi_module.c ****             #endif                              
1714:Middlewares/ST/STM32_SPWF0xSy/wifi_module.c ****             WiFi_Control_Variables.trigger_wakeup_callback = WIFI_TRUE;    
1715:Middlewares/ST/STM32_SPWF0xSy/wifi_module.c ****             break;
1716:Middlewares/ST/STM32_SPWF0xSy/wifi_module.c **** 
1717:Middlewares/ST/STM32_SPWF0xSy/wifi_module.c ****           default:
1718:Middlewares/ST/STM32_SPWF0xSy/wifi_module.c ****             break;
1719:Middlewares/ST/STM32_SPWF0xSy/wifi_module.c ****        }
1720:Middlewares/ST/STM32_SPWF0xSy/wifi_module.c ****     }
1721:Middlewares/ST/STM32_SPWF0xSy/wifi_module.c ****   }
1722:Middlewares/ST/STM32_SPWF0xSy/wifi_module.c ****   /* If data is pending on client socket SOCKON, make read requests*/
1723:Middlewares/ST/STM32_SPWF0xSy/wifi_module.c ****   if(WiFi_Control_Variables.start_sock_read == WIFI_TRUE)
1724:Middlewares/ST/STM32_SPWF0xSy/wifi_module.c ****           {
1725:Middlewares/ST/STM32_SPWF0xSy/wifi_module.c ****               WiFi_Control_Variables.start_sock_read = WIFI_FALSE;
1726:Middlewares/ST/STM32_SPWF0xSy/wifi_module.c ****               Socket_Read(WiFi_Counter_Variables.Socket_Data_Length);                  
1727:Middlewares/ST/STM32_SPWF0xSy/wifi_module.c ****           }  
1728:Middlewares/ST/STM32_SPWF0xSy/wifi_module.c ****   /* Call Query, after notification for TLS is received */
1729:Middlewares/ST/STM32_SPWF0xSy/wifi_module.c ****   else if(WiFi_Control_Variables.enable_query == WIFI_TRUE && IO_status_flag.enable_dequeue == WIFI
1730:Middlewares/ST/STM32_SPWF0xSy/wifi_module.c ****           {
1731:Middlewares/ST/STM32_SPWF0xSy/wifi_module.c ****               WiFi_Control_Variables.enable_query = WIFI_FALSE;
ARM GAS  D:\cygwin64\tmp\cckuROSo.s 			page 40


1732:Middlewares/ST/STM32_SPWF0xSy/wifi_module.c ****               //@TBD: Flushing the buffer may be detrimental if we have genuine follow on WIND55?
1733:Middlewares/ST/STM32_SPWF0xSy/wifi_module.c ****               Socket_Pending_Data();                  
1734:Middlewares/ST/STM32_SPWF0xSy/wifi_module.c ****           }      
1735:Middlewares/ST/STM32_SPWF0xSy/wifi_module.c ****   #ifdef SPWF04
1736:Middlewares/ST/STM32_SPWF0xSy/wifi_module.c ****     /* If data is pending on server socket SOCKDON, make read requests*/
1737:Middlewares/ST/STM32_SPWF0xSy/wifi_module.c ****     else if(WiFi_Control_Variables.start_sockd_read == WIFI_TRUE)
1738:Middlewares/ST/STM32_SPWF0xSy/wifi_module.c ****             {
1739:Middlewares/ST/STM32_SPWF0xSy/wifi_module.c ****                 WiFi_Control_Variables.start_sockd_read = WIFI_FALSE;
1740:Middlewares/ST/STM32_SPWF0xSy/wifi_module.c ****                 Socket_Server_Read(WiFi_Counter_Variables.Socket_Data_Length);                  
1741:Middlewares/ST/STM32_SPWF0xSy/wifi_module.c ****             }  
1742:Middlewares/ST/STM32_SPWF0xSy/wifi_module.c ****     else if(WiFi_Control_Variables.enable_server_query == WIFI_TRUE && IO_status_flag.enable_dequeu
1743:Middlewares/ST/STM32_SPWF0xSy/wifi_module.c ****             {
1744:Middlewares/ST/STM32_SPWF0xSy/wifi_module.c ****                 WiFi_Control_Variables.enable_server_query = WIFI_FALSE;
1745:Middlewares/ST/STM32_SPWF0xSy/wifi_module.c ****                 Server_Pending_Data();                  
1746:Middlewares/ST/STM32_SPWF0xSy/wifi_module.c ****             } 
1747:Middlewares/ST/STM32_SPWF0xSy/wifi_module.c ****     else if(WiFi_Control_Variables.enable_websocket_query == WIFI_TRUE && IO_status_flag.enable_deq
1748:Middlewares/ST/STM32_SPWF0xSy/wifi_module.c ****             {
1749:Middlewares/ST/STM32_SPWF0xSy/wifi_module.c ****                 WiFi_Control_Variables.enable_websocket_query = WIFI_FALSE;                  
1750:Middlewares/ST/STM32_SPWF0xSy/wifi_module.c ****                 Websocket_Pending_Data();                  
1751:Middlewares/ST/STM32_SPWF0xSy/wifi_module.c ****             }
1752:Middlewares/ST/STM32_SPWF0xSy/wifi_module.c ****     else if(WiFi_Control_Variables.start_websock_read == WIFI_TRUE)
1753:Middlewares/ST/STM32_SPWF0xSy/wifi_module.c ****             {
1754:Middlewares/ST/STM32_SPWF0xSy/wifi_module.c ****                 WiFi_Control_Variables.start_websock_read = WIFI_FALSE;
1755:Middlewares/ST/STM32_SPWF0xSy/wifi_module.c ****                 Websocket_Read(WiFi_Counter_Variables.Socket_Data_Length);                  
1756:Middlewares/ST/STM32_SPWF0xSy/wifi_module.c ****             }
1757:Middlewares/ST/STM32_SPWF0xSy/wifi_module.c ****     else if(WiFi_Control_Variables.Client_Websocket_Close_Cmd == WIFI_TRUE)//for client socket
1758:Middlewares/ST/STM32_SPWF0xSy/wifi_module.c ****             {   
1759:Middlewares/ST/STM32_SPWF0xSy/wifi_module.c ****                 WiFi_Control_Variables.Client_Websocket_Close_Cmd = WIFI_FALSE;
1760:Middlewares/ST/STM32_SPWF0xSy/wifi_module.c ****                 Queue_Client_Close_Event(WiFi_Counter_Variables.client_websocket_close_id, WEB_SOCK
1761:Middlewares/ST/STM32_SPWF0xSy/wifi_module.c ****                 IO_status_flag.client_socket_close_type = NET_SOCKET;//default to net socket all th
1762:Middlewares/ST/STM32_SPWF0xSy/wifi_module.c ****             }
1763:Middlewares/ST/STM32_SPWF0xSy/wifi_module.c ****     else if(WiFi_Control_Variables.Mqtt_Close_Cmd)
1764:Middlewares/ST/STM32_SPWF0xSy/wifi_module.c ****             {
1765:Middlewares/ST/STM32_SPWF0xSy/wifi_module.c ****                 WiFi_Control_Variables.Mqtt_Close_Cmd = WIFI_FALSE;
1766:Middlewares/ST/STM32_SPWF0xSy/wifi_module.c ****                 ind_wifi_mqtt_closed(WiFi_Counter_Variables.mqtt_closed_id);
1767:Middlewares/ST/STM32_SPWF0xSy/wifi_module.c ****             }
1768:Middlewares/ST/STM32_SPWF0xSy/wifi_module.c ****     else if(WiFi_Control_Variables.Mqtt_Data_Publish_Callback)
1769:Middlewares/ST/STM32_SPWF0xSy/wifi_module.c ****             {
1770:Middlewares/ST/STM32_SPWF0xSy/wifi_module.c ****               WiFi_Control_Variables.Mqtt_Data_Publish_Callback = WIFI_FALSE;
1771:Middlewares/ST/STM32_SPWF0xSy/wifi_module.c ****               ind_wifi_mqtt_data_received(WiFi_Counter_Variables.Socket_Open_ID,WiFi_Counter_Variab
1772:Middlewares/ST/STM32_SPWF0xSy/wifi_module.c ****               WiFi_Control_Variables.stop_event_dequeue = WIFI_FALSE;
1773:Middlewares/ST/STM32_SPWF0xSy/wifi_module.c ****               memset(UserDataBuff, 0x00, MAX_BUFFER_GLOBAL);//Flush the buffer
1774:Middlewares/ST/STM32_SPWF0xSy/wifi_module.c ****             }
1775:Middlewares/ST/STM32_SPWF0xSy/wifi_module.c ****   #endif
1776:Middlewares/ST/STM32_SPWF0xSy/wifi_module.c ****   else if(WiFi_Control_Variables.Pending_SockON_Callback==WIFI_TRUE)//for client socket
1777:Middlewares/ST/STM32_SPWF0xSy/wifi_module.c ****           {
1778:Middlewares/ST/STM32_SPWF0xSy/wifi_module.c ****               WiFi_Control_Variables.Pending_SockON_Callback=WIFI_FALSE;
1779:Middlewares/ST/STM32_SPWF0xSy/wifi_module.c ****               //Now callback to user with user_data pointer <UserDataBuff>              
1780:Middlewares/ST/STM32_SPWF0xSy/wifi_module.c ****               ind_wifi_socket_data_received(-1, WiFi_Counter_Variables.sockon_id_user, (uint8_t *)U
1781:Middlewares/ST/STM32_SPWF0xSy/wifi_module.c ****               memset(UserDataBuff, 0x00, MAX_BUFFER_GLOBAL);//Flush the buffer
1782:Middlewares/ST/STM32_SPWF0xSy/wifi_module.c ****               Resume_Dequeue();
1783:Middlewares/ST/STM32_SPWF0xSy/wifi_module.c ****           }
1784:Middlewares/ST/STM32_SPWF0xSy/wifi_module.c **** 
1785:Middlewares/ST/STM32_SPWF0xSy/wifi_module.c ****   else if(WiFi_Control_Variables.Pending_SockD_Callback == WIFI_TRUE)//for server socket
1786:Middlewares/ST/STM32_SPWF0xSy/wifi_module.c ****           {
1787:Middlewares/ST/STM32_SPWF0xSy/wifi_module.c ****               WiFi_Control_Variables.Pending_SockD_Callback=WIFI_FALSE;
1788:Middlewares/ST/STM32_SPWF0xSy/wifi_module.c ****               //Now callback to user with user_data pointer <UserDataBuff>
ARM GAS  D:\cygwin64\tmp\cckuROSo.s 			page 41


1789:Middlewares/ST/STM32_SPWF0xSy/wifi_module.c ****               ind_wifi_socket_data_received(WiFi_Counter_Variables.sockdon_id_user, WiFi_Counter_Va
1790:Middlewares/ST/STM32_SPWF0xSy/wifi_module.c ****               memset(UserDataBuff, 0x00, MAX_BUFFER_GLOBAL); //Flush the buffer
1791:Middlewares/ST/STM32_SPWF0xSy/wifi_module.c ****               Resume_Dequeue();
1792:Middlewares/ST/STM32_SPWF0xSy/wifi_module.c ****           }
1793:Middlewares/ST/STM32_SPWF0xSy/wifi_module.c **** 
1794:Middlewares/ST/STM32_SPWF0xSy/wifi_module.c ****   else if(WiFi_Control_Variables.Client_Socket_Close_Cmd == WIFI_TRUE)//for client socket
1795:Middlewares/ST/STM32_SPWF0xSy/wifi_module.c ****           {
1796:Middlewares/ST/STM32_SPWF0xSy/wifi_module.c ****               // Q the close socket event
1797:Middlewares/ST/STM32_SPWF0xSy/wifi_module.c ****               if(open_sockets[WiFi_Counter_Variables.client_socket_close_id])
1798:Middlewares/ST/STM32_SPWF0xSy/wifi_module.c ****                 {
1799:Middlewares/ST/STM32_SPWF0xSy/wifi_module.c ****                   Queue_Client_Close_Event(WiFi_Counter_Variables.client_socket_close_id, NET_SOCKE
1800:Middlewares/ST/STM32_SPWF0xSy/wifi_module.c ****                 }
1801:Middlewares/ST/STM32_SPWF0xSy/wifi_module.c ****               WiFi_Control_Variables.Client_Socket_Close_Cmd = WIFI_FALSE;
1802:Middlewares/ST/STM32_SPWF0xSy/wifi_module.c ****           }
1803:Middlewares/ST/STM32_SPWF0xSy/wifi_module.c **** 
1804:Middlewares/ST/STM32_SPWF0xSy/wifi_module.c ****   else if(WiFi_Control_Variables.SockON_Server_Closed_Callback==WIFI_TRUE)//for client socket
1805:Middlewares/ST/STM32_SPWF0xSy/wifi_module.c ****           {
1806:Middlewares/ST/STM32_SPWF0xSy/wifi_module.c ****               //callback the user
1807:Middlewares/ST/STM32_SPWF0xSy/wifi_module.c ****               #ifdef SPWF04
1808:Middlewares/ST/STM32_SPWF0xSy/wifi_module.c ****                 if(IO_status_flag.client_socket_close_type==WEB_SOCKET)
1809:Middlewares/ST/STM32_SPWF0xSy/wifi_module.c ****                   ind_wifi_socket_client_remote_server_closed(&WiFi_Counter_Variables.closed_socket
1810:Middlewares/ST/STM32_SPWF0xSy/wifi_module.c ****                 else if(IO_status_flag.client_socket_close_type==NET_SOCKET)
1811:Middlewares/ST/STM32_SPWF0xSy/wifi_module.c ****               #endif       
1812:Middlewares/ST/STM32_SPWF0xSy/wifi_module.c ****                 ind_wifi_socket_client_remote_server_closed(&WiFi_Counter_Variables.closed_socket_i
1813:Middlewares/ST/STM32_SPWF0xSy/wifi_module.c ****               
1814:Middlewares/ST/STM32_SPWF0xSy/wifi_module.c ****               IO_status_flag.client_socket_close_type = NET_SOCKET;//default to net socket all the 
1815:Middlewares/ST/STM32_SPWF0xSy/wifi_module.c ****               WiFi_Control_Variables.SockON_Server_Closed_Callback = WIFI_FALSE;
1816:Middlewares/ST/STM32_SPWF0xSy/wifi_module.c ****               WiFi_Control_Variables.stop_event_dequeue = WIFI_FALSE;
1817:Middlewares/ST/STM32_SPWF0xSy/wifi_module.c ****           }
1818:Middlewares/ST/STM32_SPWF0xSy/wifi_module.c **** 
1819:Middlewares/ST/STM32_SPWF0xSy/wifi_module.c ****   else if(WiFi_Control_Variables.HTTP_Data_available == WIFI_TRUE)
1820:Middlewares/ST/STM32_SPWF0xSy/wifi_module.c ****           {
1821:Middlewares/ST/STM32_SPWF0xSy/wifi_module.c ****               WiFi_Control_Variables.HTTP_Data_available=WIFI_FALSE;
1822:Middlewares/ST/STM32_SPWF0xSy/wifi_module.c ****               if(WiFi_Control_Variables.enable_receive_file_response)
1823:Middlewares/ST/STM32_SPWF0xSy/wifi_module.c ****               {
1824:Middlewares/ST/STM32_SPWF0xSy/wifi_module.c ****                 ind_wifi_file_data_available((uint8_t *)UserDataBuff);
1825:Middlewares/ST/STM32_SPWF0xSy/wifi_module.c ****               }
1826:Middlewares/ST/STM32_SPWF0xSy/wifi_module.c ****               else if(WiFi_Control_Variables.enable_receive_socket_list_response)
1827:Middlewares/ST/STM32_SPWF0xSy/wifi_module.c ****                 ind_wifi_socket_list_data_available((uint8_t *)UserDataBuff);
1828:Middlewares/ST/STM32_SPWF0xSy/wifi_module.c ****               else
1829:Middlewares/ST/STM32_SPWF0xSy/wifi_module.c ****                 ind_wifi_http_data_available((uint8_t *)UserDataBuff,WiFi_Counter_Variables.UserDat
1830:Middlewares/ST/STM32_SPWF0xSy/wifi_module.c ****               memset(UserDataBuff, 0x00, MAX_BUFFER_GLOBAL);//Flush the buffer
1831:Middlewares/ST/STM32_SPWF0xSy/wifi_module.c ****               Resume_Dequeue();
1832:Middlewares/ST/STM32_SPWF0xSy/wifi_module.c ****           }
1833:Middlewares/ST/STM32_SPWF0xSy/wifi_module.c **** 
1834:Middlewares/ST/STM32_SPWF0xSy/wifi_module.c ****   else if (WiFi_Control_Variables.FILE_Data_available == WIFI_TRUE)
1835:Middlewares/ST/STM32_SPWF0xSy/wifi_module.c ****           {
1836:Middlewares/ST/STM32_SPWF0xSy/wifi_module.c ****               ind_wifi_file_data_available((uint8_t *) UserDataBuff);
1837:Middlewares/ST/STM32_SPWF0xSy/wifi_module.c ****               memset(UserDataBuff, 0x00, MAX_BUFFER_GLOBAL);//Flush the buffer
1838:Middlewares/ST/STM32_SPWF0xSy/wifi_module.c ****               Resume_Dequeue();
1839:Middlewares/ST/STM32_SPWF0xSy/wifi_module.c ****               WiFi_Control_Variables.FILE_Data_available = WIFI_FALSE;
1840:Middlewares/ST/STM32_SPWF0xSy/wifi_module.c ****           }
1841:Middlewares/ST/STM32_SPWF0xSy/wifi_module.c ****   else if(WiFi_Control_Variables.Client_Connected == WIFI_TRUE)
1842:Middlewares/ST/STM32_SPWF0xSy/wifi_module.c ****           {
1843:Middlewares/ST/STM32_SPWF0xSy/wifi_module.c ****               ind_socket_server_client_joined();
1844:Middlewares/ST/STM32_SPWF0xSy/wifi_module.c ****               WiFi_Control_Variables.Client_Connected = WIFI_FALSE;
1845:Middlewares/ST/STM32_SPWF0xSy/wifi_module.c ****           }
ARM GAS  D:\cygwin64\tmp\cckuROSo.s 			page 42


1846:Middlewares/ST/STM32_SPWF0xSy/wifi_module.c **** 
1847:Middlewares/ST/STM32_SPWF0xSy/wifi_module.c ****   else if(WiFi_Control_Variables.Client_Disconnected == WIFI_TRUE)
1848:Middlewares/ST/STM32_SPWF0xSy/wifi_module.c ****           {
1849:Middlewares/ST/STM32_SPWF0xSy/wifi_module.c ****               ind_socket_server_client_left();
1850:Middlewares/ST/STM32_SPWF0xSy/wifi_module.c ****               WiFi_Control_Variables.Client_Disconnected = WIFI_FALSE;
1851:Middlewares/ST/STM32_SPWF0xSy/wifi_module.c ****           }
1852:Middlewares/ST/STM32_SPWF0xSy/wifi_module.c **** 
1853:Middlewares/ST/STM32_SPWF0xSy/wifi_module.c ****   //Make callbacks from here to user for pending events
1854:Middlewares/ST/STM32_SPWF0xSy/wifi_module.c ****   switch(IO_status_flag.WiFi_WIND_State)
1855:Middlewares/ST/STM32_SPWF0xSy/wifi_module.c ****   {
1856:Middlewares/ST/STM32_SPWF0xSy/wifi_module.c ****       //Make callbacks from here to user for pending events
1857:Middlewares/ST/STM32_SPWF0xSy/wifi_module.c ****       case WiFiHWStarted: 
1858:Middlewares/ST/STM32_SPWF0xSy/wifi_module.c ****         if(IO_status_flag.wifi_ready == 2)//Twice reset for User Callback
1859:Middlewares/ST/STM32_SPWF0xSy/wifi_module.c ****          {
1860:Middlewares/ST/STM32_SPWF0xSy/wifi_module.c ****             IO_status_flag.wifi_ready++;//will increment to 3 (max)
1861:Middlewares/ST/STM32_SPWF0xSy/wifi_module.c ****             ind_wifi_on();//Call this once only...This if for wifi_on (instead of console active
1862:Middlewares/ST/STM32_SPWF0xSy/wifi_module.c ****          }
1863:Middlewares/ST/STM32_SPWF0xSy/wifi_module.c ****         break;
1864:Middlewares/ST/STM32_SPWF0xSy/wifi_module.c **** 
1865:Middlewares/ST/STM32_SPWF0xSy/wifi_module.c ****       case WiFiUp:
1866:Middlewares/ST/STM32_SPWF0xSy/wifi_module.c ****         if(wifi_connected == 0)
1867:Middlewares/ST/STM32_SPWF0xSy/wifi_module.c ****          {
1868:Middlewares/ST/STM32_SPWF0xSy/wifi_module.c ****             wifi_connected = 1;
1869:Middlewares/ST/STM32_SPWF0xSy/wifi_module.c ****             ind_wifi_connected();  //wifi connected
1870:Middlewares/ST/STM32_SPWF0xSy/wifi_module.c ****          }
1871:Middlewares/ST/STM32_SPWF0xSy/wifi_module.c **** //        IO_status_flag.WiFi_WIND_State = Undefine_state;
1872:Middlewares/ST/STM32_SPWF0xSy/wifi_module.c ****         break;
1873:Middlewares/ST/STM32_SPWF0xSy/wifi_module.c **** 
1874:Middlewares/ST/STM32_SPWF0xSy/wifi_module.c ****       case WiFiStarted_MiniAPMode:
1875:Middlewares/ST/STM32_SPWF0xSy/wifi_module.c ****          ind_wifi_ap_ready();
1876:Middlewares/ST/STM32_SPWF0xSy/wifi_module.c ****          IO_status_flag.WiFi_WIND_State = Undefine_state;
1877:Middlewares/ST/STM32_SPWF0xSy/wifi_module.c ****          break;
1878:Middlewares/ST/STM32_SPWF0xSy/wifi_module.c **** 
1879:Middlewares/ST/STM32_SPWF0xSy/wifi_module.c ****       case WiFiAPClientJoined: 
1880:Middlewares/ST/STM32_SPWF0xSy/wifi_module.c ****          ind_wifi_ap_client_joined(WiFi_Counter_Variables.client_MAC_address);
1881:Middlewares/ST/STM32_SPWF0xSy/wifi_module.c ****          IO_status_flag.WiFi_WIND_State = Undefine_state;
1882:Middlewares/ST/STM32_SPWF0xSy/wifi_module.c ****          break;
1883:Middlewares/ST/STM32_SPWF0xSy/wifi_module.c **** 
1884:Middlewares/ST/STM32_SPWF0xSy/wifi_module.c ****       case WiFiAPClientLeft:
1885:Middlewares/ST/STM32_SPWF0xSy/wifi_module.c ****          ind_wifi_ap_client_left(WiFi_Counter_Variables.client_MAC_address);
1886:Middlewares/ST/STM32_SPWF0xSy/wifi_module.c ****          IO_status_flag.WiFi_WIND_State = Undefine_state;
1887:Middlewares/ST/STM32_SPWF0xSy/wifi_module.c ****          break;
1888:Middlewares/ST/STM32_SPWF0xSy/wifi_module.c **** 
1889:Middlewares/ST/STM32_SPWF0xSy/wifi_module.c ****       case Deep_Sleep_Callback:
1890:Middlewares/ST/STM32_SPWF0xSy/wifi_module.c ****          ind_wifi_resuming();
1891:Middlewares/ST/STM32_SPWF0xSy/wifi_module.c ****          IO_status_flag.WiFi_WIND_State = Undefine_state;
1892:Middlewares/ST/STM32_SPWF0xSy/wifi_module.c ****          break;
1893:Middlewares/ST/STM32_SPWF0xSy/wifi_module.c **** 
1894:Middlewares/ST/STM32_SPWF0xSy/wifi_module.c ****       case standby_resume_callback:
1895:Middlewares/ST/STM32_SPWF0xSy/wifi_module.c ****          ind_wifi_resuming();
1896:Middlewares/ST/STM32_SPWF0xSy/wifi_module.c ****          IO_status_flag.WiFi_WIND_State = Undefine_state;
1897:Middlewares/ST/STM32_SPWF0xSy/wifi_module.c ****          break;
1898:Middlewares/ST/STM32_SPWF0xSy/wifi_module.c **** 
1899:Middlewares/ST/STM32_SPWF0xSy/wifi_module.c ****       case WiFiHWFailure:
1900:Middlewares/ST/STM32_SPWF0xSy/wifi_module.c ****          IO_status_flag.WiFi_WIND_State = Undefine_state;
1901:Middlewares/ST/STM32_SPWF0xSy/wifi_module.c ****          ind_wifi_error(WiFi_HW_FAILURE_ERROR);     //call with error number      
1902:Middlewares/ST/STM32_SPWF0xSy/wifi_module.c ****          break;
ARM GAS  D:\cygwin64\tmp\cckuROSo.s 			page 43


1903:Middlewares/ST/STM32_SPWF0xSy/wifi_module.c **** 
1904:Middlewares/ST/STM32_SPWF0xSy/wifi_module.c ****       case HardFault:
1905:Middlewares/ST/STM32_SPWF0xSy/wifi_module.c ****          IO_status_flag.WiFi_WIND_State = Undefine_state;
1906:Middlewares/ST/STM32_SPWF0xSy/wifi_module.c ****          ind_wifi_error(WiFi_HARD_FAULT_ERROR);     //call with error number      
1907:Middlewares/ST/STM32_SPWF0xSy/wifi_module.c ****          break;
1908:Middlewares/ST/STM32_SPWF0xSy/wifi_module.c **** 
1909:Middlewares/ST/STM32_SPWF0xSy/wifi_module.c ****       case StackOverFlow:
1910:Middlewares/ST/STM32_SPWF0xSy/wifi_module.c ****          IO_status_flag.WiFi_WIND_State = Undefine_state;
1911:Middlewares/ST/STM32_SPWF0xSy/wifi_module.c ****          ind_wifi_error(WiFi_STACK_OVERFLOW_ERROR); //call with error number      
1912:Middlewares/ST/STM32_SPWF0xSy/wifi_module.c ****          break;
1913:Middlewares/ST/STM32_SPWF0xSy/wifi_module.c **** 
1914:Middlewares/ST/STM32_SPWF0xSy/wifi_module.c ****       case Mallocfailed:
1915:Middlewares/ST/STM32_SPWF0xSy/wifi_module.c ****          IO_status_flag.WiFi_WIND_State = Undefine_state;
1916:Middlewares/ST/STM32_SPWF0xSy/wifi_module.c ****          ind_wifi_error(WiFi_MALLOC_FAILED_ERROR);  //call with error number      
1917:Middlewares/ST/STM32_SPWF0xSy/wifi_module.c ****          break;
1918:Middlewares/ST/STM32_SPWF0xSy/wifi_module.c **** 
1919:Middlewares/ST/STM32_SPWF0xSy/wifi_module.c ****       case InitFailure:
1920:Middlewares/ST/STM32_SPWF0xSy/wifi_module.c ****          IO_status_flag.WiFi_WIND_State = Undefine_state;
1921:Middlewares/ST/STM32_SPWF0xSy/wifi_module.c ****          ind_wifi_error(WiFi_INIT_ERROR);   //call with error number      
1922:Middlewares/ST/STM32_SPWF0xSy/wifi_module.c ****          break;
1923:Middlewares/ST/STM32_SPWF0xSy/wifi_module.c **** 
1924:Middlewares/ST/STM32_SPWF0xSy/wifi_module.c ****       case StartFailed:
1925:Middlewares/ST/STM32_SPWF0xSy/wifi_module.c ****          IO_status_flag.WiFi_WIND_State = Undefine_state;
1926:Middlewares/ST/STM32_SPWF0xSy/wifi_module.c ****          ind_wifi_error(WiFi_START_FAILED_ERROR);   //call with error number      
1927:Middlewares/ST/STM32_SPWF0xSy/wifi_module.c ****          break;
1928:Middlewares/ST/STM32_SPWF0xSy/wifi_module.c ****       
1929:Middlewares/ST/STM32_SPWF0xSy/wifi_module.c ****       case WiFiException:
1930:Middlewares/ST/STM32_SPWF0xSy/wifi_module.c ****          IO_status_flag.WiFi_WIND_State = Undefine_state;
1931:Middlewares/ST/STM32_SPWF0xSy/wifi_module.c ****          ind_wifi_error(WiFi_EXCEPTION_ERROR);      //call with error number      
1932:Middlewares/ST/STM32_SPWF0xSy/wifi_module.c ****          break;
1933:Middlewares/ST/STM32_SPWF0xSy/wifi_module.c **** 
1934:Middlewares/ST/STM32_SPWF0xSy/wifi_module.c ****       case PS_Mode_Failure:
1935:Middlewares/ST/STM32_SPWF0xSy/wifi_module.c ****          IO_status_flag.WiFi_WIND_State = Undefine_state;
1936:Middlewares/ST/STM32_SPWF0xSy/wifi_module.c ****          ind_wifi_warning(WiFi_POWER_SAVE_WARNING); //call with error number      
1937:Middlewares/ST/STM32_SPWF0xSy/wifi_module.c ****          break;
1938:Middlewares/ST/STM32_SPWF0xSy/wifi_module.c **** 
1939:Middlewares/ST/STM32_SPWF0xSy/wifi_module.c ****       case HeapTooSmall:
1940:Middlewares/ST/STM32_SPWF0xSy/wifi_module.c ****          IO_status_flag.WiFi_WIND_State = Undefine_state;
1941:Middlewares/ST/STM32_SPWF0xSy/wifi_module.c ****          ind_wifi_warning(WiFi_HEAP_TOO_SMALL_WARNING);     //call with error number      
1942:Middlewares/ST/STM32_SPWF0xSy/wifi_module.c ****          break;
1943:Middlewares/ST/STM32_SPWF0xSy/wifi_module.c ****       
1944:Middlewares/ST/STM32_SPWF0xSy/wifi_module.c ****       case WiFiSignalLOW:
1945:Middlewares/ST/STM32_SPWF0xSy/wifi_module.c ****          IO_status_flag.WiFi_WIND_State = Undefine_state;
1946:Middlewares/ST/STM32_SPWF0xSy/wifi_module.c ****          ind_wifi_warning(WiFi_SIGNAL_LOW_WARNING); //call with error number      
1947:Middlewares/ST/STM32_SPWF0xSy/wifi_module.c ****          break;  
1948:Middlewares/ST/STM32_SPWF0xSy/wifi_module.c **** 
1949:Middlewares/ST/STM32_SPWF0xSy/wifi_module.c ****       case WiFiDeauthentication:
1950:Middlewares/ST/STM32_SPWF0xSy/wifi_module.c ****          IO_status_flag.WiFi_WIND_State = Undefine_state;
1951:Middlewares/ST/STM32_SPWF0xSy/wifi_module.c ****          ind_wifi_connection_error(WiFi_DE_AUTH);
1952:Middlewares/ST/STM32_SPWF0xSy/wifi_module.c ****          break;
1953:Middlewares/ST/STM32_SPWF0xSy/wifi_module.c **** 
1954:Middlewares/ST/STM32_SPWF0xSy/wifi_module.c ****       case WiFiDisAssociation:
1955:Middlewares/ST/STM32_SPWF0xSy/wifi_module.c ****          IO_status_flag.WiFi_WIND_State = Undefine_state;
1956:Middlewares/ST/STM32_SPWF0xSy/wifi_module.c ****          ind_wifi_connection_error(WiFi_DISASSOCIATION);
1957:Middlewares/ST/STM32_SPWF0xSy/wifi_module.c ****          break;
1958:Middlewares/ST/STM32_SPWF0xSy/wifi_module.c **** 
1959:Middlewares/ST/STM32_SPWF0xSy/wifi_module.c ****       case WiFiJoinFailed:
ARM GAS  D:\cygwin64\tmp\cckuROSo.s 			page 44


1960:Middlewares/ST/STM32_SPWF0xSy/wifi_module.c ****          IO_status_flag.WiFi_WIND_State = Undefine_state;
1961:Middlewares/ST/STM32_SPWF0xSy/wifi_module.c ****          ind_wifi_connection_error(WiFi_JOIN_FAILED);
1962:Middlewares/ST/STM32_SPWF0xSy/wifi_module.c ****          break;
1963:Middlewares/ST/STM32_SPWF0xSy/wifi_module.c ****       
1964:Middlewares/ST/STM32_SPWF0xSy/wifi_module.c ****       case WiFiScanBlewUp:
1965:Middlewares/ST/STM32_SPWF0xSy/wifi_module.c ****          IO_status_flag.WiFi_WIND_State = Undefine_state;
1966:Middlewares/ST/STM32_SPWF0xSy/wifi_module.c ****          ind_wifi_connection_error(WiFi_SCAN_BLEWUP);    //@TBD to check if user made call, so not 
1967:Middlewares/ST/STM32_SPWF0xSy/wifi_module.c ****          break;
1968:Middlewares/ST/STM32_SPWF0xSy/wifi_module.c ****       
1969:Middlewares/ST/STM32_SPWF0xSy/wifi_module.c ****       case WiFiScanFailed:
1970:Middlewares/ST/STM32_SPWF0xSy/wifi_module.c ****          IO_status_flag.WiFi_WIND_State = Undefine_state;
1971:Middlewares/ST/STM32_SPWF0xSy/wifi_module.c ****          ind_wifi_connection_error(WiFi_SCAN_FAILED);    //@TBD to check if user made call, so not 
1972:Middlewares/ST/STM32_SPWF0xSy/wifi_module.c ****          break;
1973:Middlewares/ST/STM32_SPWF0xSy/wifi_module.c ****       
1974:Middlewares/ST/STM32_SPWF0xSy/wifi_module.c ****       case WiFiUnHandledInd:
1975:Middlewares/ST/STM32_SPWF0xSy/wifi_module.c ****          IO_status_flag.WiFi_WIND_State = Undefine_state;
1976:Middlewares/ST/STM32_SPWF0xSy/wifi_module.c ****          ind_wifi_packet_lost(WiFi_UNHANDLED_IND_ERROR); //@TBD to check if user made call, so not 
1977:Middlewares/ST/STM32_SPWF0xSy/wifi_module.c ****          break;
1978:Middlewares/ST/STM32_SPWF0xSy/wifi_module.c ****     
1979:Middlewares/ST/STM32_SPWF0xSy/wifi_module.c ****       case WiFiRXMgmt:
1980:Middlewares/ST/STM32_SPWF0xSy/wifi_module.c ****          IO_status_flag.WiFi_WIND_State = Undefine_state;
1981:Middlewares/ST/STM32_SPWF0xSy/wifi_module.c ****          ind_wifi_packet_lost(WiFi_RX_MGMT);  //@TBD to check if user made call, so not call callba
1982:Middlewares/ST/STM32_SPWF0xSy/wifi_module.c ****          break;
1983:Middlewares/ST/STM32_SPWF0xSy/wifi_module.c ****       
1984:Middlewares/ST/STM32_SPWF0xSy/wifi_module.c ****       case WiFiRXData:
1985:Middlewares/ST/STM32_SPWF0xSy/wifi_module.c ****          IO_status_flag.WiFi_WIND_State = Undefine_state;
1986:Middlewares/ST/STM32_SPWF0xSy/wifi_module.c ****          ind_wifi_packet_lost(WiFi_RX_DATA);  //@TBD to check if user made call, so not call callba
1987:Middlewares/ST/STM32_SPWF0xSy/wifi_module.c ****          break;  
1988:Middlewares/ST/STM32_SPWF0xSy/wifi_module.c ****       
1989:Middlewares/ST/STM32_SPWF0xSy/wifi_module.c ****       case WiFiRxUnk:
1990:Middlewares/ST/STM32_SPWF0xSy/wifi_module.c ****          IO_status_flag.WiFi_WIND_State = Undefine_state;
1991:Middlewares/ST/STM32_SPWF0xSy/wifi_module.c ****          ind_wifi_packet_lost(WiFi_RX_UNK);  //@TBD to check if user made call, so not call callbac
1992:Middlewares/ST/STM32_SPWF0xSy/wifi_module.c ****          break;  
1993:Middlewares/ST/STM32_SPWF0xSy/wifi_module.c ****       
1994:Middlewares/ST/STM32_SPWF0xSy/wifi_module.c ****       case WiFiSockdDataLost:
1995:Middlewares/ST/STM32_SPWF0xSy/wifi_module.c ****          IO_status_flag.WiFi_WIND_State = Undefine_state;
1996:Middlewares/ST/STM32_SPWF0xSy/wifi_module.c ****          ind_wifi_socket_server_data_lost();  //@TBD to check if user made call, so not call callba
1997:Middlewares/ST/STM32_SPWF0xSy/wifi_module.c ****          break;
1998:Middlewares/ST/STM32_SPWF0xSy/wifi_module.c **** 
1999:Middlewares/ST/STM32_SPWF0xSy/wifi_module.c ****       case WiFiDeAuth:
2000:Middlewares/ST/STM32_SPWF0xSy/wifi_module.c ****       case WiFiPowerDown:
2001:Middlewares/ST/STM32_SPWF0xSy/wifi_module.c ****       case Undefine_state:
2002:Middlewares/ST/STM32_SPWF0xSy/wifi_module.c ****     	 break;
2003:Middlewares/ST/STM32_SPWF0xSy/wifi_module.c ****   }
2004:Middlewares/ST/STM32_SPWF0xSy/wifi_module.c **** }
2005:Middlewares/ST/STM32_SPWF0xSy/wifi_module.c **** 
2006:Middlewares/ST/STM32_SPWF0xSy/wifi_module.c **** /**
2007:Middlewares/ST/STM32_SPWF0xSy/wifi_module.c **** * @brief  Start_Timer
2008:Middlewares/ST/STM32_SPWF0xSy/wifi_module.c **** *         Start Timer 
2009:Middlewares/ST/STM32_SPWF0xSy/wifi_module.c **** * @param  None
2010:Middlewares/ST/STM32_SPWF0xSy/wifi_module.c **** * @retval None
2011:Middlewares/ST/STM32_SPWF0xSy/wifi_module.c **** */
2012:Middlewares/ST/STM32_SPWF0xSy/wifi_module.c **** void Start_Timer()
2013:Middlewares/ST/STM32_SPWF0xSy/wifi_module.c **** {
 507              		.loc 1 2013 0
 508              		.cfi_startproc
 509              		@ args = 0, pretend = 0, frame = 0
ARM GAS  D:\cygwin64\tmp\cckuROSo.s 			page 45


 510              		@ frame_needed = 0, uses_anonymous_args = 0
 511              		@ link register save eliminated.
2014:Middlewares/ST/STM32_SPWF0xSy/wifi_module.c ****   IO_status_flag.tickcount = WIFI_FALSE;
 512              		.loc 1 2014 0
 513 0000 034B     		ldr	r3, .L32
 514 0002 0022     		movs	r2, #0
 515 0004 9A60     		str	r2, [r3, #8]
2015:Middlewares/ST/STM32_SPWF0xSy/wifi_module.c ****   IO_status_flag.Timer_Running = WIFI_TRUE;
 516              		.loc 1 2015 0
 517 0006 1A78     		ldrb	r2, [r3]	@ zero_extendqisi2
 518 0008 42F00402 		orr	r2, r2, #4
 519 000c 1A70     		strb	r2, [r3]
 520 000e 7047     		bx	lr
 521              	.L33:
 522              		.align	2
 523              	.L32:
 524 0010 00000000 		.word	IO_status_flag
 525              		.cfi_endproc
 526              	.LFE284:
 528              		.section	.text.Stop_Timer,"ax",%progbits
 529              		.align	1
 530              		.global	Stop_Timer
 531              		.syntax unified
 532              		.thumb
 533              		.thumb_func
 534              		.fpu fpv4-sp-d16
 536              	Stop_Timer:
 537              	.LFB285:
2016:Middlewares/ST/STM32_SPWF0xSy/wifi_module.c **** }
2017:Middlewares/ST/STM32_SPWF0xSy/wifi_module.c **** 
2018:Middlewares/ST/STM32_SPWF0xSy/wifi_module.c **** /**
2019:Middlewares/ST/STM32_SPWF0xSy/wifi_module.c **** * @brief  Stop_Timer
2020:Middlewares/ST/STM32_SPWF0xSy/wifi_module.c **** *         Stop Timer request
2021:Middlewares/ST/STM32_SPWF0xSy/wifi_module.c **** * @param  None
2022:Middlewares/ST/STM32_SPWF0xSy/wifi_module.c **** * @retval None
2023:Middlewares/ST/STM32_SPWF0xSy/wifi_module.c **** */
2024:Middlewares/ST/STM32_SPWF0xSy/wifi_module.c **** void Stop_Timer()
2025:Middlewares/ST/STM32_SPWF0xSy/wifi_module.c **** {  
 538              		.loc 1 2025 0
 539              		.cfi_startproc
 540              		@ args = 0, pretend = 0, frame = 0
 541              		@ frame_needed = 0, uses_anonymous_args = 0
 542              		@ link register save eliminated.
2026:Middlewares/ST/STM32_SPWF0xSy/wifi_module.c ****   IO_status_flag.tickcount      = WIFI_FALSE;  
 543              		.loc 1 2026 0
 544 0000 044B     		ldr	r3, .L35
 545 0002 0021     		movs	r1, #0
 546 0004 9960     		str	r1, [r3, #8]
2027:Middlewares/ST/STM32_SPWF0xSy/wifi_module.c ****   IO_status_flag.Timer_Running  = WIFI_FALSE;    
 547              		.loc 1 2027 0
 548 0006 1A78     		ldrb	r2, [r3]	@ zero_extendqisi2
 549 0008 61F38202 		bfi	r2, r1, #2, #1
 550 000c 1A70     		strb	r2, [r3]
2028:Middlewares/ST/STM32_SPWF0xSy/wifi_module.c ****   IO_status_flag.UartReady      = SET;
 551              		.loc 1 2028 0
 552 000e 0122     		movs	r2, #1
 553 0010 5A74     		strb	r2, [r3, #17]
ARM GAS  D:\cygwin64\tmp\cckuROSo.s 			page 46


 554 0012 7047     		bx	lr
 555              	.L36:
 556              		.align	2
 557              	.L35:
 558 0014 00000000 		.word	IO_status_flag
 559              		.cfi_endproc
 560              	.LFE285:
 562              		.section	.text.Stop_Dequeue,"ax",%progbits
 563              		.align	1
 564              		.global	Stop_Dequeue
 565              		.syntax unified
 566              		.thumb
 567              		.thumb_func
 568              		.fpu fpv4-sp-d16
 570              	Stop_Dequeue:
 571              	.LFB286:
2029:Middlewares/ST/STM32_SPWF0xSy/wifi_module.c **** }
2030:Middlewares/ST/STM32_SPWF0xSy/wifi_module.c **** 
2031:Middlewares/ST/STM32_SPWF0xSy/wifi_module.c **** /**
2032:Middlewares/ST/STM32_SPWF0xSy/wifi_module.c **** * @brief  Stop_Dequeue
2033:Middlewares/ST/STM32_SPWF0xSy/wifi_module.c **** *         Stop dequeuing data from the ring buffer
2034:Middlewares/ST/STM32_SPWF0xSy/wifi_module.c **** * @param  None
2035:Middlewares/ST/STM32_SPWF0xSy/wifi_module.c **** * @retval None
2036:Middlewares/ST/STM32_SPWF0xSy/wifi_module.c **** */
2037:Middlewares/ST/STM32_SPWF0xSy/wifi_module.c **** void Stop_Dequeue()
2038:Middlewares/ST/STM32_SPWF0xSy/wifi_module.c **** {
 572              		.loc 1 2038 0
 573              		.cfi_startproc
 574              		@ args = 0, pretend = 0, frame = 0
 575              		@ frame_needed = 0, uses_anonymous_args = 0
 576              		@ link register save eliminated.
2039:Middlewares/ST/STM32_SPWF0xSy/wifi_module.c ****   IO_status_flag.enable_dequeue = WIFI_FALSE;
 577              		.loc 1 2039 0
 578 0000 024A     		ldr	r2, .L38
 579 0002 1378     		ldrb	r3, [r2]	@ zero_extendqisi2
 580 0004 6FF3C303 		bfc	r3, #3, #1
 581 0008 1370     		strb	r3, [r2]
 582 000a 7047     		bx	lr
 583              	.L39:
 584              		.align	2
 585              	.L38:
 586 000c 00000000 		.word	IO_status_flag
 587              		.cfi_endproc
 588              	.LFE286:
 590              		.section	.text.Resume_Dequeue,"ax",%progbits
 591              		.align	1
 592              		.global	Resume_Dequeue
 593              		.syntax unified
 594              		.thumb
 595              		.thumb_func
 596              		.fpu fpv4-sp-d16
 598              	Resume_Dequeue:
 599              	.LFB287:
2040:Middlewares/ST/STM32_SPWF0xSy/wifi_module.c **** }
2041:Middlewares/ST/STM32_SPWF0xSy/wifi_module.c **** 
2042:Middlewares/ST/STM32_SPWF0xSy/wifi_module.c **** /**
2043:Middlewares/ST/STM32_SPWF0xSy/wifi_module.c **** * @brief  Resume_Dequeue
ARM GAS  D:\cygwin64\tmp\cckuROSo.s 			page 47


2044:Middlewares/ST/STM32_SPWF0xSy/wifi_module.c **** *         Resume dequeuing data from the ring buffer
2045:Middlewares/ST/STM32_SPWF0xSy/wifi_module.c **** * @param  None
2046:Middlewares/ST/STM32_SPWF0xSy/wifi_module.c **** * @retval None
2047:Middlewares/ST/STM32_SPWF0xSy/wifi_module.c **** */
2048:Middlewares/ST/STM32_SPWF0xSy/wifi_module.c **** void Resume_Dequeue()
2049:Middlewares/ST/STM32_SPWF0xSy/wifi_module.c **** {
 600              		.loc 1 2049 0
 601              		.cfi_startproc
 602              		@ args = 0, pretend = 0, frame = 0
 603              		@ frame_needed = 0, uses_anonymous_args = 0
 604              		@ link register save eliminated.
2050:Middlewares/ST/STM32_SPWF0xSy/wifi_module.c ****   IO_status_flag.enable_dequeue = WIFI_TRUE;
 605              		.loc 1 2050 0
 606 0000 024A     		ldr	r2, .L41
 607 0002 1378     		ldrb	r3, [r2]	@ zero_extendqisi2
 608 0004 43F00803 		orr	r3, r3, #8
 609 0008 1370     		strb	r3, [r2]
 610 000a 7047     		bx	lr
 611              	.L42:
 612              		.align	2
 613              	.L41:
 614 000c 00000000 		.word	IO_status_flag
 615              		.cfi_endproc
 616              	.LFE287:
 618              		.section	.text.WiFi_HAL_UART_TxCpltCallback,"ax",%progbits
 619              		.align	1
 620              		.global	WiFi_HAL_UART_TxCpltCallback
 621              		.syntax unified
 622              		.thumb
 623              		.thumb_func
 624              		.fpu fpv4-sp-d16
 626              	WiFi_HAL_UART_TxCpltCallback:
 627              	.LFB289:
2051:Middlewares/ST/STM32_SPWF0xSy/wifi_module.c **** }
2052:Middlewares/ST/STM32_SPWF0xSy/wifi_module.c **** 
2053:Middlewares/ST/STM32_SPWF0xSy/wifi_module.c **** #if defined(SPWF04) && !defined(CONSOLE_UART_ENABLED)
2054:Middlewares/ST/STM32_SPWF0xSy/wifi_module.c **** 
2055:Middlewares/ST/STM32_SPWF0xSy/wifi_module.c **** /**
2056:Middlewares/ST/STM32_SPWF0xSy/wifi_module.c **** * @brief  Start_AT_CMD_Timer
2057:Middlewares/ST/STM32_SPWF0xSy/wifi_module.c **** *         Start the Timer after sending AT CMD.
2058:Middlewares/ST/STM32_SPWF0xSy/wifi_module.c **** * @param  None
2059:Middlewares/ST/STM32_SPWF0xSy/wifi_module.c **** * @retval void
2060:Middlewares/ST/STM32_SPWF0xSy/wifi_module.c **** */
2061:Middlewares/ST/STM32_SPWF0xSy/wifi_module.c **** void Start_AT_CMD_Timer(void)
2062:Middlewares/ST/STM32_SPWF0xSy/wifi_module.c **** {
2063:Middlewares/ST/STM32_SPWF0xSy/wifi_module.c ****   WiFi_Control_Variables.WIFI_Timeout = WIFI_TRUE;
2064:Middlewares/ST/STM32_SPWF0xSy/wifi_module.c ****   WiFi_Counter_Variables.Tickstart = HAL_GetTick();
2065:Middlewares/ST/STM32_SPWF0xSy/wifi_module.c **** }
2066:Middlewares/ST/STM32_SPWF0xSy/wifi_module.c **** 
2067:Middlewares/ST/STM32_SPWF0xSy/wifi_module.c **** /**
2068:Middlewares/ST/STM32_SPWF0xSy/wifi_module.c **** * @brief  Stop_AT_CMD_Timer
2069:Middlewares/ST/STM32_SPWF0xSy/wifi_module.c **** *         Stop the AT Command Timer.
2070:Middlewares/ST/STM32_SPWF0xSy/wifi_module.c **** * @param  None
2071:Middlewares/ST/STM32_SPWF0xSy/wifi_module.c **** * @retval void
2072:Middlewares/ST/STM32_SPWF0xSy/wifi_module.c **** */
2073:Middlewares/ST/STM32_SPWF0xSy/wifi_module.c **** void Stop_AT_CMD_Timer(void)
2074:Middlewares/ST/STM32_SPWF0xSy/wifi_module.c **** {
ARM GAS  D:\cygwin64\tmp\cckuROSo.s 			page 48


2075:Middlewares/ST/STM32_SPWF0xSy/wifi_module.c ****   WiFi_Control_Variables.WIFI_Timeout = WIFI_FALSE;
2076:Middlewares/ST/STM32_SPWF0xSy/wifi_module.c **** }
2077:Middlewares/ST/STM32_SPWF0xSy/wifi_module.c **** 
2078:Middlewares/ST/STM32_SPWF0xSy/wifi_module.c **** /**
2079:Middlewares/ST/STM32_SPWF0xSy/wifi_module.c **** * @brief  WiFi_AT_CMD_Timeout
2080:Middlewares/ST/STM32_SPWF0xSy/wifi_module.c **** *         Timeout of the AT command if no response of the cmd is received
2081:Middlewares/ST/STM32_SPWF0xSy/wifi_module.c **** *         within the given TIMEOUT time.
2082:Middlewares/ST/STM32_SPWF0xSy/wifi_module.c **** * @param  None
2083:Middlewares/ST/STM32_SPWF0xSy/wifi_module.c **** * @retval None
2084:Middlewares/ST/STM32_SPWF0xSy/wifi_module.c **** */
2085:Middlewares/ST/STM32_SPWF0xSy/wifi_module.c **** void WiFi_AT_CMD_Timeout(void)
2086:Middlewares/ST/STM32_SPWF0xSy/wifi_module.c **** {
2087:Middlewares/ST/STM32_SPWF0xSy/wifi_module.c ****   if(WiFi_Control_Variables.WIFI_Timeout)
2088:Middlewares/ST/STM32_SPWF0xSy/wifi_module.c ****   {
2089:Middlewares/ST/STM32_SPWF0xSy/wifi_module.c ****     if(HAL_GetTick() - WiFi_Counter_Variables.Tickstart >= TIMEOUT)
2090:Middlewares/ST/STM32_SPWF0xSy/wifi_module.c ****     {
2091:Middlewares/ST/STM32_SPWF0xSy/wifi_module.c ****       /* No result of command received. */
2092:Middlewares/ST/STM32_SPWF0xSy/wifi_module.c ****       Stop_AT_CMD_Timer();
2093:Middlewares/ST/STM32_SPWF0xSy/wifi_module.c ****       IO_status_flag.AT_Response_Received = WIFI_TRUE;
2094:Middlewares/ST/STM32_SPWF0xSy/wifi_module.c ****       WiFi_Counter_Variables.AT_RESPONSE = WiFi_TIME_OUT_ERROR;
2095:Middlewares/ST/STM32_SPWF0xSy/wifi_module.c ****       ind_wifi_error(WiFi_AT_CMD_RESP_ERROR);
2096:Middlewares/ST/STM32_SPWF0xSy/wifi_module.c ****     }
2097:Middlewares/ST/STM32_SPWF0xSy/wifi_module.c ****   }
2098:Middlewares/ST/STM32_SPWF0xSy/wifi_module.c **** }
2099:Middlewares/ST/STM32_SPWF0xSy/wifi_module.c **** #endif
2100:Middlewares/ST/STM32_SPWF0xSy/wifi_module.c **** 
2101:Middlewares/ST/STM32_SPWF0xSy/wifi_module.c **** /**
2102:Middlewares/ST/STM32_SPWF0xSy/wifi_module.c **** * @brief  Wifi_SysTick_Isr
2103:Middlewares/ST/STM32_SPWF0xSy/wifi_module.c **** *         Function called every SysTick to process buffer
2104:Middlewares/ST/STM32_SPWF0xSy/wifi_module.c **** * @param  None
2105:Middlewares/ST/STM32_SPWF0xSy/wifi_module.c **** * @retval None
2106:Middlewares/ST/STM32_SPWF0xSy/wifi_module.c **** */
2107:Middlewares/ST/STM32_SPWF0xSy/wifi_module.c **** void Wifi_SysTick_Isr()
2108:Middlewares/ST/STM32_SPWF0xSy/wifi_module.c **** {
2109:Middlewares/ST/STM32_SPWF0xSy/wifi_module.c ****     //Check if Data is Paused
2110:Middlewares/ST/STM32_SPWF0xSy/wifi_module.c ****     if((IO_status_flag.Timer_Running) && (IO_status_flag.enable_dequeue==WIFI_TRUE) /*&& ((tickcoun
2111:Middlewares/ST/STM32_SPWF0xSy/wifi_module.c ****       {
2112:Middlewares/ST/STM32_SPWF0xSy/wifi_module.c ****           Process_WiFi();
2113:Middlewares/ST/STM32_SPWF0xSy/wifi_module.c ****       }
2114:Middlewares/ST/STM32_SPWF0xSy/wifi_module.c **** 
2115:Middlewares/ST/STM32_SPWF0xSy/wifi_module.c ****     if(WiFi_Control_Variables.resume_receive_data == WIFI_TRUE)
2116:Middlewares/ST/STM32_SPWF0xSy/wifi_module.c ****       {
2117:Middlewares/ST/STM32_SPWF0xSy/wifi_module.c ****           if(is_half_empty(&wifi_instances.big_buff))
2118:Middlewares/ST/STM32_SPWF0xSy/wifi_module.c ****             {
2119:Middlewares/ST/STM32_SPWF0xSy/wifi_module.c ****                 WiFi_Control_Variables.resume_receive_data = WIFI_FALSE;
2120:Middlewares/ST/STM32_SPWF0xSy/wifi_module.c ****                 Receive_Data();
2121:Middlewares/ST/STM32_SPWF0xSy/wifi_module.c ****             }
2122:Middlewares/ST/STM32_SPWF0xSy/wifi_module.c ****       }
2123:Middlewares/ST/STM32_SPWF0xSy/wifi_module.c **** 
2124:Middlewares/ST/STM32_SPWF0xSy/wifi_module.c ****     if(WiFi_Control_Variables.Standby_Timer_Running) // module is in sleep and after expiry RX will
2125:Middlewares/ST/STM32_SPWF0xSy/wifi_module.c ****       {
2126:Middlewares/ST/STM32_SPWF0xSy/wifi_module.c ****           if((WiFi_Counter_Variables.standby_time++) >= EXTI_CONF_TIMER)
2127:Middlewares/ST/STM32_SPWF0xSy/wifi_module.c ****             {
2128:Middlewares/ST/STM32_SPWF0xSy/wifi_module.c ****                 WiFi_Control_Variables.Standby_Timer_Running=WIFI_FALSE;
2129:Middlewares/ST/STM32_SPWF0xSy/wifi_module.c ****                 WiFi_Counter_Variables.standby_time = 0;
2130:Middlewares/ST/STM32_SPWF0xSy/wifi_module.c ****             }
2131:Middlewares/ST/STM32_SPWF0xSy/wifi_module.c ****       }
ARM GAS  D:\cygwin64\tmp\cckuROSo.s 			page 49


2132:Middlewares/ST/STM32_SPWF0xSy/wifi_module.c **** #if 0
2133:Middlewares/ST/STM32_SPWF0xSy/wifi_module.c ****     if(WiFi_Control_Variables.enable_timeout_timer)     // module will timeout when no response fro
2134:Middlewares/ST/STM32_SPWF0xSy/wifi_module.c ****       {
2135:Middlewares/ST/STM32_SPWF0xSy/wifi_module.c ****           WiFi_Counter_Variables.timeout_tick++;
2136:Middlewares/ST/STM32_SPWF0xSy/wifi_module.c ****           //wait for 20 seconds before timeout
2137:Middlewares/ST/STM32_SPWF0xSy/wifi_module.c ****           if(WiFi_Counter_Variables.timeout_tick > 20000)       //wait for 20s before timeout
2138:Middlewares/ST/STM32_SPWF0xSy/wifi_module.c ****             {
2139:Middlewares/ST/STM32_SPWF0xSy/wifi_module.c ****                 #if DEBUG_PRINT
2140:Middlewares/ST/STM32_SPWF0xSy/wifi_module.c ****                   printf("\r\n Timeout! No response received.\r\n");
2141:Middlewares/ST/STM32_SPWF0xSy/wifi_module.c ****                 #endif
2142:Middlewares/ST/STM32_SPWF0xSy/wifi_module.c ****                 WiFi_Counter_Variables.timeout_tick         = 0;
2143:Middlewares/ST/STM32_SPWF0xSy/wifi_module.c ****                 WiFi_Control_Variables.enable_timeout_timer = WIFI_FALSE;
2144:Middlewares/ST/STM32_SPWF0xSy/wifi_module.c ****                 WiFi_Counter_Variables.AT_RESPONSE          = WiFi_AT_CMD_RESP_ERROR; // Timeout if
2145:Middlewares/ST/STM32_SPWF0xSy/wifi_module.c ****                 IO_status_flag.AT_Response_Received = WIFI_TRUE;
2146:Middlewares/ST/STM32_SPWF0xSy/wifi_module.c ****                  //re-enable event Q after 200ms
2147:Middlewares/ST/STM32_SPWF0xSy/wifi_module.c ****                 WiFi_Control_Variables.stop_event_dequeue = WIFI_FALSE;
2148:Middlewares/ST/STM32_SPWF0xSy/wifi_module.c ****             }
2149:Middlewares/ST/STM32_SPWF0xSy/wifi_module.c ****       }
2150:Middlewares/ST/STM32_SPWF0xSy/wifi_module.c **** #endif
2151:Middlewares/ST/STM32_SPWF0xSy/wifi_module.c **** 
2152:Middlewares/ST/STM32_SPWF0xSy/wifi_module.c ****     /*A Resume WIND:70 has come and triggered this
2153:Middlewares/ST/STM32_SPWF0xSy/wifi_module.c ****     So checking here if after that resume we fall back to sleep (another WIND69) within SLEEP_RESUM
2154:Middlewares/ST/STM32_SPWF0xSy/wifi_module.c ****     If yes, we assume it is a false resume and hence do nothing and go back to sleep
2155:Middlewares/ST/STM32_SPWF0xSy/wifi_module.c ****     If no WIND69 (going into sleep) has come, we can assume the resume was genuine and then enable 
2156:Middlewares/ST/STM32_SPWF0xSy/wifi_module.c ****     */
2157:Middlewares/ST/STM32_SPWF0xSy/wifi_module.c ****     if((WiFi_Control_Variables.Deep_Sleep_Timer) && (WiFi_Counter_Variables.sleep_count++) >= SLEEP
2158:Middlewares/ST/STM32_SPWF0xSy/wifi_module.c ****       {
2159:Middlewares/ST/STM32_SPWF0xSy/wifi_module.c ****           if(WiFi_Control_Variables.Deep_Sleep_Enabled == WIFI_TRUE)//which means we have received 
2160:Middlewares/ST/STM32_SPWF0xSy/wifi_module.c ****             {
2161:Middlewares/ST/STM32_SPWF0xSy/wifi_module.c ****                 //do nothing, go back to sleep
2162:Middlewares/ST/STM32_SPWF0xSy/wifi_module.c ****                 WiFi_Control_Variables.Deep_Sleep_Enabled = WIFI_TRUE;
2163:Middlewares/ST/STM32_SPWF0xSy/wifi_module.c ****             }
2164:Middlewares/ST/STM32_SPWF0xSy/wifi_module.c ****           else if (WiFi_Control_Variables.Deep_Sleep_Enabled == WIFI_FALSE) //which means we have n
2165:Middlewares/ST/STM32_SPWF0xSy/wifi_module.c ****             {
2166:Middlewares/ST/STM32_SPWF0xSy/wifi_module.c ****                 //enable the user callback as it is a genuine WIND70
2167:Middlewares/ST/STM32_SPWF0xSy/wifi_module.c ****                IO_status_flag.WiFi_WIND_State = Deep_Sleep_Callback;
2168:Middlewares/ST/STM32_SPWF0xSy/wifi_module.c ****             }
2169:Middlewares/ST/STM32_SPWF0xSy/wifi_module.c ****           Stop_DeepSleep_Timer();
2170:Middlewares/ST/STM32_SPWF0xSy/wifi_module.c ****       }
2171:Middlewares/ST/STM32_SPWF0xSy/wifi_module.c **** }
2172:Middlewares/ST/STM32_SPWF0xSy/wifi_module.c **** 
2173:Middlewares/ST/STM32_SPWF0xSy/wifi_module.c **** /**
2174:Middlewares/ST/STM32_SPWF0xSy/wifi_module.c **** * @brief  WiFi_HAL_UART_TxCpltCallback
2175:Middlewares/ST/STM32_SPWF0xSy/wifi_module.c **** *         Tx Transfer completed callback
2176:Middlewares/ST/STM32_SPWF0xSy/wifi_module.c **** * @param  UsartHandle: UART handle 
2177:Middlewares/ST/STM32_SPWF0xSy/wifi_module.c **** * @retval None
2178:Middlewares/ST/STM32_SPWF0xSy/wifi_module.c **** */
2179:Middlewares/ST/STM32_SPWF0xSy/wifi_module.c **** void WiFi_HAL_UART_TxCpltCallback(UART_HandleTypeDef *UartHandleArg)
2180:Middlewares/ST/STM32_SPWF0xSy/wifi_module.c **** {
 628              		.loc 1 2180 0
 629              		.cfi_startproc
 630              		@ args = 0, pretend = 0, frame = 0
 631              		@ frame_needed = 0, uses_anonymous_args = 0
 632              		@ link register save eliminated.
 633              	.LVL11:
2181:Middlewares/ST/STM32_SPWF0xSy/wifi_module.c **** #ifdef WIFI_USE_VCOM
2182:Middlewares/ST/STM32_SPWF0xSy/wifi_module.c **** //  if (UartHandleArg == UartMsgHandle)
ARM GAS  D:\cygwin64\tmp\cckuROSo.s 			page 50


2183:Middlewares/ST/STM32_SPWF0xSy/wifi_module.c **** //    console_echo_ready = SET;
2184:Middlewares/ST/STM32_SPWF0xSy/wifi_module.c **** #else
2185:Middlewares/ST/STM32_SPWF0xSy/wifi_module.c ****   /* Set transmission flag: transfer complete */
2186:Middlewares/ST/STM32_SPWF0xSy/wifi_module.c ****   WiFi_Control_Variables.stop_event_dequeue = WIFI_FALSE;
 634              		.loc 1 2186 0
 635 0000 024B     		ldr	r3, .L44
 636 0002 1A78     		ldrb	r2, [r3]	@ zero_extendqisi2
 637 0004 6FF3C302 		bfc	r2, #3, #1
 638 0008 1A70     		strb	r2, [r3]
 639 000a 7047     		bx	lr
 640              	.L45:
 641              		.align	2
 642              	.L44:
 643 000c 00000000 		.word	WiFi_Control_Variables
 644              		.cfi_endproc
 645              	.LFE289:
 647              		.section	.text.WiFi_HAL_UART_RxCpltCallback,"ax",%progbits
 648              		.align	1
 649              		.global	WiFi_HAL_UART_RxCpltCallback
 650              		.syntax unified
 651              		.thumb
 652              		.thumb_func
 653              		.fpu fpv4-sp-d16
 655              	WiFi_HAL_UART_RxCpltCallback:
 656              	.LFB290:
2187:Middlewares/ST/STM32_SPWF0xSy/wifi_module.c **** #endif
2188:Middlewares/ST/STM32_SPWF0xSy/wifi_module.c **** }
2189:Middlewares/ST/STM32_SPWF0xSy/wifi_module.c **** 
2190:Middlewares/ST/STM32_SPWF0xSy/wifi_module.c **** /**
2191:Middlewares/ST/STM32_SPWF0xSy/wifi_module.c **** * @brief  WiFi_HAL_UART_RxCpltCallback
2192:Middlewares/ST/STM32_SPWF0xSy/wifi_module.c **** *         Rx Transfer completed callback
2193:Middlewares/ST/STM32_SPWF0xSy/wifi_module.c **** * @param  UsartHandle: UART handle 
2194:Middlewares/ST/STM32_SPWF0xSy/wifi_module.c **** * @retval None
2195:Middlewares/ST/STM32_SPWF0xSy/wifi_module.c **** */
2196:Middlewares/ST/STM32_SPWF0xSy/wifi_module.c **** void WiFi_HAL_UART_RxCpltCallback(UART_HandleTypeDef *UartHandleArg)
2197:Middlewares/ST/STM32_SPWF0xSy/wifi_module.c **** {
 657              		.loc 1 2197 0
 658              		.cfi_startproc
 659              		@ args = 0, pretend = 0, frame = 0
 660              		@ frame_needed = 0, uses_anonymous_args = 0
 661              	.LVL12:
 662 0000 10B5     		push	{r4, lr}
 663              	.LCFI7:
 664              		.cfi_def_cfa_offset 8
 665              		.cfi_offset 4, -8
 666              		.cfi_offset 14, -4
2198:Middlewares/ST/STM32_SPWF0xSy/wifi_module.c **** #ifdef WIFI_USE_VCOM
2199:Middlewares/ST/STM32_SPWF0xSy/wifi_module.c ****   //if (UartHandleArg==&UartWiFiHandle)
2200:Middlewares/ST/STM32_SPWF0xSy/wifi_module.c **** #endif  
2201:Middlewares/ST/STM32_SPWF0xSy/wifi_module.c ****   {
2202:Middlewares/ST/STM32_SPWF0xSy/wifi_module.c ****     #ifndef WIFI_USE_VCOM
2203:Middlewares/ST/STM32_SPWF0xSy/wifi_module.c ****       WiFi_Control_Variables.Uartx_Rx_Processing = WIFI_FALSE;
 667              		.loc 1 2203 0
 668 0002 194B     		ldr	r3, .L52
 669 0004 5A78     		ldrb	r2, [r3, #1]	@ zero_extendqisi2
 670 0006 6FF30412 		bfc	r2, #4, #1
 671 000a 5A70     		strb	r2, [r3, #1]
ARM GAS  D:\cygwin64\tmp\cckuROSo.s 			page 51


2204:Middlewares/ST/STM32_SPWF0xSy/wifi_module.c ****       Stop_Timer();
 672              		.loc 1 2204 0
 673 000c FFF7FEFF 		bl	Stop_Timer
 674              	.LVL13:
 675              	.LBB88:
 676              	.LBB89:
 677              		.file 2 "Drivers/CMSIS/Include/cmsis_gcc.h"
   1:Drivers/CMSIS/Include/cmsis_gcc.h **** /**************************************************************************//**
   2:Drivers/CMSIS/Include/cmsis_gcc.h ****  * @file     cmsis_gcc.h
   3:Drivers/CMSIS/Include/cmsis_gcc.h ****  * @brief    CMSIS compiler GCC header file
   4:Drivers/CMSIS/Include/cmsis_gcc.h ****  * @version  V5.0.4
   5:Drivers/CMSIS/Include/cmsis_gcc.h ****  * @date     09. April 2018
   6:Drivers/CMSIS/Include/cmsis_gcc.h ****  ******************************************************************************/
   7:Drivers/CMSIS/Include/cmsis_gcc.h **** /*
   8:Drivers/CMSIS/Include/cmsis_gcc.h ****  * Copyright (c) 2009-2018 Arm Limited. All rights reserved.
   9:Drivers/CMSIS/Include/cmsis_gcc.h ****  *
  10:Drivers/CMSIS/Include/cmsis_gcc.h ****  * SPDX-License-Identifier: Apache-2.0
  11:Drivers/CMSIS/Include/cmsis_gcc.h ****  *
  12:Drivers/CMSIS/Include/cmsis_gcc.h ****  * Licensed under the Apache License, Version 2.0 (the License); you may
  13:Drivers/CMSIS/Include/cmsis_gcc.h ****  * not use this file except in compliance with the License.
  14:Drivers/CMSIS/Include/cmsis_gcc.h ****  * You may obtain a copy of the License at
  15:Drivers/CMSIS/Include/cmsis_gcc.h ****  *
  16:Drivers/CMSIS/Include/cmsis_gcc.h ****  * www.apache.org/licenses/LICENSE-2.0
  17:Drivers/CMSIS/Include/cmsis_gcc.h ****  *
  18:Drivers/CMSIS/Include/cmsis_gcc.h ****  * Unless required by applicable law or agreed to in writing, software
  19:Drivers/CMSIS/Include/cmsis_gcc.h ****  * distributed under the License is distributed on an AS IS BASIS, WITHOUT
  20:Drivers/CMSIS/Include/cmsis_gcc.h ****  * WARRANTIES OR CONDITIONS OF ANY KIND, either express or implied.
  21:Drivers/CMSIS/Include/cmsis_gcc.h ****  * See the License for the specific language governing permissions and
  22:Drivers/CMSIS/Include/cmsis_gcc.h ****  * limitations under the License.
  23:Drivers/CMSIS/Include/cmsis_gcc.h ****  */
  24:Drivers/CMSIS/Include/cmsis_gcc.h **** 
  25:Drivers/CMSIS/Include/cmsis_gcc.h **** #ifndef __CMSIS_GCC_H
  26:Drivers/CMSIS/Include/cmsis_gcc.h **** #define __CMSIS_GCC_H
  27:Drivers/CMSIS/Include/cmsis_gcc.h **** 
  28:Drivers/CMSIS/Include/cmsis_gcc.h **** /* ignore some GCC warnings */
  29:Drivers/CMSIS/Include/cmsis_gcc.h **** #pragma GCC diagnostic push
  30:Drivers/CMSIS/Include/cmsis_gcc.h **** #pragma GCC diagnostic ignored "-Wsign-conversion"
  31:Drivers/CMSIS/Include/cmsis_gcc.h **** #pragma GCC diagnostic ignored "-Wconversion"
  32:Drivers/CMSIS/Include/cmsis_gcc.h **** #pragma GCC diagnostic ignored "-Wunused-parameter"
  33:Drivers/CMSIS/Include/cmsis_gcc.h **** 
  34:Drivers/CMSIS/Include/cmsis_gcc.h **** /* Fallback for __has_builtin */
  35:Drivers/CMSIS/Include/cmsis_gcc.h **** #ifndef __has_builtin
  36:Drivers/CMSIS/Include/cmsis_gcc.h ****   #define __has_builtin(x) (0)
  37:Drivers/CMSIS/Include/cmsis_gcc.h **** #endif
  38:Drivers/CMSIS/Include/cmsis_gcc.h **** 
  39:Drivers/CMSIS/Include/cmsis_gcc.h **** /* CMSIS compiler specific defines */
  40:Drivers/CMSIS/Include/cmsis_gcc.h **** #ifndef   __ASM
  41:Drivers/CMSIS/Include/cmsis_gcc.h ****   #define __ASM                                  __asm
  42:Drivers/CMSIS/Include/cmsis_gcc.h **** #endif
  43:Drivers/CMSIS/Include/cmsis_gcc.h **** #ifndef   __INLINE
  44:Drivers/CMSIS/Include/cmsis_gcc.h ****   #define __INLINE                               inline
  45:Drivers/CMSIS/Include/cmsis_gcc.h **** #endif
  46:Drivers/CMSIS/Include/cmsis_gcc.h **** #ifndef   __STATIC_INLINE
  47:Drivers/CMSIS/Include/cmsis_gcc.h ****   #define __STATIC_INLINE                        static inline
  48:Drivers/CMSIS/Include/cmsis_gcc.h **** #endif
  49:Drivers/CMSIS/Include/cmsis_gcc.h **** #ifndef   __STATIC_FORCEINLINE                 
  50:Drivers/CMSIS/Include/cmsis_gcc.h ****   #define __STATIC_FORCEINLINE                   __attribute__((always_inline)) static inline
ARM GAS  D:\cygwin64\tmp\cckuROSo.s 			page 52


  51:Drivers/CMSIS/Include/cmsis_gcc.h **** #endif                                           
  52:Drivers/CMSIS/Include/cmsis_gcc.h **** #ifndef   __NO_RETURN
  53:Drivers/CMSIS/Include/cmsis_gcc.h ****   #define __NO_RETURN                            __attribute__((__noreturn__))
  54:Drivers/CMSIS/Include/cmsis_gcc.h **** #endif
  55:Drivers/CMSIS/Include/cmsis_gcc.h **** #ifndef   __USED
  56:Drivers/CMSIS/Include/cmsis_gcc.h ****   #define __USED                                 __attribute__((used))
  57:Drivers/CMSIS/Include/cmsis_gcc.h **** #endif
  58:Drivers/CMSIS/Include/cmsis_gcc.h **** #ifndef   __WEAK
  59:Drivers/CMSIS/Include/cmsis_gcc.h ****   #define __WEAK                                 __attribute__((weak))
  60:Drivers/CMSIS/Include/cmsis_gcc.h **** #endif
  61:Drivers/CMSIS/Include/cmsis_gcc.h **** #ifndef   __PACKED
  62:Drivers/CMSIS/Include/cmsis_gcc.h ****   #define __PACKED                               __attribute__((packed, aligned(1)))
  63:Drivers/CMSIS/Include/cmsis_gcc.h **** #endif
  64:Drivers/CMSIS/Include/cmsis_gcc.h **** #ifndef   __PACKED_STRUCT
  65:Drivers/CMSIS/Include/cmsis_gcc.h ****   #define __PACKED_STRUCT                        struct __attribute__((packed, aligned(1)))
  66:Drivers/CMSIS/Include/cmsis_gcc.h **** #endif
  67:Drivers/CMSIS/Include/cmsis_gcc.h **** #ifndef   __PACKED_UNION
  68:Drivers/CMSIS/Include/cmsis_gcc.h ****   #define __PACKED_UNION                         union __attribute__((packed, aligned(1)))
  69:Drivers/CMSIS/Include/cmsis_gcc.h **** #endif
  70:Drivers/CMSIS/Include/cmsis_gcc.h **** #ifndef   __UNALIGNED_UINT32        /* deprecated */
  71:Drivers/CMSIS/Include/cmsis_gcc.h ****   #pragma GCC diagnostic push
  72:Drivers/CMSIS/Include/cmsis_gcc.h ****   #pragma GCC diagnostic ignored "-Wpacked"
  73:Drivers/CMSIS/Include/cmsis_gcc.h ****   #pragma GCC diagnostic ignored "-Wattributes"
  74:Drivers/CMSIS/Include/cmsis_gcc.h ****   struct __attribute__((packed)) T_UINT32 { uint32_t v; };
  75:Drivers/CMSIS/Include/cmsis_gcc.h ****   #pragma GCC diagnostic pop
  76:Drivers/CMSIS/Include/cmsis_gcc.h ****   #define __UNALIGNED_UINT32(x)                  (((struct T_UINT32 *)(x))->v)
  77:Drivers/CMSIS/Include/cmsis_gcc.h **** #endif
  78:Drivers/CMSIS/Include/cmsis_gcc.h **** #ifndef   __UNALIGNED_UINT16_WRITE
  79:Drivers/CMSIS/Include/cmsis_gcc.h ****   #pragma GCC diagnostic push
  80:Drivers/CMSIS/Include/cmsis_gcc.h ****   #pragma GCC diagnostic ignored "-Wpacked"
  81:Drivers/CMSIS/Include/cmsis_gcc.h ****   #pragma GCC diagnostic ignored "-Wattributes"
  82:Drivers/CMSIS/Include/cmsis_gcc.h ****   __PACKED_STRUCT T_UINT16_WRITE { uint16_t v; };
  83:Drivers/CMSIS/Include/cmsis_gcc.h ****   #pragma GCC diagnostic pop
  84:Drivers/CMSIS/Include/cmsis_gcc.h ****   #define __UNALIGNED_UINT16_WRITE(addr, val)    (void)((((struct T_UINT16_WRITE *)(void *)(addr))-
  85:Drivers/CMSIS/Include/cmsis_gcc.h **** #endif
  86:Drivers/CMSIS/Include/cmsis_gcc.h **** #ifndef   __UNALIGNED_UINT16_READ
  87:Drivers/CMSIS/Include/cmsis_gcc.h ****   #pragma GCC diagnostic push
  88:Drivers/CMSIS/Include/cmsis_gcc.h ****   #pragma GCC diagnostic ignored "-Wpacked"
  89:Drivers/CMSIS/Include/cmsis_gcc.h ****   #pragma GCC diagnostic ignored "-Wattributes"
  90:Drivers/CMSIS/Include/cmsis_gcc.h ****   __PACKED_STRUCT T_UINT16_READ { uint16_t v; };
  91:Drivers/CMSIS/Include/cmsis_gcc.h ****   #pragma GCC diagnostic pop
  92:Drivers/CMSIS/Include/cmsis_gcc.h ****   #define __UNALIGNED_UINT16_READ(addr)          (((const struct T_UINT16_READ *)(const void *)(add
  93:Drivers/CMSIS/Include/cmsis_gcc.h **** #endif
  94:Drivers/CMSIS/Include/cmsis_gcc.h **** #ifndef   __UNALIGNED_UINT32_WRITE
  95:Drivers/CMSIS/Include/cmsis_gcc.h ****   #pragma GCC diagnostic push
  96:Drivers/CMSIS/Include/cmsis_gcc.h ****   #pragma GCC diagnostic ignored "-Wpacked"
  97:Drivers/CMSIS/Include/cmsis_gcc.h ****   #pragma GCC diagnostic ignored "-Wattributes"
  98:Drivers/CMSIS/Include/cmsis_gcc.h ****   __PACKED_STRUCT T_UINT32_WRITE { uint32_t v; };
  99:Drivers/CMSIS/Include/cmsis_gcc.h ****   #pragma GCC diagnostic pop
 100:Drivers/CMSIS/Include/cmsis_gcc.h ****   #define __UNALIGNED_UINT32_WRITE(addr, val)    (void)((((struct T_UINT32_WRITE *)(void *)(addr))-
 101:Drivers/CMSIS/Include/cmsis_gcc.h **** #endif
 102:Drivers/CMSIS/Include/cmsis_gcc.h **** #ifndef   __UNALIGNED_UINT32_READ
 103:Drivers/CMSIS/Include/cmsis_gcc.h ****   #pragma GCC diagnostic push
 104:Drivers/CMSIS/Include/cmsis_gcc.h ****   #pragma GCC diagnostic ignored "-Wpacked"
 105:Drivers/CMSIS/Include/cmsis_gcc.h ****   #pragma GCC diagnostic ignored "-Wattributes"
 106:Drivers/CMSIS/Include/cmsis_gcc.h ****   __PACKED_STRUCT T_UINT32_READ { uint32_t v; };
 107:Drivers/CMSIS/Include/cmsis_gcc.h ****   #pragma GCC diagnostic pop
ARM GAS  D:\cygwin64\tmp\cckuROSo.s 			page 53


 108:Drivers/CMSIS/Include/cmsis_gcc.h ****   #define __UNALIGNED_UINT32_READ(addr)          (((const struct T_UINT32_READ *)(const void *)(add
 109:Drivers/CMSIS/Include/cmsis_gcc.h **** #endif
 110:Drivers/CMSIS/Include/cmsis_gcc.h **** #ifndef   __ALIGNED
 111:Drivers/CMSIS/Include/cmsis_gcc.h ****   #define __ALIGNED(x)                           __attribute__((aligned(x)))
 112:Drivers/CMSIS/Include/cmsis_gcc.h **** #endif
 113:Drivers/CMSIS/Include/cmsis_gcc.h **** #ifndef   __RESTRICT
 114:Drivers/CMSIS/Include/cmsis_gcc.h ****   #define __RESTRICT                             __restrict
 115:Drivers/CMSIS/Include/cmsis_gcc.h **** #endif
 116:Drivers/CMSIS/Include/cmsis_gcc.h **** 
 117:Drivers/CMSIS/Include/cmsis_gcc.h **** 
