ARM GAS  D:\cygwin64\tmp\ccGmGipG.s 			page 1


   1              		.cpu cortex-m4
   2              		.eabi_attribute 27, 1
   3              		.eabi_attribute 28, 1
   4              		.eabi_attribute 20, 1
   5              		.eabi_attribute 21, 1
   6              		.eabi_attribute 23, 3
   7              		.eabi_attribute 24, 1
   8              		.eabi_attribute 25, 1
   9              		.eabi_attribute 26, 1
  10              		.eabi_attribute 30, 1
  11              		.eabi_attribute 34, 1
  12              		.eabi_attribute 18, 4
  13              		.file	"wifi_interface.c"
  14              		.text
  15              	.Ltext0:
  16              		.cfi_sections	.debug_frame
  17              		.section	.text.wifi_set_socket_certificates,"ax",%progbits
  18              		.align	1
  19              		.global	wifi_set_socket_certificates
  20              		.syntax unified
  21              		.thumb
  22              		.thumb_func
  23              		.fpu fpv4-sp-d16
  25              	wifi_set_socket_certificates:
  26              	.LFB276:
  27              		.file 1 "Middlewares/ST/STM32_SPWF0xSy/wifi_interface.c"
   1:Middlewares/ST/STM32_SPWF0xSy/wifi_interface.c **** /**
   2:Middlewares/ST/STM32_SPWF0xSy/wifi_interface.c ****  ******************************************************************************
   3:Middlewares/ST/STM32_SPWF0xSy/wifi_interface.c ****  * @file    wifi_interface.c
   4:Middlewares/ST/STM32_SPWF0xSy/wifi_interface.c ****  * @author  Central LAB
   5:Middlewares/ST/STM32_SPWF0xSy/wifi_interface.c ****  * @version V2.1.0
   6:Middlewares/ST/STM32_SPWF0xSy/wifi_interface.c ****  * @date    17-May-2016
   7:Middlewares/ST/STM32_SPWF0xSy/wifi_interface.c ****  * @brief   User APIs implementation for X-CUBE-WIFI1
   8:Middlewares/ST/STM32_SPWF0xSy/wifi_interface.c ****  ******************************************************************************
   9:Middlewares/ST/STM32_SPWF0xSy/wifi_interface.c ****  * @attention
  10:Middlewares/ST/STM32_SPWF0xSy/wifi_interface.c ****  *
  11:Middlewares/ST/STM32_SPWF0xSy/wifi_interface.c ****  * <h2><center>&copy; COPYRIGHT(c) 2015 STMicroelectronics</center></h2>
  12:Middlewares/ST/STM32_SPWF0xSy/wifi_interface.c ****  *
  13:Middlewares/ST/STM32_SPWF0xSy/wifi_interface.c ****  * Redistribution and use in source and binary forms, with or without modification,
  14:Middlewares/ST/STM32_SPWF0xSy/wifi_interface.c ****  * are permitted provided that the following conditions are met:
  15:Middlewares/ST/STM32_SPWF0xSy/wifi_interface.c ****  *   1. Redistributions of source code must retain the above copyright notice,
  16:Middlewares/ST/STM32_SPWF0xSy/wifi_interface.c ****  *      this list of conditions and the following disclaimer.
  17:Middlewares/ST/STM32_SPWF0xSy/wifi_interface.c ****  *   2. Redistributions in binary form must reproduce the above copyright notice,
  18:Middlewares/ST/STM32_SPWF0xSy/wifi_interface.c ****  *      this list of conditions and the following disclaimer in the documentation
  19:Middlewares/ST/STM32_SPWF0xSy/wifi_interface.c ****  *      and/or other materials provided with the distribution.
  20:Middlewares/ST/STM32_SPWF0xSy/wifi_interface.c ****  *   3. Neither the name of STMicroelectronics nor the names of its contributors
  21:Middlewares/ST/STM32_SPWF0xSy/wifi_interface.c ****  *      may be used to endorse or promote products derived from this software
  22:Middlewares/ST/STM32_SPWF0xSy/wifi_interface.c ****  *      without specific prior written permission.
  23:Middlewares/ST/STM32_SPWF0xSy/wifi_interface.c ****  *
  24:Middlewares/ST/STM32_SPWF0xSy/wifi_interface.c ****  * THIS SOFTWARE IS PROVIDED BY THE COPYRIGHT HOLDERS AND CONTRIBUTORS "AS IS"
  25:Middlewares/ST/STM32_SPWF0xSy/wifi_interface.c ****  * AND ANY EXPRESS OR IMPLIED WARRANTIES, INCLUDING, BUT NOT LIMITED TO, THE
  26:Middlewares/ST/STM32_SPWF0xSy/wifi_interface.c ****  * IMPLIED WARRANTIES OF MERCHANTABILITY AND FITNESS FOR A PARTICULAR PURPOSE ARE
  27:Middlewares/ST/STM32_SPWF0xSy/wifi_interface.c ****  * DISCLAIMED. IN NO EVENT SHALL THE COPYRIGHT HOLDER OR CONTRIBUTORS BE LIABLE
  28:Middlewares/ST/STM32_SPWF0xSy/wifi_interface.c ****  * FOR ANY DIRECT, INDIRECT, INCIDENTAL, SPECIAL, EXEMPLARY, OR CONSEQUENTIAL
  29:Middlewares/ST/STM32_SPWF0xSy/wifi_interface.c ****  * DAMAGES (INCLUDING, BUT NOT LIMITED TO, PROCUREMENT OF SUBSTITUTE GOODS OR
  30:Middlewares/ST/STM32_SPWF0xSy/wifi_interface.c ****  * SERVICES; LOSS OF USE, DATA, OR PROFITS; OR BUSINESS INTERRUPTION) HOWEVER
  31:Middlewares/ST/STM32_SPWF0xSy/wifi_interface.c ****  * CAUSED AND ON ANY THEORY OF LIABILITY, WHETHER IN CONTRACT, STRICT LIABILITY,
ARM GAS  D:\cygwin64\tmp\ccGmGipG.s 			page 2


  32:Middlewares/ST/STM32_SPWF0xSy/wifi_interface.c ****  * OR TORT (INCLUDING NEGLIGENCE OR OTHERWISE) ARISING IN ANY WAY OUT OF THE USE
  33:Middlewares/ST/STM32_SPWF0xSy/wifi_interface.c ****  * OF THIS SOFTWARE, EVEN IF ADVISED OF THE POSSIBILITY OF SUCH DAMAGE.
  34:Middlewares/ST/STM32_SPWF0xSy/wifi_interface.c ****  *
  35:Middlewares/ST/STM32_SPWF0xSy/wifi_interface.c ****  ******************************************************************************
  36:Middlewares/ST/STM32_SPWF0xSy/wifi_interface.c ****  */
  37:Middlewares/ST/STM32_SPWF0xSy/wifi_interface.c **** 
  38:Middlewares/ST/STM32_SPWF0xSy/wifi_interface.c **** /* Includes ------------------------------------------------------------------*/
  39:Middlewares/ST/STM32_SPWF0xSy/wifi_interface.c **** #include "wifi_module.h"
  40:Middlewares/ST/STM32_SPWF0xSy/wifi_interface.c **** #include "wifi_globals.h"
  41:Middlewares/ST/STM32_SPWF0xSy/wifi_interface.c **** #include "stdarg.h"
  42:Middlewares/ST/STM32_SPWF0xSy/wifi_interface.c **** 
  43:Middlewares/ST/STM32_SPWF0xSy/wifi_interface.c **** /** @addtogroup MIDDLEWARES
  44:Middlewares/ST/STM32_SPWF0xSy/wifi_interface.c **** * @{
  45:Middlewares/ST/STM32_SPWF0xSy/wifi_interface.c **** */ 
  46:Middlewares/ST/STM32_SPWF0xSy/wifi_interface.c **** 
  47:Middlewares/ST/STM32_SPWF0xSy/wifi_interface.c **** /** @defgroup  NUCLEO_WIFI_INTERFACE
  48:Middlewares/ST/STM32_SPWF0xSy/wifi_interface.c ****   * @brief Wi-Fi User API modules
  49:Middlewares/ST/STM32_SPWF0xSy/wifi_interface.c ****   * @{
  50:Middlewares/ST/STM32_SPWF0xSy/wifi_interface.c ****   */
  51:Middlewares/ST/STM32_SPWF0xSy/wifi_interface.c **** 
  52:Middlewares/ST/STM32_SPWF0xSy/wifi_interface.c **** /** @defgroup NUCLEO_WIFI_INTERFACE_Private_Defines
  53:Middlewares/ST/STM32_SPWF0xSy/wifi_interface.c ****   * @{
  54:Middlewares/ST/STM32_SPWF0xSy/wifi_interface.c ****   */
  55:Middlewares/ST/STM32_SPWF0xSy/wifi_interface.c **** 
  56:Middlewares/ST/STM32_SPWF0xSy/wifi_interface.c **** /**
  57:Middlewares/ST/STM32_SPWF0xSy/wifi_interface.c ****   * @}
  58:Middlewares/ST/STM32_SPWF0xSy/wifi_interface.c ****   */
  59:Middlewares/ST/STM32_SPWF0xSy/wifi_interface.c **** 
  60:Middlewares/ST/STM32_SPWF0xSy/wifi_interface.c **** /** @addtogroup NUCLEO_WIFI_INTERFACE_Private_Variables
  61:Middlewares/ST/STM32_SPWF0xSy/wifi_interface.c ****   * @{
  62:Middlewares/ST/STM32_SPWF0xSy/wifi_interface.c ****   */
  63:Middlewares/ST/STM32_SPWF0xSy/wifi_interface.c **** /* Private variables ---------------------------------------------------------*/
  64:Middlewares/ST/STM32_SPWF0xSy/wifi_interface.c **** 
  65:Middlewares/ST/STM32_SPWF0xSy/wifi_interface.c **** /**
  66:Middlewares/ST/STM32_SPWF0xSy/wifi_interface.c ****   * @}
  67:Middlewares/ST/STM32_SPWF0xSy/wifi_interface.c ****   */
  68:Middlewares/ST/STM32_SPWF0xSy/wifi_interface.c ****   
  69:Middlewares/ST/STM32_SPWF0xSy/wifi_interface.c **** /** @defgroup NUCLEO_WIFI_INTERFACE_Private_Functions
  70:Middlewares/ST/STM32_SPWF0xSy/wifi_interface.c ****   * @{
  71:Middlewares/ST/STM32_SPWF0xSy/wifi_interface.c ****   */
  72:Middlewares/ST/STM32_SPWF0xSy/wifi_interface.c **** 
  73:Middlewares/ST/STM32_SPWF0xSy/wifi_interface.c **** GPIO_InitTypeDef  WAKEUP_InitStruct;
  74:Middlewares/ST/STM32_SPWF0xSy/wifi_interface.c **** 
  75:Middlewares/ST/STM32_SPWF0xSy/wifi_interface.c **** /**
  76:Middlewares/ST/STM32_SPWF0xSy/wifi_interface.c ****   * @brief  wifi_init
  77:Middlewares/ST/STM32_SPWF0xSy/wifi_interface.c ****   *         User API for wifi init
  78:Middlewares/ST/STM32_SPWF0xSy/wifi_interface.c ****   * @param  None
  79:Middlewares/ST/STM32_SPWF0xSy/wifi_interface.c ****   * @retval None
  80:Middlewares/ST/STM32_SPWF0xSy/wifi_interface.c ****   */
  81:Middlewares/ST/STM32_SPWF0xSy/wifi_interface.c **** WiFi_Status_t wifi_init(wifi_config* config)
  82:Middlewares/ST/STM32_SPWF0xSy/wifi_interface.c **** {
  83:Middlewares/ST/STM32_SPWF0xSy/wifi_interface.c ****   WiFi_Status_t status = WiFi_MODULE_SUCCESS;
  84:Middlewares/ST/STM32_SPWF0xSy/wifi_interface.c **** 
  85:Middlewares/ST/STM32_SPWF0xSy/wifi_interface.c ****   #if defined (DEBUG_PRINT) && !defined (WIFI_USE_VCOM)
  86:Middlewares/ST/STM32_SPWF0xSy/wifi_interface.c ****     printf("\r\n\nBuild Configuration:");
  87:Middlewares/ST/STM32_SPWF0xSy/wifi_interface.c ****     #if defined(USE_STM32F4XX_NUCLEO)  
  88:Middlewares/ST/STM32_SPWF0xSy/wifi_interface.c ****       printf("\r\nNucleo: NUCLEO-F401RE\r\n");
ARM GAS  D:\cygwin64\tmp\ccGmGipG.s 			page 3


  89:Middlewares/ST/STM32_SPWF0xSy/wifi_interface.c ****     #endif
  90:Middlewares/ST/STM32_SPWF0xSy/wifi_interface.c ****     #if defined(USE_STM32L4XX_NUCLEO)  
  91:Middlewares/ST/STM32_SPWF0xSy/wifi_interface.c ****       printf("\r\nNucleo: NUCLEO-L476RG\r\n");
  92:Middlewares/ST/STM32_SPWF0xSy/wifi_interface.c ****     #endif
  93:Middlewares/ST/STM32_SPWF0xSy/wifi_interface.c ****     #if defined(USE_STM32L0XX_NUCLEO)  
  94:Middlewares/ST/STM32_SPWF0xSy/wifi_interface.c ****       printf("\r\nNucleo: NUCLEO-L053R8\r\n");
  95:Middlewares/ST/STM32_SPWF0xSy/wifi_interface.c ****     #endif
  96:Middlewares/ST/STM32_SPWF0xSy/wifi_interface.c ****     #if defined(USE_STM32F1xx_NUCLEO)  
  97:Middlewares/ST/STM32_SPWF0xSy/wifi_interface.c ****       printf("\r\nNucleo: NUCLEO-F103RB\r\n");
  98:Middlewares/ST/STM32_SPWF0xSy/wifi_interface.c ****     #endif
  99:Middlewares/ST/STM32_SPWF0xSy/wifi_interface.c ****     #if defined(SPWF04)
 100:Middlewares/ST/STM32_SPWF0xSy/wifi_interface.c ****       printf("X-Nucleo: X-NUCLEO-IDW04A1\r\n");
 101:Middlewares/ST/STM32_SPWF0xSy/wifi_interface.c ****     #else
 102:Middlewares/ST/STM32_SPWF0xSy/wifi_interface.c ****       printf("X-Nucleo: X-NUCLEO-IDW01M1\r\n");
 103:Middlewares/ST/STM32_SPWF0xSy/wifi_interface.c ****     #endif
 104:Middlewares/ST/STM32_SPWF0xSy/wifi_interface.c ****     #if defined (CONSOLE_UART_ENABLED)
 105:Middlewares/ST/STM32_SPWF0xSy/wifi_interface.c ****       printf("Interface: UART\r\n");
 106:Middlewares/ST/STM32_SPWF0xSy/wifi_interface.c ****     #else
 107:Middlewares/ST/STM32_SPWF0xSy/wifi_interface.c ****       printf("Interface: SPI\r\n");
 108:Middlewares/ST/STM32_SPWF0xSy/wifi_interface.c ****     #endif
 109:Middlewares/ST/STM32_SPWF0xSy/wifi_interface.c ****   #endif  
 110:Middlewares/ST/STM32_SPWF0xSy/wifi_interface.c **** 
 111:Middlewares/ST/STM32_SPWF0xSy/wifi_interface.c ****   WiFi_Module_Init();
 112:Middlewares/ST/STM32_SPWF0xSy/wifi_interface.c ****   
 113:Middlewares/ST/STM32_SPWF0xSy/wifi_interface.c ****   #if defined (DEBUG_PRINT) && !defined (WIFI_USE_VCOM)
 114:Middlewares/ST/STM32_SPWF0xSy/wifi_interface.c ****     printf("IDW Module Initialized..\r\n");
 115:Middlewares/ST/STM32_SPWF0xSy/wifi_interface.c ****     fflush(stdout);
 116:Middlewares/ST/STM32_SPWF0xSy/wifi_interface.c ****   #endif
 117:Middlewares/ST/STM32_SPWF0xSy/wifi_interface.c **** 
 118:Middlewares/ST/STM32_SPWF0xSy/wifi_interface.c ****   #ifndef WIFI_USE_VCOM  
 119:Middlewares/ST/STM32_SPWF0xSy/wifi_interface.c **** 	printf("WIFI WAKEUP\r\n");
 120:Middlewares/ST/STM32_SPWF0xSy/wifi_interface.c ****   
 121:Middlewares/ST/STM32_SPWF0xSy/wifi_interface.c ****     wifi_wakeup(WIFI_TRUE);//Prevent from going to sleep during configuration    
 122:Middlewares/ST/STM32_SPWF0xSy/wifi_interface.c **** 	
 123:Middlewares/ST/STM32_SPWF0xSy/wifi_interface.c **** 	printf("WIFI RESET\r\n");
 124:Middlewares/ST/STM32_SPWF0xSy/wifi_interface.c ****     /* Soft reset the module */
 125:Middlewares/ST/STM32_SPWF0xSy/wifi_interface.c ****     wifi_reset();
 126:Middlewares/ST/STM32_SPWF0xSy/wifi_interface.c **** 
 127:Middlewares/ST/STM32_SPWF0xSy/wifi_interface.c **** 	printf("if defined(CONSOLE_UART_ENABLED)\r\n");
 128:Middlewares/ST/STM32_SPWF0xSy/wifi_interface.c ****     #if defined(CONSOLE_UART_ENABLED)
 129:Middlewares/ST/STM32_SPWF0xSy/wifi_interface.c ****       /* Restore default setting*/    
 130:Middlewares/ST/STM32_SPWF0xSy/wifi_interface.c ****       status = Restore_Default_Setting();
 131:Middlewares/ST/STM32_SPWF0xSy/wifi_interface.c ****       if(status != WiFi_MODULE_SUCCESS) 
 132:Middlewares/ST/STM32_SPWF0xSy/wifi_interface.c ****         return status;
 133:Middlewares/ST/STM32_SPWF0xSy/wifi_interface.c ****   
 134:Middlewares/ST/STM32_SPWF0xSy/wifi_interface.c ****       #if !defined (USE_STM32L0XX_NUCLEO)
 135:Middlewares/ST/STM32_SPWF0xSy/wifi_interface.c ****         
 136:Middlewares/ST/STM32_SPWF0xSy/wifi_interface.c ****         /* Restore_Default_Setting, resets the usart baud rate to 115200.
 137:Middlewares/ST/STM32_SPWF0xSy/wifi_interface.c ****            Set it to the value of config->mcu_baud_rate for synchronisation. */
 138:Middlewares/ST/STM32_SPWF0xSy/wifi_interface.c ****         status = SET_Configuration_Value(CONSOLE1_SPEED, config->mcu_baud_rate);
 139:Middlewares/ST/STM32_SPWF0xSy/wifi_interface.c ****         if(status != WiFi_MODULE_SUCCESS) return status; 
 140:Middlewares/ST/STM32_SPWF0xSy/wifi_interface.c ****         
 141:Middlewares/ST/STM32_SPWF0xSy/wifi_interface.c ****         /* save current setting in flash */
 142:Middlewares/ST/STM32_SPWF0xSy/wifi_interface.c ****         Reset_AT_CMD_Buffer();  
 143:Middlewares/ST/STM32_SPWF0xSy/wifi_interface.c ****         sprintf((char*)WiFi_AT_Cmd_Buff,AT_SAVE_CURRENT_SETTING);  
 144:Middlewares/ST/STM32_SPWF0xSy/wifi_interface.c ****         status = USART_Transmit_AT_Cmd(strlen((char*)WiFi_AT_Cmd_Buff));
 145:Middlewares/ST/STM32_SPWF0xSy/wifi_interface.c ****         if(status == WiFi_MODULE_SUCCESS)
ARM GAS  D:\cygwin64\tmp\ccGmGipG.s 			page 4


 146:Middlewares/ST/STM32_SPWF0xSy/wifi_interface.c ****         {
 147:Middlewares/ST/STM32_SPWF0xSy/wifi_interface.c ****           status = USART_Receive_AT_Resp( );
 148:Middlewares/ST/STM32_SPWF0xSy/wifi_interface.c ****           if(status != WiFi_MODULE_SUCCESS) return status;
 149:Middlewares/ST/STM32_SPWF0xSy/wifi_interface.c ****         } 
 150:Middlewares/ST/STM32_SPWF0xSy/wifi_interface.c **** 
 151:Middlewares/ST/STM32_SPWF0xSy/wifi_interface.c ****         /* Soft reset the module */
 152:Middlewares/ST/STM32_SPWF0xSy/wifi_interface.c ****         wifi_reset();
 153:Middlewares/ST/STM32_SPWF0xSy/wifi_interface.c ****       #endif
 154:Middlewares/ST/STM32_SPWF0xSy/wifi_interface.c ****   
 155:Middlewares/ST/STM32_SPWF0xSy/wifi_interface.c ****       /* Switch on HW Flow Control*/  
 156:Middlewares/ST/STM32_SPWF0xSy/wifi_interface.c ****       #ifdef SPWF04
 157:Middlewares/ST/STM32_SPWF0xSy/wifi_interface.c ****         status = SET_Configuration_Value(CONSOLE1_HWFC, 0);
 158:Middlewares/ST/STM32_SPWF0xSy/wifi_interface.c ****       #else
 159:Middlewares/ST/STM32_SPWF0xSy/wifi_interface.c ****         status = SET_Configuration_Value(CONSOLE1_HWFC, 1);
 160:Middlewares/ST/STM32_SPWF0xSy/wifi_interface.c ****       #endif
 161:Middlewares/ST/STM32_SPWF0xSy/wifi_interface.c **** 
 162:Middlewares/ST/STM32_SPWF0xSy/wifi_interface.c ****       if(status != WiFi_MODULE_SUCCESS) return status; 
 163:Middlewares/ST/STM32_SPWF0xSy/wifi_interface.c **** 
 164:Middlewares/ST/STM32_SPWF0xSy/wifi_interface.c ****       if(config->wifi_baud_rate)
 165:Middlewares/ST/STM32_SPWF0xSy/wifi_interface.c ****       {
 166:Middlewares/ST/STM32_SPWF0xSy/wifi_interface.c ****         /* Set USART Speed*/  
 167:Middlewares/ST/STM32_SPWF0xSy/wifi_interface.c ****         status = SET_Configuration_Value(CONSOLE1_SPEED, config->wifi_baud_rate);
 168:Middlewares/ST/STM32_SPWF0xSy/wifi_interface.c ****         if(status != WiFi_MODULE_SUCCESS) return status; 
 169:Middlewares/ST/STM32_SPWF0xSy/wifi_interface.c ****       }
 170:Middlewares/ST/STM32_SPWF0xSy/wifi_interface.c **** 
 171:Middlewares/ST/STM32_SPWF0xSy/wifi_interface.c ****       #ifdef SPWF04
 172:Middlewares/ST/STM32_SPWF0xSy/wifi_interface.c ****           /*AT+S.WIFI=0<cr>*/  
 173:Middlewares/ST/STM32_SPWF0xSy/wifi_interface.c ****         sprintf((char*)WiFi_AT_Cmd_Buff,AT_WIFI_ENABLE, 0);  
 174:Middlewares/ST/STM32_SPWF0xSy/wifi_interface.c ****         status = USART_Transmit_AT_Cmd(strlen((char*)WiFi_AT_Cmd_Buff));
 175:Middlewares/ST/STM32_SPWF0xSy/wifi_interface.c ****         if(status == WiFi_MODULE_SUCCESS)
 176:Middlewares/ST/STM32_SPWF0xSy/wifi_interface.c ****         {
 177:Middlewares/ST/STM32_SPWF0xSy/wifi_interface.c ****           status = USART_Receive_AT_Resp( );
 178:Middlewares/ST/STM32_SPWF0xSy/wifi_interface.c ****           if(status != WiFi_MODULE_SUCCESS) return status;
 179:Middlewares/ST/STM32_SPWF0xSy/wifi_interface.c ****           else IO_status_flag.radio_off = WIFI_TRUE;
 180:Middlewares/ST/STM32_SPWF0xSy/wifi_interface.c ****         }
 181:Middlewares/ST/STM32_SPWF0xSy/wifi_interface.c ****         
 182:Middlewares/ST/STM32_SPWF0xSy/wifi_interface.c ****         while(IO_status_flag.WiFi_WIND_State!= WiFiPowerDown);//Till +WIND:38:WiFi Powered Down arr
 183:Middlewares/ST/STM32_SPWF0xSy/wifi_interface.c ****       #endif  
 184:Middlewares/ST/STM32_SPWF0xSy/wifi_interface.c ****   
 185:Middlewares/ST/STM32_SPWF0xSy/wifi_interface.c ****       /* Set wifi_mode to idle*/  
 186:Middlewares/ST/STM32_SPWF0xSy/wifi_interface.c ****       status = SET_Configuration_Value(WIFI_MODE, WiFi_IDLE_MODE);
 187:Middlewares/ST/STM32_SPWF0xSy/wifi_interface.c ****       if(status != WiFi_MODULE_SUCCESS) return status;   
 188:Middlewares/ST/STM32_SPWF0xSy/wifi_interface.c ****       
 189:Middlewares/ST/STM32_SPWF0xSy/wifi_interface.c ****       switch(config->ht_mode)
 190:Middlewares/ST/STM32_SPWF0xSy/wifi_interface.c ****       {
 191:Middlewares/ST/STM32_SPWF0xSy/wifi_interface.c ****         case WIFI_FALSE:
 192:Middlewares/ST/STM32_SPWF0xSy/wifi_interface.c ****           status = SET_Configuration_Value(WIFI_HT_MODE, 0);
 193:Middlewares/ST/STM32_SPWF0xSy/wifi_interface.c ****           if(status != WiFi_MODULE_SUCCESS) return status;
 194:Middlewares/ST/STM32_SPWF0xSy/wifi_interface.c ****           status = SET_Configuration_Addr(WIFI_OPR_RATE_MASK, "0x00003FCF");
 195:Middlewares/ST/STM32_SPWF0xSy/wifi_interface.c ****           if(status != WiFi_MODULE_SUCCESS) return status;
 196:Middlewares/ST/STM32_SPWF0xSy/wifi_interface.c ****           break;
 197:Middlewares/ST/STM32_SPWF0xSy/wifi_interface.c ****         case WIFI_TRUE:
 198:Middlewares/ST/STM32_SPWF0xSy/wifi_interface.c ****           status = SET_Configuration_Value(WIFI_HT_MODE, 1);
 199:Middlewares/ST/STM32_SPWF0xSy/wifi_interface.c ****           if(status != WiFi_MODULE_SUCCESS) return status;
 200:Middlewares/ST/STM32_SPWF0xSy/wifi_interface.c ****           status = SET_Configuration_Addr(WIFI_OPR_RATE_MASK, "0x003FFFCF");
 201:Middlewares/ST/STM32_SPWF0xSy/wifi_interface.c ****           if(status != WiFi_MODULE_SUCCESS) return status;
 202:Middlewares/ST/STM32_SPWF0xSy/wifi_interface.c ****           break;
ARM GAS  D:\cygwin64\tmp\ccGmGipG.s 			page 5


 203:Middlewares/ST/STM32_SPWF0xSy/wifi_interface.c ****         default:
 204:Middlewares/ST/STM32_SPWF0xSy/wifi_interface.c ****           break;
 205:Middlewares/ST/STM32_SPWF0xSy/wifi_interface.c ****       }
 206:Middlewares/ST/STM32_SPWF0xSy/wifi_interface.c **** 
 207:Middlewares/ST/STM32_SPWF0xSy/wifi_interface.c ****       switch(config->power)
 208:Middlewares/ST/STM32_SPWF0xSy/wifi_interface.c ****       {
 209:Middlewares/ST/STM32_SPWF0xSy/wifi_interface.c ****         case wifi_active:
 210:Middlewares/ST/STM32_SPWF0xSy/wifi_interface.c ****           status = SET_Configuration_Value(WIFI_POWERSAVE, 0);
 211:Middlewares/ST/STM32_SPWF0xSy/wifi_interface.c ****           if(status != WiFi_MODULE_SUCCESS) return status;
 212:Middlewares/ST/STM32_SPWF0xSy/wifi_interface.c ****           status = SET_Configuration_Value(WIFI_SLEEP_ENABLED, 0);  
 213:Middlewares/ST/STM32_SPWF0xSy/wifi_interface.c ****           if(status != WiFi_MODULE_SUCCESS) return status;
 214:Middlewares/ST/STM32_SPWF0xSy/wifi_interface.c ****           status = SET_Configuration_Value(WIFI_STANDBY_ENABLED, 0);  
 215:Middlewares/ST/STM32_SPWF0xSy/wifi_interface.c ****           if(status != WiFi_MODULE_SUCCESS) return status;
 216:Middlewares/ST/STM32_SPWF0xSy/wifi_interface.c ****           break;
 217:Middlewares/ST/STM32_SPWF0xSy/wifi_interface.c ****         case wifi_reactive:
 218:Middlewares/ST/STM32_SPWF0xSy/wifi_interface.c ****           status = SET_Configuration_Value(WIFI_POWERSAVE, 1);
 219:Middlewares/ST/STM32_SPWF0xSy/wifi_interface.c ****           if(status != WiFi_MODULE_SUCCESS) return status;
 220:Middlewares/ST/STM32_SPWF0xSy/wifi_interface.c ****           status = SET_Configuration_Value(WIFI_OPERATIONAL_MODE, 11);  
 221:Middlewares/ST/STM32_SPWF0xSy/wifi_interface.c ****           if(status != WiFi_MODULE_SUCCESS) return status;
 222:Middlewares/ST/STM32_SPWF0xSy/wifi_interface.c ****           status = SET_Configuration_Value(WIFI_BEACON_WAKEUP, 0);
 223:Middlewares/ST/STM32_SPWF0xSy/wifi_interface.c ****           if(status != WiFi_MODULE_SUCCESS) return status;
 224:Middlewares/ST/STM32_SPWF0xSy/wifi_interface.c ****           status = SET_Configuration_Value(WIFI_LISTEN_INTERVAL, 0);
 225:Middlewares/ST/STM32_SPWF0xSy/wifi_interface.c ****           if(status != WiFi_MODULE_SUCCESS) return status;
 226:Middlewares/ST/STM32_SPWF0xSy/wifi_interface.c ****           status = SET_Configuration_Value(WIFI_SLEEP_ENABLED, 0);  
 227:Middlewares/ST/STM32_SPWF0xSy/wifi_interface.c ****           if(status != WiFi_MODULE_SUCCESS) return status;
 228:Middlewares/ST/STM32_SPWF0xSy/wifi_interface.c ****           status = SET_Configuration_Value(WIFI_STANDBY_ENABLED, 0);  
 229:Middlewares/ST/STM32_SPWF0xSy/wifi_interface.c ****           if(status != WiFi_MODULE_SUCCESS) return status;
 230:Middlewares/ST/STM32_SPWF0xSy/wifi_interface.c ****           break;
 231:Middlewares/ST/STM32_SPWF0xSy/wifi_interface.c ****         case wifi_sleep:
 232:Middlewares/ST/STM32_SPWF0xSy/wifi_interface.c ****           status = SET_Configuration_Value(WIFI_POWERSAVE, 1);
 233:Middlewares/ST/STM32_SPWF0xSy/wifi_interface.c ****           if(status != WiFi_MODULE_SUCCESS) return status;
 234:Middlewares/ST/STM32_SPWF0xSy/wifi_interface.c ****           status = SET_Configuration_Value(WIFI_OPERATIONAL_MODE, 12);  
 235:Middlewares/ST/STM32_SPWF0xSy/wifi_interface.c ****           if(status != WiFi_MODULE_SUCCESS) return status;
 236:Middlewares/ST/STM32_SPWF0xSy/wifi_interface.c ****           status = SET_Configuration_Value(WIFI_BEACON_WAKEUP, 10);
 237:Middlewares/ST/STM32_SPWF0xSy/wifi_interface.c ****           if(status != WiFi_MODULE_SUCCESS) return status;
 238:Middlewares/ST/STM32_SPWF0xSy/wifi_interface.c ****           status = SET_Configuration_Value(WIFI_LISTEN_INTERVAL, 1);
 239:Middlewares/ST/STM32_SPWF0xSy/wifi_interface.c ****           if(status != WiFi_MODULE_SUCCESS) return status;
 240:Middlewares/ST/STM32_SPWF0xSy/wifi_interface.c ****           status = SET_Configuration_Value(WIFI_SLEEP_ENABLED, 1);  
 241:Middlewares/ST/STM32_SPWF0xSy/wifi_interface.c ****           if(status != WiFi_MODULE_SUCCESS) return status;
 242:Middlewares/ST/STM32_SPWF0xSy/wifi_interface.c ****           status = SET_Configuration_Value(WIFI_STANDBY_ENABLED, 0);  
 243:Middlewares/ST/STM32_SPWF0xSy/wifi_interface.c ****           if(status != WiFi_MODULE_SUCCESS) return status;
 244:Middlewares/ST/STM32_SPWF0xSy/wifi_interface.c ****           break;
 245:Middlewares/ST/STM32_SPWF0xSy/wifi_interface.c ****         default:
 246:Middlewares/ST/STM32_SPWF0xSy/wifi_interface.c ****           break;
 247:Middlewares/ST/STM32_SPWF0xSy/wifi_interface.c ****       }
 248:Middlewares/ST/STM32_SPWF0xSy/wifi_interface.c **** 
 249:Middlewares/ST/STM32_SPWF0xSy/wifi_interface.c ****       switch(config->power_level)
 250:Middlewares/ST/STM32_SPWF0xSy/wifi_interface.c ****       {
 251:Middlewares/ST/STM32_SPWF0xSy/wifi_interface.c ****         case low:
 252:Middlewares/ST/STM32_SPWF0xSy/wifi_interface.c ****         case medium:
 253:Middlewares/ST/STM32_SPWF0xSy/wifi_interface.c ****         case high:
 254:Middlewares/ST/STM32_SPWF0xSy/wifi_interface.c ****         case max:
 255:Middlewares/ST/STM32_SPWF0xSy/wifi_interface.c ****           status = SET_Configuration_Value(WIFI_TX_POWER, config->power_level*6);
 256:Middlewares/ST/STM32_SPWF0xSy/wifi_interface.c ****           if(status != WiFi_MODULE_SUCCESS) return status;
 257:Middlewares/ST/STM32_SPWF0xSy/wifi_interface.c ****           break;
 258:Middlewares/ST/STM32_SPWF0xSy/wifi_interface.c ****         default:
 259:Middlewares/ST/STM32_SPWF0xSy/wifi_interface.c ****           break;
ARM GAS  D:\cygwin64\tmp\ccGmGipG.s 			page 6


 260:Middlewares/ST/STM32_SPWF0xSy/wifi_interface.c ****       }
 261:Middlewares/ST/STM32_SPWF0xSy/wifi_interface.c **** 
 262:Middlewares/ST/STM32_SPWF0xSy/wifi_interface.c ****       switch(config->dhcp)
 263:Middlewares/ST/STM32_SPWF0xSy/wifi_interface.c ****       {
 264:Middlewares/ST/STM32_SPWF0xSy/wifi_interface.c ****         case off:
 265:Middlewares/ST/STM32_SPWF0xSy/wifi_interface.c ****         case on:
 266:Middlewares/ST/STM32_SPWF0xSy/wifi_interface.c ****         case custom:
 267:Middlewares/ST/STM32_SPWF0xSy/wifi_interface.c ****           status = SET_Configuration_Value(IP_USE_DHCP_SERVER, config->dhcp);
 268:Middlewares/ST/STM32_SPWF0xSy/wifi_interface.c ****           if(status != WiFi_MODULE_SUCCESS) return status;
 269:Middlewares/ST/STM32_SPWF0xSy/wifi_interface.c ****           break;
 270:Middlewares/ST/STM32_SPWF0xSy/wifi_interface.c ****         default:
 271:Middlewares/ST/STM32_SPWF0xSy/wifi_interface.c ****           break;
 272:Middlewares/ST/STM32_SPWF0xSy/wifi_interface.c ****       }
 273:Middlewares/ST/STM32_SPWF0xSy/wifi_interface.c **** 
 274:Middlewares/ST/STM32_SPWF0xSy/wifi_interface.c ****       /* Set IP address */
 275:Middlewares/ST/STM32_SPWF0xSy/wifi_interface.c ****       if(config->ip_addr)
 276:Middlewares/ST/STM32_SPWF0xSy/wifi_interface.c ****       {
 277:Middlewares/ST/STM32_SPWF0xSy/wifi_interface.c ****         status = SET_Configuration_Addr(WIFI_IP_ADDRESS, config->ip_addr);
 278:Middlewares/ST/STM32_SPWF0xSy/wifi_interface.c ****         if(status != WiFi_MODULE_SUCCESS) return status;
 279:Middlewares/ST/STM32_SPWF0xSy/wifi_interface.c ****       }
 280:Middlewares/ST/STM32_SPWF0xSy/wifi_interface.c ****       /* Set netmask address */
 281:Middlewares/ST/STM32_SPWF0xSy/wifi_interface.c ****       if(config->netmask_addr)
 282:Middlewares/ST/STM32_SPWF0xSy/wifi_interface.c ****       {
 283:Middlewares/ST/STM32_SPWF0xSy/wifi_interface.c ****         status = SET_Configuration_Addr(WIFI_IP_NETMASK, config->netmask_addr);
 284:Middlewares/ST/STM32_SPWF0xSy/wifi_interface.c ****         if(status != WiFi_MODULE_SUCCESS) return status;
 285:Middlewares/ST/STM32_SPWF0xSy/wifi_interface.c ****       }
 286:Middlewares/ST/STM32_SPWF0xSy/wifi_interface.c ****       /* Set default gateway address */
 287:Middlewares/ST/STM32_SPWF0xSy/wifi_interface.c ****       if(config->gateway_addr)
 288:Middlewares/ST/STM32_SPWF0xSy/wifi_interface.c ****       {
 289:Middlewares/ST/STM32_SPWF0xSy/wifi_interface.c ****         status = SET_Configuration_Addr(WIFI_IP_DEFAULT_GATEWAY, config->gateway_addr);
 290:Middlewares/ST/STM32_SPWF0xSy/wifi_interface.c ****         if(status != WiFi_MODULE_SUCCESS) return status;
 291:Middlewares/ST/STM32_SPWF0xSy/wifi_interface.c ****       }
 292:Middlewares/ST/STM32_SPWF0xSy/wifi_interface.c ****       /* Set dns address */
 293:Middlewares/ST/STM32_SPWF0xSy/wifi_interface.c ****       if(config->dns_addr)
 294:Middlewares/ST/STM32_SPWF0xSy/wifi_interface.c ****       {
 295:Middlewares/ST/STM32_SPWF0xSy/wifi_interface.c ****         #ifdef SPWF04
 296:Middlewares/ST/STM32_SPWF0xSy/wifi_interface.c ****             status = SET_Configuration_Addr(WIFI_IP_DNS1, config->dns_addr);
 297:Middlewares/ST/STM32_SPWF0xSy/wifi_interface.c ****         #else
 298:Middlewares/ST/STM32_SPWF0xSy/wifi_interface.c ****             status = SET_Configuration_Addr(WIFI_IP_DNS, config->dns_addr);
 299:Middlewares/ST/STM32_SPWF0xSy/wifi_interface.c ****         #endif
 300:Middlewares/ST/STM32_SPWF0xSy/wifi_interface.c ****             if(status != WiFi_MODULE_SUCCESS) return status;
 301:Middlewares/ST/STM32_SPWF0xSy/wifi_interface.c ****       }
 302:Middlewares/ST/STM32_SPWF0xSy/wifi_interface.c ****       /* Set hostname */
 303:Middlewares/ST/STM32_SPWF0xSy/wifi_interface.c ****       if(config->host_name)
 304:Middlewares/ST/STM32_SPWF0xSy/wifi_interface.c ****       {
 305:Middlewares/ST/STM32_SPWF0xSy/wifi_interface.c ****         status = SET_Configuration_Addr(WIFI_IP_HOSTNAME, config->host_name);  
 306:Middlewares/ST/STM32_SPWF0xSy/wifi_interface.c ****         if(status != WiFi_MODULE_SUCCESS) return status;
 307:Middlewares/ST/STM32_SPWF0xSy/wifi_interface.c ****       }
 308:Middlewares/ST/STM32_SPWF0xSy/wifi_interface.c **** 
 309:Middlewares/ST/STM32_SPWF0xSy/wifi_interface.c ****       if(config->ap_domain_name)
 310:Middlewares/ST/STM32_SPWF0xSy/wifi_interface.c ****       {
 311:Middlewares/ST/STM32_SPWF0xSy/wifi_interface.c ****         status = SET_Configuration_Addr(WIFI_IP_APDOMAINNAME, config->ap_domain_name);
 312:Middlewares/ST/STM32_SPWF0xSy/wifi_interface.c ****         if(status != WiFi_MODULE_SUCCESS) return status;
 313:Middlewares/ST/STM32_SPWF0xSy/wifi_interface.c ****       }
 314:Middlewares/ST/STM32_SPWF0xSy/wifi_interface.c **** 
 315:Middlewares/ST/STM32_SPWF0xSy/wifi_interface.c ****       if(config->ap_config_page_name)
 316:Middlewares/ST/STM32_SPWF0xSy/wifi_interface.c ****       {
ARM GAS  D:\cygwin64\tmp\ccGmGipG.s 			page 7


 317:Middlewares/ST/STM32_SPWF0xSy/wifi_interface.c ****         status = SET_Configuration_Addr(WIFI_IP_APREDIRECT, config->ap_config_page_name);
 318:Middlewares/ST/STM32_SPWF0xSy/wifi_interface.c ****         if(status != WiFi_MODULE_SUCCESS) return status;
 319:Middlewares/ST/STM32_SPWF0xSy/wifi_interface.c ****       }
 320:Middlewares/ST/STM32_SPWF0xSy/wifi_interface.c **** 
 321:Middlewares/ST/STM32_SPWF0xSy/wifi_interface.c ****       if(config->http_timeout)
 322:Middlewares/ST/STM32_SPWF0xSy/wifi_interface.c ****       {
 323:Middlewares/ST/STM32_SPWF0xSy/wifi_interface.c ****         status = SET_Configuration_Value(WIFI_IP_HTTP_TIMEOUT, config->http_timeout*1000);
 324:Middlewares/ST/STM32_SPWF0xSy/wifi_interface.c ****         if(status != WiFi_MODULE_SUCCESS) return status;
 325:Middlewares/ST/STM32_SPWF0xSy/wifi_interface.c ****       }
 326:Middlewares/ST/STM32_SPWF0xSy/wifi_interface.c ****       if(config->dhcp_timeout)
 327:Middlewares/ST/STM32_SPWF0xSy/wifi_interface.c ****       {
 328:Middlewares/ST/STM32_SPWF0xSy/wifi_interface.c ****         status = SET_Configuration_Value(WIFI_IP_DHCP_TIMEOUT, config->dhcp_timeout);
 329:Middlewares/ST/STM32_SPWF0xSy/wifi_interface.c ****         if(status != WiFi_MODULE_SUCCESS) return status;
 330:Middlewares/ST/STM32_SPWF0xSy/wifi_interface.c ****       }
 331:Middlewares/ST/STM32_SPWF0xSy/wifi_interface.c ****       if(config->wifi_region)
 332:Middlewares/ST/STM32_SPWF0xSy/wifi_interface.c ****       {
 333:Middlewares/ST/STM32_SPWF0xSy/wifi_interface.c ****         status = SET_Configuration_Value(WIFI_REG_COUNTRY, config->wifi_region);
 334:Middlewares/ST/STM32_SPWF0xSy/wifi_interface.c ****         if(status != WiFi_MODULE_SUCCESS) return status;
 335:Middlewares/ST/STM32_SPWF0xSy/wifi_interface.c ****       }   
 336:Middlewares/ST/STM32_SPWF0xSy/wifi_interface.c **** 
 337:Middlewares/ST/STM32_SPWF0xSy/wifi_interface.c ****       #ifdef SPWF01
 338:Middlewares/ST/STM32_SPWF0xSy/wifi_interface.c ****         Reset_AT_CMD_Buffer();  
 339:Middlewares/ST/STM32_SPWF0xSy/wifi_interface.c ****         sprintf((char*)WiFi_AT_Cmd_Buff,AT_HTTPD, config->web_server);  
 340:Middlewares/ST/STM32_SPWF0xSy/wifi_interface.c ****         status = USART_Transmit_AT_Cmd(strlen((char*)WiFi_AT_Cmd_Buff));
 341:Middlewares/ST/STM32_SPWF0xSy/wifi_interface.c ****         if(status == WiFi_MODULE_SUCCESS)
 342:Middlewares/ST/STM32_SPWF0xSy/wifi_interface.c ****         {
 343:Middlewares/ST/STM32_SPWF0xSy/wifi_interface.c ****           status = USART_Receive_AT_Resp( );
 344:Middlewares/ST/STM32_SPWF0xSy/wifi_interface.c ****           if(status != WiFi_MODULE_SUCCESS) return status;
 345:Middlewares/ST/STM32_SPWF0xSy/wifi_interface.c ****         }  
 346:Middlewares/ST/STM32_SPWF0xSy/wifi_interface.c ****       #endif  
 347:Middlewares/ST/STM32_SPWF0xSy/wifi_interface.c **** 
 348:Middlewares/ST/STM32_SPWF0xSy/wifi_interface.c ****       #ifdef SPWF04
 349:Middlewares/ST/STM32_SPWF0xSy/wifi_interface.c ****           /*AT+S.TLSCERT2=content,2 */
 350:Middlewares/ST/STM32_SPWF0xSy/wifi_interface.c ****           Reset_AT_CMD_Buffer();  
 351:Middlewares/ST/STM32_SPWF0xSy/wifi_interface.c ****           sprintf((char*)WiFi_AT_Cmd_Buff,"AT+S.TLSCERT=content,2\r");        
 352:Middlewares/ST/STM32_SPWF0xSy/wifi_interface.c ****           status = USART_Transmit_AT_Cmd(strlen((char*)WiFi_AT_Cmd_Buff));
 353:Middlewares/ST/STM32_SPWF0xSy/wifi_interface.c ****           if(status == WiFi_MODULE_SUCCESS)
 354:Middlewares/ST/STM32_SPWF0xSy/wifi_interface.c ****           {
 355:Middlewares/ST/STM32_SPWF0xSy/wifi_interface.c ****             status = USART_Receive_AT_Resp( );
 356:Middlewares/ST/STM32_SPWF0xSy/wifi_interface.c ****             if(status != WiFi_MODULE_SUCCESS) return status;
 357:Middlewares/ST/STM32_SPWF0xSy/wifi_interface.c ****           }  
 358:Middlewares/ST/STM32_SPWF0xSy/wifi_interface.c ****           
 359:Middlewares/ST/STM32_SPWF0xSy/wifi_interface.c ****           /* Set verbose to 1 for SPWF04 UART*/
 360:Middlewares/ST/STM32_SPWF0xSy/wifi_interface.c ****           status = SET_Configuration_Value("console_verbose", 1);
 361:Middlewares/ST/STM32_SPWF0xSy/wifi_interface.c ****           if(status != WiFi_MODULE_SUCCESS) return status;
 362:Middlewares/ST/STM32_SPWF0xSy/wifi_interface.c **** 
 363:Middlewares/ST/STM32_SPWF0xSy/wifi_interface.c ****             /*AT+S.WIFI=1<cr>*/  
 364:Middlewares/ST/STM32_SPWF0xSy/wifi_interface.c ****           sprintf((char*)WiFi_AT_Cmd_Buff,AT_WIFI_ENABLE, 1);  
 365:Middlewares/ST/STM32_SPWF0xSy/wifi_interface.c ****           status = USART_Transmit_AT_Cmd(strlen((char*)WiFi_AT_Cmd_Buff));
 366:Middlewares/ST/STM32_SPWF0xSy/wifi_interface.c ****           if(status == WiFi_MODULE_SUCCESS)
 367:Middlewares/ST/STM32_SPWF0xSy/wifi_interface.c ****           {
 368:Middlewares/ST/STM32_SPWF0xSy/wifi_interface.c ****             status = USART_Receive_AT_Resp( );
 369:Middlewares/ST/STM32_SPWF0xSy/wifi_interface.c ****             if(status != WiFi_MODULE_SUCCESS) return status;
 370:Middlewares/ST/STM32_SPWF0xSy/wifi_interface.c ****             else IO_status_flag.radio_off = WIFI_FALSE;
 371:Middlewares/ST/STM32_SPWF0xSy/wifi_interface.c ****           }
 372:Middlewares/ST/STM32_SPWF0xSy/wifi_interface.c ****           
 373:Middlewares/ST/STM32_SPWF0xSy/wifi_interface.c ****           while(IO_status_flag.WiFi_Enabled != WIFI_TRUE);//Till Hardware Started arrives
ARM GAS  D:\cygwin64\tmp\ccGmGipG.s 			page 8


 374:Middlewares/ST/STM32_SPWF0xSy/wifi_interface.c ****       #else
 375:Middlewares/ST/STM32_SPWF0xSy/wifi_interface.c ****           /* AT+S.TLSCERT2=clean,all */
 376:Middlewares/ST/STM32_SPWF0xSy/wifi_interface.c ****           Reset_AT_CMD_Buffer();  
 377:Middlewares/ST/STM32_SPWF0xSy/wifi_interface.c ****           sprintf((char*)WiFi_AT_Cmd_Buff,"AT+S.TLSCERT2=clean,all\r");        
 378:Middlewares/ST/STM32_SPWF0xSy/wifi_interface.c ****           status = USART_Transmit_AT_Cmd(strlen((char*)WiFi_AT_Cmd_Buff));
 379:Middlewares/ST/STM32_SPWF0xSy/wifi_interface.c ****           if(status == WiFi_MODULE_SUCCESS)
 380:Middlewares/ST/STM32_SPWF0xSy/wifi_interface.c ****           {
 381:Middlewares/ST/STM32_SPWF0xSy/wifi_interface.c ****             status = USART_Receive_AT_Resp( );
 382:Middlewares/ST/STM32_SPWF0xSy/wifi_interface.c ****             if(status != WiFi_MODULE_SUCCESS) return status;
 383:Middlewares/ST/STM32_SPWF0xSy/wifi_interface.c ****           }
 384:Middlewares/ST/STM32_SPWF0xSy/wifi_interface.c ****       #endif
 385:Middlewares/ST/STM32_SPWF0xSy/wifi_interface.c ****   
 386:Middlewares/ST/STM32_SPWF0xSy/wifi_interface.c ****       /* save current setting in flash */
 387:Middlewares/ST/STM32_SPWF0xSy/wifi_interface.c ****       Reset_AT_CMD_Buffer();  
 388:Middlewares/ST/STM32_SPWF0xSy/wifi_interface.c ****       sprintf((char*)WiFi_AT_Cmd_Buff,AT_SAVE_CURRENT_SETTING);  
 389:Middlewares/ST/STM32_SPWF0xSy/wifi_interface.c ****       status = USART_Transmit_AT_Cmd(strlen((char*)WiFi_AT_Cmd_Buff));
 390:Middlewares/ST/STM32_SPWF0xSy/wifi_interface.c ****       if(status == WiFi_MODULE_SUCCESS)
 391:Middlewares/ST/STM32_SPWF0xSy/wifi_interface.c ****       {
 392:Middlewares/ST/STM32_SPWF0xSy/wifi_interface.c ****         status = USART_Receive_AT_Resp( );
 393:Middlewares/ST/STM32_SPWF0xSy/wifi_interface.c ****         if(status != WiFi_MODULE_SUCCESS) return status;
 394:Middlewares/ST/STM32_SPWF0xSy/wifi_interface.c ****       }   
 395:Middlewares/ST/STM32_SPWF0xSy/wifi_interface.c **** 
 396:Middlewares/ST/STM32_SPWF0xSy/wifi_interface.c ****       if(config->wifi_baud_rate)
 397:Middlewares/ST/STM32_SPWF0xSy/wifi_interface.c ****       {
 398:Middlewares/ST/STM32_SPWF0xSy/wifi_interface.c ****         UART_Configuration(config->wifi_baud_rate); 
 399:Middlewares/ST/STM32_SPWF0xSy/wifi_interface.c ****         #if defined(SPWF01) 
 400:Middlewares/ST/STM32_SPWF0xSy/wifi_interface.c ****           Receive_Data();//Restart data reception
 401:Middlewares/ST/STM32_SPWF0xSy/wifi_interface.c ****         #else
 402:Middlewares/ST/STM32_SPWF0xSy/wifi_interface.c ****           WiFi_Counter_Variables.dma_buffer_count =0;
 403:Middlewares/ST/STM32_SPWF0xSy/wifi_interface.c ****           WiFi_Counter_Variables.dma_buffer_previous_index =0;
 404:Middlewares/ST/STM32_SPWF0xSy/wifi_interface.c ****           Receive_DMA_Uart_Data();
 405:Middlewares/ST/STM32_SPWF0xSy/wifi_interface.c ****         #endif
 406:Middlewares/ST/STM32_SPWF0xSy/wifi_interface.c ****       }
 407:Middlewares/ST/STM32_SPWF0xSy/wifi_interface.c ****   
 408:Middlewares/ST/STM32_SPWF0xSy/wifi_interface.c ****       /* Soft reset the module, Do the second reset after setting all parameters and saving in flas
 409:Middlewares/ST/STM32_SPWF0xSy/wifi_interface.c ****       wifi_reset();
 410:Middlewares/ST/STM32_SPWF0xSy/wifi_interface.c **** 
 411:Middlewares/ST/STM32_SPWF0xSy/wifi_interface.c ****     #else
 412:Middlewares/ST/STM32_SPWF0xSy/wifi_interface.c ****   
 413:Middlewares/ST/STM32_SPWF0xSy/wifi_interface.c ****       /*SPI Interface in use*/
 414:Middlewares/ST/STM32_SPWF0xSy/wifi_interface.c ****       
 415:Middlewares/ST/STM32_SPWF0xSy/wifi_interface.c ****       /* Set localecho to 0*/
 416:Middlewares/ST/STM32_SPWF0xSy/wifi_interface.c ****       status = SET_Configuration_Value(LOCALECHO1, 0);
 417:Middlewares/ST/STM32_SPWF0xSy/wifi_interface.c ****       if(status != WiFi_MODULE_SUCCESS) return status;
 418:Middlewares/ST/STM32_SPWF0xSy/wifi_interface.c ****       
 419:Middlewares/ST/STM32_SPWF0xSy/wifi_interface.c ****       /* Restore default setting*/    
 420:Middlewares/ST/STM32_SPWF0xSy/wifi_interface.c ****       Reset_AT_CMD_Buffer();  
 421:Middlewares/ST/STM32_SPWF0xSy/wifi_interface.c ****       sprintf((char*)WiFi_AT_Cmd_Buff,"AT+S.FCFG");  
 422:Middlewares/ST/STM32_SPWF0xSy/wifi_interface.c ****       run_spi_cmd((char*)WiFi_AT_Cmd_Buff, SPI_DMA);
 423:Middlewares/ST/STM32_SPWF0xSy/wifi_interface.c ****       status = USART_Receive_AT_Resp( );
 424:Middlewares/ST/STM32_SPWF0xSy/wifi_interface.c ****       if(status != WiFi_MODULE_SUCCESS) return status;
 425:Middlewares/ST/STM32_SPWF0xSy/wifi_interface.c **** 
 426:Middlewares/ST/STM32_SPWF0xSy/wifi_interface.c ****       /* save current setting in flash */
 427:Middlewares/ST/STM32_SPWF0xSy/wifi_interface.c ****       Reset_AT_CMD_Buffer();  
 428:Middlewares/ST/STM32_SPWF0xSy/wifi_interface.c ****       sprintf((char*)WiFi_AT_Cmd_Buff,"AT+S.WCFG");  
 429:Middlewares/ST/STM32_SPWF0xSy/wifi_interface.c ****       run_spi_cmd((char*)WiFi_AT_Cmd_Buff, SPI_DMA);
 430:Middlewares/ST/STM32_SPWF0xSy/wifi_interface.c ****       status = USART_Receive_AT_Resp( );
ARM GAS  D:\cygwin64\tmp\ccGmGipG.s 			page 9


 431:Middlewares/ST/STM32_SPWF0xSy/wifi_interface.c ****       if(status != WiFi_MODULE_SUCCESS) return status;
 432:Middlewares/ST/STM32_SPWF0xSy/wifi_interface.c ****       
 433:Middlewares/ST/STM32_SPWF0xSy/wifi_interface.c ****       /* Soft reset the module */
 434:Middlewares/ST/STM32_SPWF0xSy/wifi_interface.c ****       wifi_reset();
 435:Middlewares/ST/STM32_SPWF0xSy/wifi_interface.c ****       
 436:Middlewares/ST/STM32_SPWF0xSy/wifi_interface.c ****       /*AT+S.WIFI=0<cr>*/  
 437:Middlewares/ST/STM32_SPWF0xSy/wifi_interface.c ****       Reset_AT_CMD_Buffer();  
 438:Middlewares/ST/STM32_SPWF0xSy/wifi_interface.c ****       sprintf((char*)WiFi_AT_Cmd_Buff,"AT+S.WIFI=%d", 0);  
 439:Middlewares/ST/STM32_SPWF0xSy/wifi_interface.c ****       run_spi_cmd((char*)WiFi_AT_Cmd_Buff, SPI_DMA);
 440:Middlewares/ST/STM32_SPWF0xSy/wifi_interface.c ****       status = USART_Receive_AT_Resp( );
 441:Middlewares/ST/STM32_SPWF0xSy/wifi_interface.c ****       if(status != WiFi_MODULE_SUCCESS) return status;
 442:Middlewares/ST/STM32_SPWF0xSy/wifi_interface.c ****       while(IO_status_flag.WiFi_WIND_State!= WiFiPowerDown);//Till +WIND:38:WiFi Powered Down arriv
 443:Middlewares/ST/STM32_SPWF0xSy/wifi_interface.c ****       
 444:Middlewares/ST/STM32_SPWF0xSy/wifi_interface.c ****       /* Set wifi_mode to idle*/  
 445:Middlewares/ST/STM32_SPWF0xSy/wifi_interface.c ****       status = SET_Configuration_Value(WIFI_MODE, WiFi_IDLE_MODE);
 446:Middlewares/ST/STM32_SPWF0xSy/wifi_interface.c ****       if(status != WiFi_MODULE_SUCCESS) return status;  
 447:Middlewares/ST/STM32_SPWF0xSy/wifi_interface.c ****       
 448:Middlewares/ST/STM32_SPWF0xSy/wifi_interface.c ****       /*AT+S.WIFI=1<cr>*/  
 449:Middlewares/ST/STM32_SPWF0xSy/wifi_interface.c ****       Reset_AT_CMD_Buffer();  
 450:Middlewares/ST/STM32_SPWF0xSy/wifi_interface.c ****       sprintf((char*)WiFi_AT_Cmd_Buff,"AT+S.WIFI=%d", 1);  
 451:Middlewares/ST/STM32_SPWF0xSy/wifi_interface.c ****       run_spi_cmd((char*)WiFi_AT_Cmd_Buff, SPI_DMA);
 452:Middlewares/ST/STM32_SPWF0xSy/wifi_interface.c ****       status = USART_Receive_AT_Resp( );
 453:Middlewares/ST/STM32_SPWF0xSy/wifi_interface.c ****       if(status != WiFi_MODULE_SUCCESS) return status;
 454:Middlewares/ST/STM32_SPWF0xSy/wifi_interface.c ****       while(IO_status_flag.WiFi_Enabled != WIFI_TRUE);//Till Hardware Started arrives
 455:Middlewares/ST/STM32_SPWF0xSy/wifi_interface.c ****       
 456:Middlewares/ST/STM32_SPWF0xSy/wifi_interface.c ****       /*AT+S.TLSCERT2=content,2 -> clean certificates*/
 457:Middlewares/ST/STM32_SPWF0xSy/wifi_interface.c ****       Reset_AT_CMD_Buffer();  
 458:Middlewares/ST/STM32_SPWF0xSy/wifi_interface.c ****       sprintf((char*)WiFi_AT_Cmd_Buff,"AT+S.TLSCERT=content,2");        
 459:Middlewares/ST/STM32_SPWF0xSy/wifi_interface.c ****       run_spi_cmd((char*)WiFi_AT_Cmd_Buff, SPI_DMA);
 460:Middlewares/ST/STM32_SPWF0xSy/wifi_interface.c ****       status = USART_Receive_AT_Resp( );
 461:Middlewares/ST/STM32_SPWF0xSy/wifi_interface.c ****       if(status != WiFi_MODULE_SUCCESS) return status; 
 462:Middlewares/ST/STM32_SPWF0xSy/wifi_interface.c ****       
 463:Middlewares/ST/STM32_SPWF0xSy/wifi_interface.c ****        /* Set verbose to 0 for SPWF04 SPI */
 464:Middlewares/ST/STM32_SPWF0xSy/wifi_interface.c ****       status = SET_Configuration_Value("console_verbose", 0);
 465:Middlewares/ST/STM32_SPWF0xSy/wifi_interface.c ****       if(status != WiFi_MODULE_SUCCESS) return status;
 466:Middlewares/ST/STM32_SPWF0xSy/wifi_interface.c ****   
 467:Middlewares/ST/STM32_SPWF0xSy/wifi_interface.c ****     //No need to reset again in case of new module SPI
 468:Middlewares/ST/STM32_SPWF0xSy/wifi_interface.c ****     #endif  //#if defined(CONSOLE_UART_ENABLED)
 469:Middlewares/ST/STM32_SPWF0xSy/wifi_interface.c **** 	printf("endif defined(CONSOLE_UART_ENABLED)\r\n");
 470:Middlewares/ST/STM32_SPWF0xSy/wifi_interface.c ****   
 471:Middlewares/ST/STM32_SPWF0xSy/wifi_interface.c ****   wifi_wakeup(WIFI_FALSE);//De-assert wakeup signal (PC13) to allow sleep if enabled
 472:Middlewares/ST/STM32_SPWF0xSy/wifi_interface.c ****   #endif  //WIFI_USE_VCOM
 473:Middlewares/ST/STM32_SPWF0xSy/wifi_interface.c **** 
 474:Middlewares/ST/STM32_SPWF0xSy/wifi_interface.c ****   #if defined(SPWF04)
 475:Middlewares/ST/STM32_SPWF0xSy/wifi_interface.c ****     /* check for compatibility between middleware and firmware versions. */  
 476:Middlewares/ST/STM32_SPWF0xSy/wifi_interface.c ****     status = wifi_firmware_middleware_version_compatibility();
 477:Middlewares/ST/STM32_SPWF0xSy/wifi_interface.c ****     if(status != WiFi_MODULE_SUCCESS) return status;
 478:Middlewares/ST/STM32_SPWF0xSy/wifi_interface.c ****   #endif
 479:Middlewares/ST/STM32_SPWF0xSy/wifi_interface.c ****   
 480:Middlewares/ST/STM32_SPWF0xSy/wifi_interface.c ****   #if defined (DEBUG_PRINT) && !defined (WIFI_USE_VCOM)
 481:Middlewares/ST/STM32_SPWF0xSy/wifi_interface.c ****     printf("\r\nEnd of Initialization..\r\n");
 482:Middlewares/ST/STM32_SPWF0xSy/wifi_interface.c ****     fflush(stdout);
 483:Middlewares/ST/STM32_SPWF0xSy/wifi_interface.c ****   #endif
 484:Middlewares/ST/STM32_SPWF0xSy/wifi_interface.c ****   return status;
 485:Middlewares/ST/STM32_SPWF0xSy/wifi_interface.c **** }
 486:Middlewares/ST/STM32_SPWF0xSy/wifi_interface.c **** 
 487:Middlewares/ST/STM32_SPWF0xSy/wifi_interface.c **** /**
ARM GAS  D:\cygwin64\tmp\ccGmGipG.s 			page 10


 488:Middlewares/ST/STM32_SPWF0xSy/wifi_interface.c **** * @brief  wifi_set_socket_certificates
 489:Middlewares/ST/STM32_SPWF0xSy/wifi_interface.c **** *         Set the security certificates and key for secure socket (TLS)
 490:Middlewares/ST/STM32_SPWF0xSy/wifi_interface.c **** * @param  tls_mode : 'o': one way authentication 'm': mutual authentication
 491:Middlewares/ST/STM32_SPWF0xSy/wifi_interface.c **** * @param  ca_certificate: Certificate Authority (CA) certificate (rootca_of_server.pem/rootca_of_cl
 492:Middlewares/ST/STM32_SPWF0xSy/wifi_interface.c **** * @param  certificate: could be client/server certificate (client_cert.pem/server_cert.pem) and its
 493:Middlewares/ST/STM32_SPWF0xSy/wifi_interface.c **** * @param  certificate_key : key corresponding to the certificate stored (client_key.rsa.pem/server_
 494:Middlewares/ST/STM32_SPWF0xSy/wifi_interface.c **** * @param  client_domain: common name of the server certificate 'server' for SPWF01 and auth file co
 495:Middlewares/ST/STM32_SPWF0xSy/wifi_interface.c **** *         rootca_of_server/client.pem for SPWF04 (rootca_of_client.bin/root_ca_of_server.bin) and i
 496:Middlewares/ST/STM32_SPWF0xSy/wifi_interface.c **** * @param  tls_epoch_time : epoch time
 497:Middlewares/ST/STM32_SPWF0xSy/wifi_interface.c **** * @retval WiFi_Status_t : return status
 498:Middlewares/ST/STM32_SPWF0xSy/wifi_interface.c **** */
 499:Middlewares/ST/STM32_SPWF0xSy/wifi_interface.c **** WiFi_Status_t wifi_set_socket_certificates(TLS_Certificate ca_certificate, TLS_Certificate tls_cert
 500:Middlewares/ST/STM32_SPWF0xSy/wifi_interface.c **** {
  28              		.loc 1 500 0
  29              		.cfi_startproc
  30              		@ args = 20, pretend = 0, frame = 16
  31              		@ frame_needed = 0, uses_anonymous_args = 0
  32              	.LVL0:
  33 0000 30B5     		push	{r4, r5, lr}
  34              	.LCFI0:
  35              		.cfi_def_cfa_offset 12
  36              		.cfi_offset 4, -12
  37              		.cfi_offset 5, -8
  38              		.cfi_offset 14, -4
  39 0002 85B0     		sub	sp, sp, #20
  40              	.LCFI1:
  41              		.cfi_def_cfa_offset 32
  42 0004 04AC     		add	r4, sp, #16
  43 0006 04E90300 		stmdb	r4, {r0, r1}
  44 000a 8DE80C00 		stm	sp, {r2, r3}
  45 000e 0C9B     		ldr	r3, [sp, #48]
  46              	.LVL1:
 501:Middlewares/ST/STM32_SPWF0xSy/wifi_interface.c ****   WiFi_Status_t status = WiFi_MODULE_SUCCESS;
 502:Middlewares/ST/STM32_SPWF0xSy/wifi_interface.c **** 
 503:Middlewares/ST/STM32_SPWF0xSy/wifi_interface.c ****   if(tls_epoch_time==0) 
  47              		.loc 1 503 0
  48 0010 002B     		cmp	r3, #0
  49 0012 40F08180 		bne	.L2
 504:Middlewares/ST/STM32_SPWF0xSy/wifi_interface.c ****     WiFi_Counter_Variables.epoch_time = EPOCH_TIME;
  50              		.loc 1 504 0
  51 0016 504A     		ldr	r2, .L16
  52 0018 504B     		ldr	r3, .L16+4
  53 001a C3F8BC20 		str	r2, [r3, #188]
  54              	.L3:
 505:Middlewares/ST/STM32_SPWF0xSy/wifi_interface.c ****   else
 506:Middlewares/ST/STM32_SPWF0xSy/wifi_interface.c ****     WiFi_Counter_Variables.epoch_time = tls_epoch_time;
 507:Middlewares/ST/STM32_SPWF0xSy/wifi_interface.c **** 
 508:Middlewares/ST/STM32_SPWF0xSy/wifi_interface.c **** #if defined(CONSOLE_UART_ENABLED)
 509:Middlewares/ST/STM32_SPWF0xSy/wifi_interface.c **** 
 510:Middlewares/ST/STM32_SPWF0xSy/wifi_interface.c ****   /* Clean the already stored certificates */
 511:Middlewares/ST/STM32_SPWF0xSy/wifi_interface.c ****   Reset_AT_CMD_Buffer();  
  55              		.loc 1 511 0
  56 001e FFF7FEFF 		bl	Reset_AT_CMD_Buffer
  57              	.LVL2:
 512:Middlewares/ST/STM32_SPWF0xSy/wifi_interface.c ****   sprintf((char*)WiFi_AT_Cmd_Buff,AT_CLEAN_TLS_CERT);        
  58              		.loc 1 512 0
  59 0022 4F4D     		ldr	r5, .L16+8
ARM GAS  D:\cygwin64\tmp\ccGmGipG.s 			page 11


  60 0024 4F4C     		ldr	r4, .L16+12
  61 0026 0FCC     		ldmia	r4!, {r0, r1, r2, r3}
  62 0028 2860     		str	r0, [r5]	@ unaligned
  63 002a 6960     		str	r1, [r5, #4]	@ unaligned
  64 002c AA60     		str	r2, [r5, #8]	@ unaligned
  65 002e EB60     		str	r3, [r5, #12]	@ unaligned
  66 0030 03CC     		ldmia	r4!, {r0, r1}
  67 0032 2861     		str	r0, [r5, #16]	@ unaligned
  68 0034 6961     		str	r1, [r5, #20]	@ unaligned
  69 0036 2378     		ldrb	r3, [r4]	@ zero_extendqisi2
  70 0038 2B76     		strb	r3, [r5, #24]
 513:Middlewares/ST/STM32_SPWF0xSy/wifi_interface.c ****   status = USART_Transmit_AT_Cmd(strlen((char*)WiFi_AT_Cmd_Buff));
  71              		.loc 1 513 0
  72 003a 2846     		mov	r0, r5
  73 003c FFF7FEFF 		bl	strlen
  74              	.LVL3:
  75 0040 80B2     		uxth	r0, r0
  76 0042 FFF7FEFF 		bl	USART_Transmit_AT_Cmd
  77              	.LVL4:
 514:Middlewares/ST/STM32_SPWF0xSy/wifi_interface.c ****   if(status == WiFi_MODULE_SUCCESS)
  78              		.loc 1 514 0
  79 0046 20B9     		cbnz	r0, .L4
 515:Middlewares/ST/STM32_SPWF0xSy/wifi_interface.c ****   {
 516:Middlewares/ST/STM32_SPWF0xSy/wifi_interface.c ****     status = USART_Receive_AT_Resp( );
  80              		.loc 1 516 0
  81 0048 FFF7FEFF 		bl	USART_Receive_AT_Resp
  82              	.LVL5:
 517:Middlewares/ST/STM32_SPWF0xSy/wifi_interface.c ****     if(status != WiFi_MODULE_SUCCESS) return status;
  83              		.loc 1 517 0
  84 004c 0346     		mov	r3, r0
  85 004e 0028     		cmp	r0, #0
  86 0050 5FD1     		bne	.L5
  87              	.L4:
 518:Middlewares/ST/STM32_SPWF0xSy/wifi_interface.c ****   }
 519:Middlewares/ST/STM32_SPWF0xSy/wifi_interface.c **** 
 520:Middlewares/ST/STM32_SPWF0xSy/wifi_interface.c ****   /* Set the epoch time */  
 521:Middlewares/ST/STM32_SPWF0xSy/wifi_interface.c ****   Reset_AT_CMD_Buffer();  
  88              		.loc 1 521 0
  89 0052 FFF7FEFF 		bl	Reset_AT_CMD_Buffer
  90              	.LVL6:
 522:Middlewares/ST/STM32_SPWF0xSy/wifi_interface.c ****   sprintf((char*)WiFi_AT_Cmd_Buff,AT_SETTIME,(unsigned long)WiFi_Counter_Variables.epoch_time);    
  91              		.loc 1 522 0
  92 0056 424C     		ldr	r4, .L16+8
  93 0058 404B     		ldr	r3, .L16+4
  94 005a D3F8BC20 		ldr	r2, [r3, #188]
  95 005e 4249     		ldr	r1, .L16+16
  96 0060 2046     		mov	r0, r4
  97 0062 FFF7FEFF 		bl	sprintf
  98              	.LVL7:
 523:Middlewares/ST/STM32_SPWF0xSy/wifi_interface.c ****   status = USART_Transmit_AT_Cmd(strlen((char*)WiFi_AT_Cmd_Buff));
  99              		.loc 1 523 0
 100 0066 2046     		mov	r0, r4
 101 0068 FFF7FEFF 		bl	strlen
 102              	.LVL8:
 103 006c 80B2     		uxth	r0, r0
 104 006e FFF7FEFF 		bl	USART_Transmit_AT_Cmd
 105              	.LVL9:
ARM GAS  D:\cygwin64\tmp\ccGmGipG.s 			page 12


 524:Middlewares/ST/STM32_SPWF0xSy/wifi_interface.c ****   if(status == WiFi_MODULE_SUCCESS)
 106              		.loc 1 524 0
 107 0072 0346     		mov	r3, r0
 108 0074 0028     		cmp	r0, #0
 109 0076 53D0     		beq	.L11
 110              	.L6:
 111              	.LVL10:
 525:Middlewares/ST/STM32_SPWF0xSy/wifi_interface.c ****   {
 526:Middlewares/ST/STM32_SPWF0xSy/wifi_interface.c ****     status = USART_Receive_AT_Resp( );
 527:Middlewares/ST/STM32_SPWF0xSy/wifi_interface.c ****     if(status != WiFi_MODULE_SUCCESS) return status;
 528:Middlewares/ST/STM32_SPWF0xSy/wifi_interface.c ****   }
 529:Middlewares/ST/STM32_SPWF0xSy/wifi_interface.c ****   
 530:Middlewares/ST/STM32_SPWF0xSy/wifi_interface.c ****   /* Store the CA Cert(if specified) */
 531:Middlewares/ST/STM32_SPWF0xSy/wifi_interface.c ****   if(ca_certificate.certificate) {
 112              		.loc 1 531 0
 113 0078 029C     		ldr	r4, [sp, #8]
 114 007a 8CB1     		cbz	r4, .L7
 532:Middlewares/ST/STM32_SPWF0xSy/wifi_interface.c ****     Reset_AT_CMD_Buffer();
 115              		.loc 1 532 0
 116 007c FFF7FEFF 		bl	Reset_AT_CMD_Buffer
 117              	.LVL11:
 533:Middlewares/ST/STM32_SPWF0xSy/wifi_interface.c ****     sprintf((char*)WiFi_AT_Cmd_Buff,AT_STORE_CA_CERT,(ca_certificate.certificate_size), ca_certific
 118              		.loc 1 533 0
 119 0080 374D     		ldr	r5, .L16+8
 120 0082 2346     		mov	r3, r4
 121 0084 039A     		ldr	r2, [sp, #12]
 122 0086 3949     		ldr	r1, .L16+20
 123 0088 2846     		mov	r0, r5
 124 008a FFF7FEFF 		bl	sprintf
 125              	.LVL12:
 534:Middlewares/ST/STM32_SPWF0xSy/wifi_interface.c **** 
 535:Middlewares/ST/STM32_SPWF0xSy/wifi_interface.c ****     status = USART_Transmit_AT_Cmd(strlen((char*)WiFi_AT_Cmd_Buff));
 126              		.loc 1 535 0
 127 008e 2846     		mov	r0, r5
 128 0090 FFF7FEFF 		bl	strlen
 129              	.LVL13:
 130 0094 80B2     		uxth	r0, r0
 131 0096 FFF7FEFF 		bl	USART_Transmit_AT_Cmd
 132              	.LVL14:
 536:Middlewares/ST/STM32_SPWF0xSy/wifi_interface.c ****     if(status == WiFi_MODULE_SUCCESS)
 133              		.loc 1 536 0
 134 009a 0346     		mov	r3, r0
 135 009c 0028     		cmp	r0, #0
 136 009e 45D0     		beq	.L12
 137              	.LVL15:
 138              	.L7:
 537:Middlewares/ST/STM32_SPWF0xSy/wifi_interface.c ****     {
 538:Middlewares/ST/STM32_SPWF0xSy/wifi_interface.c ****       status = USART_Receive_AT_Resp( );
 539:Middlewares/ST/STM32_SPWF0xSy/wifi_interface.c ****       if(status != WiFi_MODULE_SUCCESS) return status;
 540:Middlewares/ST/STM32_SPWF0xSy/wifi_interface.c ****     }
 541:Middlewares/ST/STM32_SPWF0xSy/wifi_interface.c ****   }
 542:Middlewares/ST/STM32_SPWF0xSy/wifi_interface.c **** 
 543:Middlewares/ST/STM32_SPWF0xSy/wifi_interface.c ****   /* Store the 'CA Authority Key ID' for SPWF04 and 'CA domain name' for SPWF01 module */
 544:Middlewares/ST/STM32_SPWF0xSy/wifi_interface.c ****   if(client_domain.certificate) {
 139              		.loc 1 544 0
 140 00a0 0A9C     		ldr	r4, [sp, #40]
 141 00a2 84B1     		cbz	r4, .L8
ARM GAS  D:\cygwin64\tmp\ccGmGipG.s 			page 13


 545:Middlewares/ST/STM32_SPWF0xSy/wifi_interface.c ****     Reset_AT_CMD_Buffer();
 142              		.loc 1 545 0
 143 00a4 FFF7FEFF 		bl	Reset_AT_CMD_Buffer
 144              	.LVL16:
 546:Middlewares/ST/STM32_SPWF0xSy/wifi_interface.c ****     #ifdef SPWF04
 547:Middlewares/ST/STM32_SPWF0xSy/wifi_interface.c ****       sprintf((char*)WiFi_AT_Cmd_Buff,AT_STORE_AUTH_KEY, client_domain.certificate_size, client_dom
 548:Middlewares/ST/STM32_SPWF0xSy/wifi_interface.c ****     #else
 549:Middlewares/ST/STM32_SPWF0xSy/wifi_interface.c ****       sprintf((char*)WiFi_AT_Cmd_Buff,AT_SET_CA_DOMAIN_NAME, client_domain.certificate);
 145              		.loc 1 549 0
 146 00a8 2D4D     		ldr	r5, .L16+8
 147 00aa 2246     		mov	r2, r4
 148 00ac 3049     		ldr	r1, .L16+24
 149 00ae 2846     		mov	r0, r5
 150 00b0 FFF7FEFF 		bl	sprintf
 151              	.LVL17:
 550:Middlewares/ST/STM32_SPWF0xSy/wifi_interface.c ****     #endif
 551:Middlewares/ST/STM32_SPWF0xSy/wifi_interface.c **** 
 552:Middlewares/ST/STM32_SPWF0xSy/wifi_interface.c ****     status = USART_Transmit_AT_Cmd(strlen((char*)WiFi_AT_Cmd_Buff));
 152              		.loc 1 552 0
 153 00b4 2846     		mov	r0, r5
 154 00b6 FFF7FEFF 		bl	strlen
 155              	.LVL18:
 156 00ba 80B2     		uxth	r0, r0
 157 00bc FFF7FEFF 		bl	USART_Transmit_AT_Cmd
 158              	.LVL19:
 553:Middlewares/ST/STM32_SPWF0xSy/wifi_interface.c ****     if(status == WiFi_MODULE_SUCCESS)
 159              		.loc 1 553 0
 160 00c0 0346     		mov	r3, r0
 161 00c2 0028     		cmp	r0, #0
 162 00c4 38D0     		beq	.L13
 163              	.LVL20:
 164              	.L8:
 554:Middlewares/ST/STM32_SPWF0xSy/wifi_interface.c ****     {
 555:Middlewares/ST/STM32_SPWF0xSy/wifi_interface.c ****       status = USART_Receive_AT_Resp( );
 556:Middlewares/ST/STM32_SPWF0xSy/wifi_interface.c ****       if(status != WiFi_MODULE_SUCCESS) return status;
 557:Middlewares/ST/STM32_SPWF0xSy/wifi_interface.c ****     }  
 558:Middlewares/ST/STM32_SPWF0xSy/wifi_interface.c ****   }
 559:Middlewares/ST/STM32_SPWF0xSy/wifi_interface.c ****   
 560:Middlewares/ST/STM32_SPWF0xSy/wifi_interface.c ****   /* Store Certificate */
 561:Middlewares/ST/STM32_SPWF0xSy/wifi_interface.c ****   if(tls_certificate.certificate) {
 165              		.loc 1 561 0
 166 00c6 009C     		ldr	r4, [sp]
 167 00c8 84B1     		cbz	r4, .L9
 562:Middlewares/ST/STM32_SPWF0xSy/wifi_interface.c ****     Reset_AT_CMD_Buffer();
 168              		.loc 1 562 0
 169 00ca FFF7FEFF 		bl	Reset_AT_CMD_Buffer
 170              	.LVL21:
 563:Middlewares/ST/STM32_SPWF0xSy/wifi_interface.c ****     sprintf((char*)WiFi_AT_Cmd_Buff,AT_STORE_CERT,(tls_certificate.certificate_size), tls_certifica
 171              		.loc 1 563 0
 172 00ce 244D     		ldr	r5, .L16+8
 173 00d0 2346     		mov	r3, r4
 174 00d2 019A     		ldr	r2, [sp, #4]
 175 00d4 2749     		ldr	r1, .L16+28
 176 00d6 2846     		mov	r0, r5
 177 00d8 FFF7FEFF 		bl	sprintf
 178              	.LVL22:
 564:Middlewares/ST/STM32_SPWF0xSy/wifi_interface.c **** 
ARM GAS  D:\cygwin64\tmp\ccGmGipG.s 			page 14


 565:Middlewares/ST/STM32_SPWF0xSy/wifi_interface.c ****     status = USART_Transmit_AT_Cmd(strlen((char*)WiFi_AT_Cmd_Buff));
 179              		.loc 1 565 0
 180 00dc 2846     		mov	r0, r5
 181 00de FFF7FEFF 		bl	strlen
 182              	.LVL23:
 183 00e2 80B2     		uxth	r0, r0
 184 00e4 FFF7FEFF 		bl	USART_Transmit_AT_Cmd
 185              	.LVL24:
 566:Middlewares/ST/STM32_SPWF0xSy/wifi_interface.c ****     if(status == WiFi_MODULE_SUCCESS)
 186              		.loc 1 566 0
 187 00e8 0346     		mov	r3, r0
 188 00ea 58B3     		cbz	r0, .L14
 189              	.LVL25:
 190              	.L9:
 567:Middlewares/ST/STM32_SPWF0xSy/wifi_interface.c ****     {
 568:Middlewares/ST/STM32_SPWF0xSy/wifi_interface.c ****       status = USART_Receive_AT_Resp( );
 569:Middlewares/ST/STM32_SPWF0xSy/wifi_interface.c ****       if(status != WiFi_MODULE_SUCCESS) return status;
 570:Middlewares/ST/STM32_SPWF0xSy/wifi_interface.c ****     }
 571:Middlewares/ST/STM32_SPWF0xSy/wifi_interface.c ****   }
 572:Middlewares/ST/STM32_SPWF0xSy/wifi_interface.c ****   
 573:Middlewares/ST/STM32_SPWF0xSy/wifi_interface.c ****   /* Store the key corresponding to the above certificate */
 574:Middlewares/ST/STM32_SPWF0xSy/wifi_interface.c ****   if(certificate_key.certificate) {
 191              		.loc 1 574 0
 192 00ec 089C     		ldr	r4, [sp, #32]
 193 00ee 84B1     		cbz	r4, .L5
 575:Middlewares/ST/STM32_SPWF0xSy/wifi_interface.c ****     Reset_AT_CMD_Buffer();
 194              		.loc 1 575 0
 195 00f0 FFF7FEFF 		bl	Reset_AT_CMD_Buffer
 196              	.LVL26:
 576:Middlewares/ST/STM32_SPWF0xSy/wifi_interface.c ****     sprintf((char*)WiFi_AT_Cmd_Buff,AT_STORE_KEY,(certificate_key.certificate_size), certificate_ke
 197              		.loc 1 576 0
 198 00f4 1A4D     		ldr	r5, .L16+8
 199 00f6 2346     		mov	r3, r4
 200 00f8 099A     		ldr	r2, [sp, #36]
 201 00fa 1F49     		ldr	r1, .L16+32
 202 00fc 2846     		mov	r0, r5
 203 00fe FFF7FEFF 		bl	sprintf
 204              	.LVL27:
 577:Middlewares/ST/STM32_SPWF0xSy/wifi_interface.c **** 
 578:Middlewares/ST/STM32_SPWF0xSy/wifi_interface.c ****     status = USART_Transmit_AT_Cmd(strlen((char*)WiFi_AT_Cmd_Buff));
 205              		.loc 1 578 0
 206 0102 2846     		mov	r0, r5
 207 0104 FFF7FEFF 		bl	strlen
 208              	.LVL28:
 209 0108 80B2     		uxth	r0, r0
 210 010a FFF7FEFF 		bl	USART_Transmit_AT_Cmd
 211              	.LVL29:
 579:Middlewares/ST/STM32_SPWF0xSy/wifi_interface.c ****     if(status == WiFi_MODULE_SUCCESS)
 212              		.loc 1 579 0
 213 010e 0346     		mov	r3, r0
 214 0110 F0B1     		cbz	r0, .L15
 215              	.LVL30:
 216              	.L5:
 580:Middlewares/ST/STM32_SPWF0xSy/wifi_interface.c ****       {
 581:Middlewares/ST/STM32_SPWF0xSy/wifi_interface.c ****         status = USART_Receive_AT_Resp( );
 582:Middlewares/ST/STM32_SPWF0xSy/wifi_interface.c ****         if(status != WiFi_MODULE_SUCCESS) return status;
 583:Middlewares/ST/STM32_SPWF0xSy/wifi_interface.c ****       }
ARM GAS  D:\cygwin64\tmp\ccGmGipG.s 			page 15


 584:Middlewares/ST/STM32_SPWF0xSy/wifi_interface.c ****   }
 585:Middlewares/ST/STM32_SPWF0xSy/wifi_interface.c ****   
 586:Middlewares/ST/STM32_SPWF0xSy/wifi_interface.c **** #else
 587:Middlewares/ST/STM32_SPWF0xSy/wifi_interface.c **** 
 588:Middlewares/ST/STM32_SPWF0xSy/wifi_interface.c ****   /* AT+S.TIME=<seconds> */  
 589:Middlewares/ST/STM32_SPWF0xSy/wifi_interface.c ****   Reset_AT_CMD_Buffer();  
 590:Middlewares/ST/STM32_SPWF0xSy/wifi_interface.c ****   sprintf((char*)WiFi_AT_Cmd_Buff,"AT+S.TIME=%lu",(unsigned long)WiFi_Counter_Variables.epoch_time)
 591:Middlewares/ST/STM32_SPWF0xSy/wifi_interface.c ****   run_spi_cmd((char*)WiFi_AT_Cmd_Buff, SPI_DMA);
 592:Middlewares/ST/STM32_SPWF0xSy/wifi_interface.c ****   status = USART_Receive_AT_Resp( );
 593:Middlewares/ST/STM32_SPWF0xSy/wifi_interface.c ****   if(status != WiFi_MODULE_SUCCESS) return status; 
 594:Middlewares/ST/STM32_SPWF0xSy/wifi_interface.c **** 
 595:Middlewares/ST/STM32_SPWF0xSy/wifi_interface.c ****   /*AT+S.TLSCERT=ca,<size><CR><Peer CA>*/
 596:Middlewares/ST/STM32_SPWF0xSy/wifi_interface.c ****   if(ca_certificate.certificate) {
 597:Middlewares/ST/STM32_SPWF0xSy/wifi_interface.c ****     Reset_AT_CMD_Buffer();
 598:Middlewares/ST/STM32_SPWF0xSy/wifi_interface.c ****     IO_status_flag.AT_event_processing = WIFI_CERT_WRITE_EVENT;
 599:Middlewares/ST/STM32_SPWF0xSy/wifi_interface.c ****     IO_status_flag.send_data = WIFI_TRUE;
 600:Middlewares/ST/STM32_SPWF0xSy/wifi_interface.c ****     WiFi_Counter_Variables.curr_DataLength = (ca_certificate.certificate_size);
 601:Middlewares/ST/STM32_SPWF0xSy/wifi_interface.c ****     WiFi_Counter_Variables.curr_data = (char *)ca_certificate.certificate;
 602:Middlewares/ST/STM32_SPWF0xSy/wifi_interface.c ****     sprintf((char*)WiFi_AT_Cmd_Buff,"AT+S.TLSCERT=Ca,%d %s",WiFi_Counter_Variables.curr_DataLength,
 603:Middlewares/ST/STM32_SPWF0xSy/wifi_interface.c ****     run_spi_cmd((char*)WiFi_AT_Cmd_Buff, SPI_DMA);
 604:Middlewares/ST/STM32_SPWF0xSy/wifi_interface.c ****     status = USART_Receive_AT_Resp( );
 605:Middlewares/ST/STM32_SPWF0xSy/wifi_interface.c ****     IO_status_flag.AT_event_processing = WIFI_NO_EVENT;
 606:Middlewares/ST/STM32_SPWF0xSy/wifi_interface.c ****     if(status != WiFi_MODULE_SUCCESS) return status; 
 607:Middlewares/ST/STM32_SPWF0xSy/wifi_interface.c ****   }
 608:Middlewares/ST/STM32_SPWF0xSy/wifi_interface.c ****   
 609:Middlewares/ST/STM32_SPWF0xSy/wifi_interface.c ****     /*AT+S.TLSCERT=auth,<Peer CA Authority Key Id>*/
 610:Middlewares/ST/STM32_SPWF0xSy/wifi_interface.c ****   if(client_domain.certificate) {
 611:Middlewares/ST/STM32_SPWF0xSy/wifi_interface.c ****     Reset_AT_CMD_Buffer();
 612:Middlewares/ST/STM32_SPWF0xSy/wifi_interface.c ****     IO_status_flag.AT_event_processing = WIFI_CERT_WRITE_EVENT;
 613:Middlewares/ST/STM32_SPWF0xSy/wifi_interface.c ****     IO_status_flag.send_data = WIFI_TRUE;
 614:Middlewares/ST/STM32_SPWF0xSy/wifi_interface.c ****     WiFi_Counter_Variables.curr_DataLength = client_domain.certificate_size;
 615:Middlewares/ST/STM32_SPWF0xSy/wifi_interface.c ****     WiFi_Counter_Variables.curr_data = (char *)client_domain.certificate;
 616:Middlewares/ST/STM32_SPWF0xSy/wifi_interface.c ****     sprintf((char*)WiFi_AT_Cmd_Buff,"AT+S.TLSCERT=Auth,%d %s", WiFi_Counter_Variables.curr_DataLeng
 617:Middlewares/ST/STM32_SPWF0xSy/wifi_interface.c ****     run_spi_cmd((char*)WiFi_AT_Cmd_Buff, SPI_DMA);
 618:Middlewares/ST/STM32_SPWF0xSy/wifi_interface.c ****     status = USART_Receive_AT_Resp( );
 619:Middlewares/ST/STM32_SPWF0xSy/wifi_interface.c ****     IO_status_flag.AT_event_processing = WIFI_NO_EVENT;
 620:Middlewares/ST/STM32_SPWF0xSy/wifi_interface.c ****     if(status != WiFi_MODULE_SUCCESS) return status; 
 621:Middlewares/ST/STM32_SPWF0xSy/wifi_interface.c ****   }
 622:Middlewares/ST/STM32_SPWF0xSy/wifi_interface.c **** 
 623:Middlewares/ST/STM32_SPWF0xSy/wifi_interface.c ****   /*AT+S.TLSCERT=cert,<size><CR><SPWF04S certificate>*/
 624:Middlewares/ST/STM32_SPWF0xSy/wifi_interface.c ****   if(tls_certificate.certificate) {
 625:Middlewares/ST/STM32_SPWF0xSy/wifi_interface.c ****     Reset_AT_CMD_Buffer();
 626:Middlewares/ST/STM32_SPWF0xSy/wifi_interface.c ****     IO_status_flag.AT_event_processing = WIFI_CERT_WRITE_EVENT;
 627:Middlewares/ST/STM32_SPWF0xSy/wifi_interface.c ****     IO_status_flag.send_data = WIFI_TRUE;
 628:Middlewares/ST/STM32_SPWF0xSy/wifi_interface.c ****     WiFi_Counter_Variables.curr_DataLength = (tls_certificate.certificate_size);
 629:Middlewares/ST/STM32_SPWF0xSy/wifi_interface.c ****     WiFi_Counter_Variables.curr_data = (char *)tls_certificate.certificate;
 630:Middlewares/ST/STM32_SPWF0xSy/wifi_interface.c ****     sprintf((char*)WiFi_AT_Cmd_Buff,"AT+S.TLSCERT=cert,%d %s",WiFi_Counter_Variables.curr_DataLengt
 631:Middlewares/ST/STM32_SPWF0xSy/wifi_interface.c ****     run_spi_cmd((char*)WiFi_AT_Cmd_Buff, SPI_DMA);
 632:Middlewares/ST/STM32_SPWF0xSy/wifi_interface.c ****     status = USART_Receive_AT_Resp( );
 633:Middlewares/ST/STM32_SPWF0xSy/wifi_interface.c ****     IO_status_flag.AT_event_processing = WIFI_NO_EVENT;
 634:Middlewares/ST/STM32_SPWF0xSy/wifi_interface.c ****     if(status != WiFi_MODULE_SUCCESS) return status; 
 635:Middlewares/ST/STM32_SPWF0xSy/wifi_interface.c ****   }
 636:Middlewares/ST/STM32_SPWF0xSy/wifi_interface.c **** 
 637:Middlewares/ST/STM32_SPWF0xSy/wifi_interface.c ****   /*AT+S.TLSCERT=key,<size><CR><SPWF04S private key>*/
 638:Middlewares/ST/STM32_SPWF0xSy/wifi_interface.c ****   if(certificate_key.certificate) {
 639:Middlewares/ST/STM32_SPWF0xSy/wifi_interface.c ****     Reset_AT_CMD_Buffer();
 640:Middlewares/ST/STM32_SPWF0xSy/wifi_interface.c ****     IO_status_flag.AT_event_processing = WIFI_CERT_WRITE_EVENT;
ARM GAS  D:\cygwin64\tmp\ccGmGipG.s 			page 16


 641:Middlewares/ST/STM32_SPWF0xSy/wifi_interface.c ****     IO_status_flag.send_data = WIFI_TRUE;
 642:Middlewares/ST/STM32_SPWF0xSy/wifi_interface.c ****     WiFi_Counter_Variables.curr_DataLength = (certificate_key.certificate_size);
 643:Middlewares/ST/STM32_SPWF0xSy/wifi_interface.c ****     WiFi_Counter_Variables.curr_data = (char *)certificate_key.certificate;
 644:Middlewares/ST/STM32_SPWF0xSy/wifi_interface.c ****     sprintf((char*)WiFi_AT_Cmd_Buff,"AT+S.TLSCERT=key,%d %s",WiFi_Counter_Variables.curr_DataLength
 645:Middlewares/ST/STM32_SPWF0xSy/wifi_interface.c ****     run_spi_cmd((char*)WiFi_AT_Cmd_Buff, SPI_DMA);
 646:Middlewares/ST/STM32_SPWF0xSy/wifi_interface.c ****     status = USART_Receive_AT_Resp( );
 647:Middlewares/ST/STM32_SPWF0xSy/wifi_interface.c ****     IO_status_flag.AT_event_processing = WIFI_NO_EVENT;
 648:Middlewares/ST/STM32_SPWF0xSy/wifi_interface.c ****     if(status != WiFi_MODULE_SUCCESS) return status; 
 649:Middlewares/ST/STM32_SPWF0xSy/wifi_interface.c ****   }
 650:Middlewares/ST/STM32_SPWF0xSy/wifi_interface.c **** #endif
 651:Middlewares/ST/STM32_SPWF0xSy/wifi_interface.c ****   return status;
 652:Middlewares/ST/STM32_SPWF0xSy/wifi_interface.c **** }
 217              		.loc 1 652 0
 218 0112 1846     		mov	r0, r3
 219 0114 05B0     		add	sp, sp, #20
 220              	.LCFI2:
 221              		.cfi_remember_state
 222              		.cfi_def_cfa_offset 12
 223              		@ sp needed
 224 0116 30BD     		pop	{r4, r5, pc}
 225              	.LVL31:
 226              	.L2:
 227              	.LCFI3:
 228              		.cfi_restore_state
 506:Middlewares/ST/STM32_SPWF0xSy/wifi_interface.c **** 
 229              		.loc 1 506 0
 230 0118 104A     		ldr	r2, .L16+4
 231 011a C2F8BC30 		str	r3, [r2, #188]
 232 011e 7EE7     		b	.L3
 233              	.LVL32:
 234              	.L11:
 526:Middlewares/ST/STM32_SPWF0xSy/wifi_interface.c ****     if(status != WiFi_MODULE_SUCCESS) return status;
 235              		.loc 1 526 0
 236 0120 FFF7FEFF 		bl	USART_Receive_AT_Resp
 237              	.LVL33:
 527:Middlewares/ST/STM32_SPWF0xSy/wifi_interface.c ****   }
 238              		.loc 1 527 0
 239 0124 0346     		mov	r3, r0
 240 0126 0028     		cmp	r0, #0
 241 0128 A6D0     		beq	.L6
 242 012a F2E7     		b	.L5
 243              	.L12:
 538:Middlewares/ST/STM32_SPWF0xSy/wifi_interface.c ****       if(status != WiFi_MODULE_SUCCESS) return status;
 244              		.loc 1 538 0
 245 012c FFF7FEFF 		bl	USART_Receive_AT_Resp
 246              	.LVL34:
 539:Middlewares/ST/STM32_SPWF0xSy/wifi_interface.c ****     }
 247              		.loc 1 539 0
 248 0130 0346     		mov	r3, r0
 249 0132 0028     		cmp	r0, #0
 250 0134 B4D0     		beq	.L7
 251 0136 ECE7     		b	.L5
 252              	.L13:
 555:Middlewares/ST/STM32_SPWF0xSy/wifi_interface.c ****       if(status != WiFi_MODULE_SUCCESS) return status;
 253              		.loc 1 555 0
 254 0138 FFF7FEFF 		bl	USART_Receive_AT_Resp
 255              	.LVL35:
ARM GAS  D:\cygwin64\tmp\ccGmGipG.s 			page 17


 556:Middlewares/ST/STM32_SPWF0xSy/wifi_interface.c ****     }  
 256              		.loc 1 556 0
 257 013c 0346     		mov	r3, r0
 258 013e 0028     		cmp	r0, #0
 259 0140 C1D0     		beq	.L8
 260 0142 E6E7     		b	.L5
 261              	.L14:
 568:Middlewares/ST/STM32_SPWF0xSy/wifi_interface.c ****       if(status != WiFi_MODULE_SUCCESS) return status;
 262              		.loc 1 568 0
 263 0144 FFF7FEFF 		bl	USART_Receive_AT_Resp
 264              	.LVL36:
 569:Middlewares/ST/STM32_SPWF0xSy/wifi_interface.c ****     }
 265              		.loc 1 569 0
 266 0148 0346     		mov	r3, r0
 267 014a 0028     		cmp	r0, #0
 268 014c CED0     		beq	.L9
 269 014e E0E7     		b	.L5
 270              	.L15:
 581:Middlewares/ST/STM32_SPWF0xSy/wifi_interface.c ****         if(status != WiFi_MODULE_SUCCESS) return status;
 271              		.loc 1 581 0
 272 0150 FFF7FEFF 		bl	USART_Receive_AT_Resp
 273              	.LVL37:
 274 0154 0346     		mov	r3, r0
 275              	.LVL38:
 276 0156 DCE7     		b	.L5
 277              	.L17:
 278              		.align	2
 279              	.L16:
 280 0158 A91FA656 		.word	1453727657
 281 015c 00000000 		.word	WiFi_Counter_Variables
 282 0160 00000000 		.word	WiFi_AT_Cmd_Buff
 283 0164 00000000 		.word	.LC0
 284 0168 1C000000 		.word	.LC1
 285 016c 30000000 		.word	.LC2
 286 0170 48000000 		.word	.LC3
 287 0174 64000000 		.word	.LC4
 288 0178 80000000 		.word	.LC5
 289              		.cfi_endproc
 290              	.LFE276:
 292              		.section	.text.wifi_ping,"ax",%progbits
 293              		.align	1
 294              		.global	wifi_ping
 295              		.syntax unified
 296              		.thumb
 297              		.thumb_func
 298              		.fpu fpv4-sp-d16
 300              	wifi_ping:
 301              	.LFB277:
 653:Middlewares/ST/STM32_SPWF0xSy/wifi_interface.c **** 
 654:Middlewares/ST/STM32_SPWF0xSy/wifi_interface.c **** 
 655:Middlewares/ST/STM32_SPWF0xSy/wifi_interface.c **** /**
 656:Middlewares/ST/STM32_SPWF0xSy/wifi_interface.c **** * @brief  wifi_ping
 657:Middlewares/ST/STM32_SPWF0xSy/wifi_interface.c **** *         issues a single ICMP ECHO request to the given host.
 658:Middlewares/ST/STM32_SPWF0xSy/wifi_interface.c **** * @param  hostname: Target host. DNS resolvable name or IP address.
 659:Middlewares/ST/STM32_SPWF0xSy/wifi_interface.c **** * @retval WiFi_Status_t: status of PING Command.
 660:Middlewares/ST/STM32_SPWF0xSy/wifi_interface.c **** */
 661:Middlewares/ST/STM32_SPWF0xSy/wifi_interface.c **** WiFi_Status_t wifi_ping(uint8_t * hostname)
ARM GAS  D:\cygwin64\tmp\ccGmGipG.s 			page 18


 662:Middlewares/ST/STM32_SPWF0xSy/wifi_interface.c **** {
 302              		.loc 1 662 0
 303              		.cfi_startproc
 304              		@ args = 0, pretend = 0, frame = 0
 305              		@ frame_needed = 0, uses_anonymous_args = 0
 306              	.LVL39:
 307 0000 10B5     		push	{r4, lr}
 308              	.LCFI4:
 309              		.cfi_def_cfa_offset 8
 310              		.cfi_offset 4, -8
 311              		.cfi_offset 14, -4
 312              	.LVL40:
 663:Middlewares/ST/STM32_SPWF0xSy/wifi_interface.c ****    WiFi_Status_t status = WiFi_MODULE_SUCCESS;   
 664:Middlewares/ST/STM32_SPWF0xSy/wifi_interface.c ****    
 665:Middlewares/ST/STM32_SPWF0xSy/wifi_interface.c **** #if defined(CONSOLE_UART_ENABLED)   
 666:Middlewares/ST/STM32_SPWF0xSy/wifi_interface.c ****    sprintf((char*)WiFi_AT_Cmd_Buff,AT_PING,hostname);        
 313              		.loc 1 666 0
 314 0002 0A4C     		ldr	r4, .L22
 315 0004 0246     		mov	r2, r0
 316 0006 0A49     		ldr	r1, .L22+4
 317 0008 2046     		mov	r0, r4
 318              	.LVL41:
 319 000a FFF7FEFF 		bl	sprintf
 320              	.LVL42:
 667:Middlewares/ST/STM32_SPWF0xSy/wifi_interface.c ****    status = USART_Transmit_AT_Cmd(strlen((char*)WiFi_AT_Cmd_Buff));
 321              		.loc 1 667 0
 322 000e 2046     		mov	r0, r4
 323 0010 FFF7FEFF 		bl	strlen
 324              	.LVL43:
 325 0014 80B2     		uxth	r0, r0
 326 0016 FFF7FEFF 		bl	USART_Transmit_AT_Cmd
 327              	.LVL44:
 668:Middlewares/ST/STM32_SPWF0xSy/wifi_interface.c **** #else
 669:Middlewares/ST/STM32_SPWF0xSy/wifi_interface.c ****    sprintf((char*)WiFi_AT_Cmd_Buff,"AT+S.PING=1,56,%s",hostname);
 670:Middlewares/ST/STM32_SPWF0xSy/wifi_interface.c ****    run_spi_cmd((char*)WiFi_AT_Cmd_Buff, SPI_DMA);
 671:Middlewares/ST/STM32_SPWF0xSy/wifi_interface.c ****    status = WiFi_MODULE_SUCCESS;
 672:Middlewares/ST/STM32_SPWF0xSy/wifi_interface.c **** #endif
 673:Middlewares/ST/STM32_SPWF0xSy/wifi_interface.c ****     if(status == WiFi_MODULE_SUCCESS)
 328              		.loc 1 673 0
 329 001a 0346     		mov	r3, r0
 330 001c 08B1     		cbz	r0, .L21
 331              	.LVL45:
 332              	.L19:
 674:Middlewares/ST/STM32_SPWF0xSy/wifi_interface.c ****     {
 675:Middlewares/ST/STM32_SPWF0xSy/wifi_interface.c ****         status = USART_Receive_AT_Resp( );
 676:Middlewares/ST/STM32_SPWF0xSy/wifi_interface.c ****     }
 677:Middlewares/ST/STM32_SPWF0xSy/wifi_interface.c **** 
 678:Middlewares/ST/STM32_SPWF0xSy/wifi_interface.c ****     return status;
 679:Middlewares/ST/STM32_SPWF0xSy/wifi_interface.c **** }
 333              		.loc 1 679 0
 334 001e 1846     		mov	r0, r3
 335 0020 10BD     		pop	{r4, pc}
 336              	.LVL46:
 337              	.L21:
 675:Middlewares/ST/STM32_SPWF0xSy/wifi_interface.c ****     }
 338              		.loc 1 675 0
 339 0022 FFF7FEFF 		bl	USART_Receive_AT_Resp
ARM GAS  D:\cygwin64\tmp\ccGmGipG.s 			page 19


 340              	.LVL47:
 341 0026 0346     		mov	r3, r0
 342              	.LVL48:
 343 0028 F9E7     		b	.L19
 344              	.L23:
 345 002a 00BF     		.align	2
 346              	.L22:
 347 002c 00000000 		.word	WiFi_AT_Cmd_Buff
 348 0030 00000000 		.word	.LC6
 349              		.cfi_endproc
 350              	.LFE277:
 352              		.section	.text.wifi_websocket_client_open,"ax",%progbits
 353              		.align	1
 354              		.global	wifi_websocket_client_open
 355              		.syntax unified
 356              		.thumb
 357              		.thumb_func
 358              		.fpu fpv4-sp-d16
 360              	wifi_websocket_client_open:
 361              	.LFB278:
 680:Middlewares/ST/STM32_SPWF0xSy/wifi_interface.c **** 
 681:Middlewares/ST/STM32_SPWF0xSy/wifi_interface.c **** /**
 682:Middlewares/ST/STM32_SPWF0xSy/wifi_interface.c **** * @brief  wifi_websocket_client_open
 683:Middlewares/ST/STM32_SPWF0xSy/wifi_interface.c **** *         Open a network websocket
 684:Middlewares/ST/STM32_SPWF0xSy/wifi_interface.c **** * @param  Hostname hostname to connect to
 685:Middlewares/ST/STM32_SPWF0xSy/wifi_interface.c **** *         portnumber portnumber of the Host to connect to
 686:Middlewares/ST/STM32_SPWF0xSy/wifi_interface.c **** *         protocol tcp or udp protocol
 687:Middlewares/ST/STM32_SPWF0xSy/wifi_interface.c **** *         sock_id socket id of the opened socket returned to the user
 688:Middlewares/ST/STM32_SPWF0xSy/wifi_interface.c **** * @retval WiFi_Status_t : return status of socket open request
 689:Middlewares/ST/STM32_SPWF0xSy/wifi_interface.c **** */
 690:Middlewares/ST/STM32_SPWF0xSy/wifi_interface.c **** WiFi_Status_t wifi_websocket_client_open(uint8_t * hostname, uint32_t port_number, uint8_t * protoc
 691:Middlewares/ST/STM32_SPWF0xSy/wifi_interface.c **** {
 362              		.loc 1 691 0
 363              		.cfi_startproc
 364              		@ args = 0, pretend = 0, frame = 0
 365              		@ frame_needed = 0, uses_anonymous_args = 0
 366              	.LVL49:
 367 0000 10B5     		push	{r4, lr}
 368              	.LCFI5:
 369              		.cfi_def_cfa_offset 8
 370              		.cfi_offset 4, -8
 371              		.cfi_offset 14, -4
 372 0002 1C46     		mov	r4, r3
 373              	.LVL50:
 692:Middlewares/ST/STM32_SPWF0xSy/wifi_interface.c ****   WiFi_Status_t status = WiFi_MODULE_SUCCESS;
 693:Middlewares/ST/STM32_SPWF0xSy/wifi_interface.c **** 
 694:Middlewares/ST/STM32_SPWF0xSy/wifi_interface.c ****   Queue_Client_Open_Event(hostname,port_number,protocol, WEB_SOCKET);
 374              		.loc 1 694 0
 375 0004 0123     		movs	r3, #1
 376              	.LVL51:
 377 0006 FFF7FEFF 		bl	Queue_Client_Open_Event
 378              	.LVL52:
 695:Middlewares/ST/STM32_SPWF0xSy/wifi_interface.c ****   status = USART_Receive_AT_Resp( );
 379              		.loc 1 695 0
 380 000a FFF7FEFF 		bl	USART_Receive_AT_Resp
 381              	.LVL53:
 696:Middlewares/ST/STM32_SPWF0xSy/wifi_interface.c **** 
ARM GAS  D:\cygwin64\tmp\ccGmGipG.s 			page 20


 697:Middlewares/ST/STM32_SPWF0xSy/wifi_interface.c ****   *sock_id = WiFi_Counter_Variables.Socket_Open_ID; //return the socket id to the user
 382              		.loc 1 697 0
 383 000e 034B     		ldr	r3, .L26
 384 0010 1B78     		ldrb	r3, [r3]	@ zero_extendqisi2
 385 0012 C3F30203 		ubfx	r3, r3, #0, #3
 386 0016 2370     		strb	r3, [r4]
 698:Middlewares/ST/STM32_SPWF0xSy/wifi_interface.c ****   return status; 
 699:Middlewares/ST/STM32_SPWF0xSy/wifi_interface.c **** }
 387              		.loc 1 699 0
 388 0018 10BD     		pop	{r4, pc}
 389              	.LVL54:
 390              	.L27:
 391 001a 00BF     		.align	2
 392              	.L26:
 393 001c 00000000 		.word	WiFi_Counter_Variables
 394              		.cfi_endproc
 395              	.LFE278:
 397              		.section	.text.wifi_websocket_client_write,"ax",%progbits
 398              		.align	1
 399              		.global	wifi_websocket_client_write
 400              		.syntax unified
 401              		.thumb
 402              		.thumb_func
 403              		.fpu fpv4-sp-d16
 405              	wifi_websocket_client_write:
 406              	.LFB279:
 700:Middlewares/ST/STM32_SPWF0xSy/wifi_interface.c **** 
 701:Middlewares/ST/STM32_SPWF0xSy/wifi_interface.c **** /**
 702:Middlewares/ST/STM32_SPWF0xSy/wifi_interface.c **** * @brief  wifi_websocket_client_write
 703:Middlewares/ST/STM32_SPWF0xSy/wifi_interface.c **** *         Write len bytes of data to socket
 704:Middlewares/ST/STM32_SPWF0xSy/wifi_interface.c **** * @param  sock_id socket ID of the websocket to write to
 705:Middlewares/ST/STM32_SPWF0xSy/wifi_interface.c **** *         DataLength: data length to send
 706:Middlewares/ST/STM32_SPWF0xSy/wifi_interface.c **** *         pData : pointer of data buffer to be written
 707:Middlewares/ST/STM32_SPWF0xSy/wifi_interface.c **** * @retval WiFi_Status_t : return status of socket write request
 708:Middlewares/ST/STM32_SPWF0xSy/wifi_interface.c **** */
 709:Middlewares/ST/STM32_SPWF0xSy/wifi_interface.c **** WiFi_Status_t wifi_websocket_client_write(uint8_t sock_id, uint32_t DataLength, char * pData)
 710:Middlewares/ST/STM32_SPWF0xSy/wifi_interface.c **** {
 407              		.loc 1 710 0
 408              		.cfi_startproc
 409              		@ args = 0, pretend = 0, frame = 0
 410              		@ frame_needed = 0, uses_anonymous_args = 0
 411              	.LVL55:
 412 0000 08B5     		push	{r3, lr}
 413              	.LCFI6:
 414              		.cfi_def_cfa_offset 8
 415              		.cfi_offset 3, -8
 416              		.cfi_offset 14, -4
 417              	.LVL56:
 711:Middlewares/ST/STM32_SPWF0xSy/wifi_interface.c ****   /* AT+S.SOCKW=00,11<cr> */
 712:Middlewares/ST/STM32_SPWF0xSy/wifi_interface.c ****   WiFi_Status_t status = WiFi_MODULE_SUCCESS;
 713:Middlewares/ST/STM32_SPWF0xSy/wifi_interface.c **** 
 714:Middlewares/ST/STM32_SPWF0xSy/wifi_interface.c ****   //Check if sock_id is open
 715:Middlewares/ST/STM32_SPWF0xSy/wifi_interface.c ****   if(!open_web_socket[sock_id])
 418              		.loc 1 715 0
 419 0002 094B     		ldr	r3, .L35
 420 0004 1B5C     		ldrb	r3, [r3, r0]	@ zero_extendqisi2
 421 0006 0BB9     		cbnz	r3, .L34
ARM GAS  D:\cygwin64\tmp\ccGmGipG.s 			page 21


 716:Middlewares/ST/STM32_SPWF0xSy/wifi_interface.c ****     return WiFi_NOT_READY;
 422              		.loc 1 716 0
 423 0008 0520     		movs	r0, #5
 424              	.LVL57:
 425 000a 08BD     		pop	{r3, pc}
 426              	.LVL58:
 427              	.L34:
 717:Middlewares/ST/STM32_SPWF0xSy/wifi_interface.c **** 
 718:Middlewares/ST/STM32_SPWF0xSy/wifi_interface.c ****   if(DataLength <= 0 && DataLength > WiFi_Counter_Variables.wifi_socket_write_limit)
 428              		.loc 1 718 0
 429 000c 31B9     		cbnz	r1, .L30
 430              		.loc 1 718 0 is_stmt 0 discriminator 1
 431 000e 074B     		ldr	r3, .L35+4
 432 0010 D3F8E430 		ldr	r3, [r3, #228]
 433 0014 9942     		cmp	r1, r3
 434 0016 01D9     		bls	.L30
 719:Middlewares/ST/STM32_SPWF0xSy/wifi_interface.c ****     return WiFi_NOT_SUPPORTED;
 435              		.loc 1 719 0 is_stmt 1
 436 0018 0420     		movs	r0, #4
 437              	.LVL59:
 720:Middlewares/ST/STM32_SPWF0xSy/wifi_interface.c **** 
 721:Middlewares/ST/STM32_SPWF0xSy/wifi_interface.c ****   Queue_Client_Write_Event(sock_id,DataLength,pData,WEB_SOCKET);
 722:Middlewares/ST/STM32_SPWF0xSy/wifi_interface.c ****   status = USART_Receive_AT_Resp( );
 723:Middlewares/ST/STM32_SPWF0xSy/wifi_interface.c ****   return status;
 724:Middlewares/ST/STM32_SPWF0xSy/wifi_interface.c **** }
 438              		.loc 1 724 0
 439 001a 08BD     		pop	{r3, pc}
 440              	.LVL60:
 441              	.L30:
 721:Middlewares/ST/STM32_SPWF0xSy/wifi_interface.c ****   status = USART_Receive_AT_Resp( );
 442              		.loc 1 721 0
 443 001c 0123     		movs	r3, #1
 444 001e FFF7FEFF 		bl	Queue_Client_Write_Event
 445              	.LVL61:
 722:Middlewares/ST/STM32_SPWF0xSy/wifi_interface.c ****   return status;
 446              		.loc 1 722 0
 447 0022 FFF7FEFF 		bl	USART_Receive_AT_Resp
 448              	.LVL62:
 723:Middlewares/ST/STM32_SPWF0xSy/wifi_interface.c **** }
 449              		.loc 1 723 0
 450 0026 08BD     		pop	{r3, pc}
 451              	.L36:
 452              		.align	2
 453              	.L35:
 454 0028 00000000 		.word	open_web_socket
 455 002c 00000000 		.word	WiFi_Counter_Variables
 456              		.cfi_endproc
 457              	.LFE279:
 459              		.section	.text.wifi_websocket_client_close,"ax",%progbits
 460              		.align	1
 461              		.global	wifi_websocket_client_close
 462              		.syntax unified
 463              		.thumb
 464              		.thumb_func
 465              		.fpu fpv4-sp-d16
 467              	wifi_websocket_client_close:
 468              	.LFB280:
ARM GAS  D:\cygwin64\tmp\ccGmGipG.s 			page 22


 725:Middlewares/ST/STM32_SPWF0xSy/wifi_interface.c **** 
 726:Middlewares/ST/STM32_SPWF0xSy/wifi_interface.c **** /**
 727:Middlewares/ST/STM32_SPWF0xSy/wifi_interface.c **** * @brief  wifi_websocket_client_close
 728:Middlewares/ST/STM32_SPWF0xSy/wifi_interface.c **** *         The WSOCKC command allows to close the websocket
 729:Middlewares/ST/STM32_SPWF0xSy/wifi_interface.c **** * @param  sock_close_id the socket ID of the socket which needs to be closed.
 730:Middlewares/ST/STM32_SPWF0xSy/wifi_interface.c **** * @retval WiFi_Status_t : return status of socket close request
 731:Middlewares/ST/STM32_SPWF0xSy/wifi_interface.c **** */
 732:Middlewares/ST/STM32_SPWF0xSy/wifi_interface.c **** WiFi_Status_t wifi_websocket_client_close(uint8_t sock_close_id)
 733:Middlewares/ST/STM32_SPWF0xSy/wifi_interface.c **** {
 469              		.loc 1 733 0
 470              		.cfi_startproc
 471              		@ args = 0, pretend = 0, frame = 0
 472              		@ frame_needed = 0, uses_anonymous_args = 0
 473              	.LVL63:
 474 0000 08B5     		push	{r3, lr}
 475              	.LCFI7:
 476              		.cfi_def_cfa_offset 8
 477              		.cfi_offset 3, -8
 478              		.cfi_offset 14, -4
 479              	.LVL64:
 734:Middlewares/ST/STM32_SPWF0xSy/wifi_interface.c ****   WiFi_Status_t status = WiFi_MODULE_SUCCESS;  
 735:Middlewares/ST/STM32_SPWF0xSy/wifi_interface.c ****   Queue_Client_Close_Event(sock_close_id, WEB_SOCKET);
 480              		.loc 1 735 0
 481 0002 0121     		movs	r1, #1
 482 0004 FFF7FEFF 		bl	Queue_Client_Close_Event
 483              	.LVL65:
 736:Middlewares/ST/STM32_SPWF0xSy/wifi_interface.c ****   return status;
 737:Middlewares/ST/STM32_SPWF0xSy/wifi_interface.c ****   
 738:Middlewares/ST/STM32_SPWF0xSy/wifi_interface.c **** }
 484              		.loc 1 738 0
 485 0008 0020     		movs	r0, #0
 486 000a 08BD     		pop	{r3, pc}
 487              		.cfi_endproc
 488              	.LFE280:
 490              		.section	.text.wifi_socket_client_open,"ax",%progbits
 491              		.align	1
 492              		.global	wifi_socket_client_open
 493              		.syntax unified
 494              		.thumb
 495              		.thumb_func
 496              		.fpu fpv4-sp-d16
 498              	wifi_socket_client_open:
 499              	.LFB281:
 739:Middlewares/ST/STM32_SPWF0xSy/wifi_interface.c **** 
 740:Middlewares/ST/STM32_SPWF0xSy/wifi_interface.c **** /**
 741:Middlewares/ST/STM32_SPWF0xSy/wifi_interface.c **** * @brief  wifi_socket_client_open
 742:Middlewares/ST/STM32_SPWF0xSy/wifi_interface.c **** *         Open a network socket
 743:Middlewares/ST/STM32_SPWF0xSy/wifi_interface.c **** * @param  Hostname hostname to connect to
 744:Middlewares/ST/STM32_SPWF0xSy/wifi_interface.c **** *         portnumber portnumber of the Host to connect to
 745:Middlewares/ST/STM32_SPWF0xSy/wifi_interface.c **** *         protocol tcp or udp protocol
 746:Middlewares/ST/STM32_SPWF0xSy/wifi_interface.c **** *         sock_id socket id of the opened socket returned to the user
 747:Middlewares/ST/STM32_SPWF0xSy/wifi_interface.c **** * @retval WiFi_Status_t : return status of socket open request
 748:Middlewares/ST/STM32_SPWF0xSy/wifi_interface.c **** */
 749:Middlewares/ST/STM32_SPWF0xSy/wifi_interface.c **** WiFi_Status_t wifi_socket_client_open(uint8_t * hostname, uint32_t port_number, uint8_t * protocol,
 750:Middlewares/ST/STM32_SPWF0xSy/wifi_interface.c **** {
 500              		.loc 1 750 0
 501              		.cfi_startproc
ARM GAS  D:\cygwin64\tmp\ccGmGipG.s 			page 23


 502              		@ args = 0, pretend = 0, frame = 0
 503              		@ frame_needed = 0, uses_anonymous_args = 0
 504              	.LVL66:
 505 0000 10B5     		push	{r4, lr}
 506              	.LCFI8:
 507              		.cfi_def_cfa_offset 8
 508              		.cfi_offset 4, -8
 509              		.cfi_offset 14, -4
 510 0002 1C46     		mov	r4, r3
 511              	.LVL67:
 751:Middlewares/ST/STM32_SPWF0xSy/wifi_interface.c ****   WiFi_Status_t status = WiFi_MODULE_SUCCESS;
 752:Middlewares/ST/STM32_SPWF0xSy/wifi_interface.c **** 
 753:Middlewares/ST/STM32_SPWF0xSy/wifi_interface.c ****   Queue_Client_Open_Event(hostname,port_number,protocol, NET_SOCKET);
 512              		.loc 1 753 0
 513 0004 0223     		movs	r3, #2
 514              	.LVL68:
 515 0006 FFF7FEFF 		bl	Queue_Client_Open_Event
 516              	.LVL69:
 754:Middlewares/ST/STM32_SPWF0xSy/wifi_interface.c ****   status = USART_Receive_AT_Resp( );
 517              		.loc 1 754 0
 518 000a FFF7FEFF 		bl	USART_Receive_AT_Resp
 519              	.LVL70:
 755:Middlewares/ST/STM32_SPWF0xSy/wifi_interface.c **** 
 756:Middlewares/ST/STM32_SPWF0xSy/wifi_interface.c ****   *sock_id = WiFi_Counter_Variables.Socket_Open_ID; //return the socket id to the user
 520              		.loc 1 756 0
 521 000e 034B     		ldr	r3, .L41
 522 0010 1B78     		ldrb	r3, [r3]	@ zero_extendqisi2
 523 0012 C3F30203 		ubfx	r3, r3, #0, #3
 524 0016 2370     		strb	r3, [r4]
 757:Middlewares/ST/STM32_SPWF0xSy/wifi_interface.c ****   return status; 
 758:Middlewares/ST/STM32_SPWF0xSy/wifi_interface.c **** }
 525              		.loc 1 758 0
 526 0018 10BD     		pop	{r4, pc}
 527              	.LVL71:
 528              	.L42:
 529 001a 00BF     		.align	2
 530              	.L41:
 531 001c 00000000 		.word	WiFi_Counter_Variables
 532              		.cfi_endproc
 533              	.LFE281:
 535              		.section	.text.Open_Serial_Port,"ax",%progbits
 536              		.align	1
 537              		.global	Open_Serial_Port
 538              		.syntax unified
 539              		.thumb
 540              		.thumb_func
 541              		.fpu fpv4-sp-d16
 543              	Open_Serial_Port:
 544              	.LFB282:
 759:Middlewares/ST/STM32_SPWF0xSy/wifi_interface.c **** 
 760:Middlewares/ST/STM32_SPWF0xSy/wifi_interface.c **** 
 761:Middlewares/ST/STM32_SPWF0xSy/wifi_interface.c **** /**
 762:Middlewares/ST/STM32_SPWF0xSy/wifi_interface.c **** * @brief  Open_Serial_Port
 763:Middlewares/ST/STM32_SPWF0xSy/wifi_interface.c **** *         Open a network socket
 764:Middlewares/ST/STM32_SPWF0xSy/wifi_interface.c **** * @param  None
 765:Middlewares/ST/STM32_SPWF0xSy/wifi_interface.c **** * @retval WiFi_Status_t : Wifi status
 766:Middlewares/ST/STM32_SPWF0xSy/wifi_interface.c **** */
ARM GAS  D:\cygwin64\tmp\ccGmGipG.s 			page 24


 767:Middlewares/ST/STM32_SPWF0xSy/wifi_interface.c **** WiFi_Status_t Open_Serial_Port()
 768:Middlewares/ST/STM32_SPWF0xSy/wifi_interface.c **** {
 545              		.loc 1 768 0
 546              		.cfi_startproc
 547              		@ args = 0, pretend = 0, frame = 0
 548              		@ frame_needed = 0, uses_anonymous_args = 0
 549 0000 08B5     		push	{r3, lr}
 550              	.LCFI9:
 551              		.cfi_def_cfa_offset 8
 552              		.cfi_offset 3, -8
 553              		.cfi_offset 14, -4
 554              	.LVL72:
 769:Middlewares/ST/STM32_SPWF0xSy/wifi_interface.c ****   WiFi_Status_t status = WiFi_MODULE_SUCCESS;
 770:Middlewares/ST/STM32_SPWF0xSy/wifi_interface.c ****   /* AT+S.SOCKOS=2<cr> */
 771:Middlewares/ST/STM32_SPWF0xSy/wifi_interface.c ****   Reset_AT_CMD_Buffer();
 555              		.loc 1 771 0
 556 0002 FFF7FEFF 		bl	Reset_AT_CMD_Buffer
 557              	.LVL73:
 772:Middlewares/ST/STM32_SPWF0xSy/wifi_interface.c ****   //sprintf((char*)WiFi_AT_Cmd_Buff,"\rAT+S.SOCKOS=%d\r",SerialPortNo);        
 773:Middlewares/ST/STM32_SPWF0xSy/wifi_interface.c ****   status = USART_Transmit_AT_Cmd(strlen((char*)WiFi_AT_Cmd_Buff));
 558              		.loc 1 773 0
 559 0006 0748     		ldr	r0, .L47
 560 0008 FFF7FEFF 		bl	strlen
 561              	.LVL74:
 562 000c 80B2     		uxth	r0, r0
 563 000e FFF7FEFF 		bl	USART_Transmit_AT_Cmd
 564              	.LVL75:
 774:Middlewares/ST/STM32_SPWF0xSy/wifi_interface.c **** 
 775:Middlewares/ST/STM32_SPWF0xSy/wifi_interface.c ****   if(status==WiFi_MODULE_SUCCESS)
 565              		.loc 1 775 0
 566 0012 0346     		mov	r3, r0
 567 0014 08B1     		cbz	r0, .L46
 568              	.LVL76:
 569              	.L44:
 776:Middlewares/ST/STM32_SPWF0xSy/wifi_interface.c ****   {
 777:Middlewares/ST/STM32_SPWF0xSy/wifi_interface.c ****     status = USART_Receive_AT_Resp( ); 
 778:Middlewares/ST/STM32_SPWF0xSy/wifi_interface.c ****   }
 779:Middlewares/ST/STM32_SPWF0xSy/wifi_interface.c ****   return status;
 780:Middlewares/ST/STM32_SPWF0xSy/wifi_interface.c **** }
 570              		.loc 1 780 0
 571 0016 1846     		mov	r0, r3
 572 0018 08BD     		pop	{r3, pc}
 573              	.LVL77:
 574              	.L46:
 777:Middlewares/ST/STM32_SPWF0xSy/wifi_interface.c ****   }
 575              		.loc 1 777 0
 576 001a FFF7FEFF 		bl	USART_Receive_AT_Resp
 577              	.LVL78:
 578 001e 0346     		mov	r3, r0
 579              	.LVL79:
 580 0020 F9E7     		b	.L44
 581              	.L48:
 582 0022 00BF     		.align	2
 583              	.L47:
 584 0024 00000000 		.word	WiFi_AT_Cmd_Buff
 585              		.cfi_endproc
 586              	.LFE282:
ARM GAS  D:\cygwin64\tmp\ccGmGipG.s 			page 25


 588              		.section	.text.wifi_socket_client_write,"ax",%progbits
 589              		.align	1
 590              		.global	wifi_socket_client_write
 591              		.syntax unified
 592              		.thumb
 593              		.thumb_func
 594              		.fpu fpv4-sp-d16
 596              	wifi_socket_client_write:
 597              	.LFB283:
 781:Middlewares/ST/STM32_SPWF0xSy/wifi_interface.c **** 
 782:Middlewares/ST/STM32_SPWF0xSy/wifi_interface.c **** /**
 783:Middlewares/ST/STM32_SPWF0xSy/wifi_interface.c **** * @brief  wifi_socket_client_write
 784:Middlewares/ST/STM32_SPWF0xSy/wifi_interface.c **** *         Write len bytes of data to socket
 785:Middlewares/ST/STM32_SPWF0xSy/wifi_interface.c **** * @param  sock_id socket ID of the socket to write to
 786:Middlewares/ST/STM32_SPWF0xSy/wifi_interface.c **** *         DataLength: data length to send
 787:Middlewares/ST/STM32_SPWF0xSy/wifi_interface.c **** *         pData : pointer of data buffer to be written
 788:Middlewares/ST/STM32_SPWF0xSy/wifi_interface.c **** * @retval WiFi_Status_t : return status of socket write request
 789:Middlewares/ST/STM32_SPWF0xSy/wifi_interface.c **** */
 790:Middlewares/ST/STM32_SPWF0xSy/wifi_interface.c **** WiFi_Status_t wifi_socket_client_write(uint8_t sock_id, uint32_t DataLength, char * pData)
 791:Middlewares/ST/STM32_SPWF0xSy/wifi_interface.c **** {
 598              		.loc 1 791 0
 599              		.cfi_startproc
 600              		@ args = 0, pretend = 0, frame = 0
 601              		@ frame_needed = 0, uses_anonymous_args = 0
 602              	.LVL80:
 792:Middlewares/ST/STM32_SPWF0xSy/wifi_interface.c ****   /* AT+S.SOCKW=00,11<cr> */
 793:Middlewares/ST/STM32_SPWF0xSy/wifi_interface.c ****   WiFi_Status_t status = WiFi_MODULE_SUCCESS;
 794:Middlewares/ST/STM32_SPWF0xSy/wifi_interface.c ****   
 795:Middlewares/ST/STM32_SPWF0xSy/wifi_interface.c ****   //Check if sock_id is open
 796:Middlewares/ST/STM32_SPWF0xSy/wifi_interface.c ****   if(!open_sockets[sock_id])
 603              		.loc 1 796 0
 604 0000 1B4B     		ldr	r3, .L64
 605 0002 1B5C     		ldrb	r3, [r3, r0]	@ zero_extendqisi2
 606 0004 13B9     		cbnz	r3, .L62
 797:Middlewares/ST/STM32_SPWF0xSy/wifi_interface.c ****     return WiFi_NOT_READY;  
 607              		.loc 1 797 0
 608 0006 0523     		movs	r3, #5
 798:Middlewares/ST/STM32_SPWF0xSy/wifi_interface.c ****     
 799:Middlewares/ST/STM32_SPWF0xSy/wifi_interface.c ****   if(DataLength <= 0)
 800:Middlewares/ST/STM32_SPWF0xSy/wifi_interface.c ****     return WiFi_NOT_SUPPORTED;
 801:Middlewares/ST/STM32_SPWF0xSy/wifi_interface.c **** 
 802:Middlewares/ST/STM32_SPWF0xSy/wifi_interface.c ****   #if defined(SPWF01)
 803:Middlewares/ST/STM32_SPWF0xSy/wifi_interface.c ****     uint16_t chunk_count = 0, chunk_index;
 804:Middlewares/ST/STM32_SPWF0xSy/wifi_interface.c ****     uint32_t chunk_size = 0;
 805:Middlewares/ST/STM32_SPWF0xSy/wifi_interface.c ****     chunk_count = DataLength/MAX_CLIENT_WRITE_SIZE;
 806:Middlewares/ST/STM32_SPWF0xSy/wifi_interface.c ****     chunk_count = (DataLength % MAX_CLIENT_WRITE_SIZE == 0)? chunk_count: chunk_count+1;
 807:Middlewares/ST/STM32_SPWF0xSy/wifi_interface.c ****     chunk_index = 0;
 808:Middlewares/ST/STM32_SPWF0xSy/wifi_interface.c ****     
 809:Middlewares/ST/STM32_SPWF0xSy/wifi_interface.c ****     while(chunk_index < chunk_count)
 810:Middlewares/ST/STM32_SPWF0xSy/wifi_interface.c ****     {
 811:Middlewares/ST/STM32_SPWF0xSy/wifi_interface.c ****       chunk_size = (DataLength > MAX_CLIENT_WRITE_SIZE)? MAX_CLIENT_WRITE_SIZE: DataLength;
 812:Middlewares/ST/STM32_SPWF0xSy/wifi_interface.c ****       DataLength = (DataLength > MAX_CLIENT_WRITE_SIZE)? (DataLength-MAX_CLIENT_WRITE_SIZE): 0;
 813:Middlewares/ST/STM32_SPWF0xSy/wifi_interface.c ****       Queue_Client_Write_Event(sock_id,chunk_size,pData+(chunk_index*MAX_CLIENT_WRITE_SIZE), NET_SO
 814:Middlewares/ST/STM32_SPWF0xSy/wifi_interface.c ****       status = USART_Receive_AT_Resp( );
 815:Middlewares/ST/STM32_SPWF0xSy/wifi_interface.c ****       if(status != WiFi_MODULE_SUCCESS)
 816:Middlewares/ST/STM32_SPWF0xSy/wifi_interface.c ****         break;
 817:Middlewares/ST/STM32_SPWF0xSy/wifi_interface.c ****       chunk_index++;
ARM GAS  D:\cygwin64\tmp\ccGmGipG.s 			page 26


 818:Middlewares/ST/STM32_SPWF0xSy/wifi_interface.c ****     }
 819:Middlewares/ST/STM32_SPWF0xSy/wifi_interface.c ****   #else //free to use max proportional to free heap size
 820:Middlewares/ST/STM32_SPWF0xSy/wifi_interface.c ****     if(DataLength > WiFi_Counter_Variables.wifi_socket_write_limit)
 821:Middlewares/ST/STM32_SPWF0xSy/wifi_interface.c ****       return WiFi_NOT_SUPPORTED;
 822:Middlewares/ST/STM32_SPWF0xSy/wifi_interface.c ****     
 823:Middlewares/ST/STM32_SPWF0xSy/wifi_interface.c ****     Queue_Client_Write_Event(sock_id,DataLength,pData, NET_SOCKET);
 824:Middlewares/ST/STM32_SPWF0xSy/wifi_interface.c ****     status = USART_Receive_AT_Resp( );
 825:Middlewares/ST/STM32_SPWF0xSy/wifi_interface.c ****   #endif
 826:Middlewares/ST/STM32_SPWF0xSy/wifi_interface.c ****   
 827:Middlewares/ST/STM32_SPWF0xSy/wifi_interface.c ****   return status;
 828:Middlewares/ST/STM32_SPWF0xSy/wifi_interface.c **** }
 609              		.loc 1 828 0
 610 0008 1846     		mov	r0, r3
 611              	.LVL81:
 612 000a 7047     		bx	lr
 613              	.LVL82:
 614              	.L62:
 791:Middlewares/ST/STM32_SPWF0xSy/wifi_interface.c ****   /* AT+S.SOCKW=00,11<cr> */
 615              		.loc 1 791 0
 616 000c 2DE9F041 		push	{r4, r5, r6, r7, r8, lr}
 617              	.LCFI10:
 618              		.cfi_def_cfa_offset 24
 619              		.cfi_offset 4, -24
 620              		.cfi_offset 5, -20
 621              		.cfi_offset 6, -16
 622              		.cfi_offset 7, -12
 623              		.cfi_offset 8, -8
 624              		.cfi_offset 14, -4
 625 0010 0646     		mov	r6, r0
 626 0012 0D46     		mov	r5, r1
 627 0014 1746     		mov	r7, r2
 799:Middlewares/ST/STM32_SPWF0xSy/wifi_interface.c ****     return WiFi_NOT_SUPPORTED;
 628              		.loc 1 799 0
 629 0016 19B9     		cbnz	r1, .L63
 800:Middlewares/ST/STM32_SPWF0xSy/wifi_interface.c **** 
 630              		.loc 1 800 0
 631 0018 0423     		movs	r3, #4
 632              	.LVL83:
 633              	.L50:
 634              		.loc 1 828 0
 635 001a 1846     		mov	r0, r3
 636 001c BDE8F081 		pop	{r4, r5, r6, r7, r8, pc}
 637              	.LVL84:
 638              	.L63:
 805:Middlewares/ST/STM32_SPWF0xSy/wifi_interface.c ****     chunk_count = (DataLength % MAX_CLIENT_WRITE_SIZE == 0)? chunk_count: chunk_count+1;
 639              		.loc 1 805 0
 640 0020 C1F30F38 		ubfx	r8, r1, #12, #16
 641              	.LVL85:
 806:Middlewares/ST/STM32_SPWF0xSy/wifi_interface.c ****     chunk_index = 0;
 642              		.loc 1 806 0
 643 0024 C1F30B03 		ubfx	r3, r1, #0, #12
 644 0028 1BB1     		cbz	r3, .L51
 806:Middlewares/ST/STM32_SPWF0xSy/wifi_interface.c ****     chunk_index = 0;
 645              		.loc 1 806 0 is_stmt 0 discriminator 1
 646 002a 08F10108 		add	r8, r8, #1
 647              	.LVL86:
 648 002e 1FFA88F8 		uxth	r8, r8
ARM GAS  D:\cygwin64\tmp\ccGmGipG.s 			page 27


 649              	.LVL87:
 650              	.L51:
 807:Middlewares/ST/STM32_SPWF0xSy/wifi_interface.c ****     
 651              		.loc 1 807 0 is_stmt 1 discriminator 4
 652 0032 0024     		movs	r4, #0
 793:Middlewares/ST/STM32_SPWF0xSy/wifi_interface.c ****   
 653              		.loc 1 793 0 discriminator 4
 654 0034 2346     		mov	r3, r4
 809:Middlewares/ST/STM32_SPWF0xSy/wifi_interface.c ****     {
 655              		.loc 1 809 0 discriminator 4
 656 0036 0DE0     		b	.L52
 657              	.LVL88:
 658              	.L57:
 812:Middlewares/ST/STM32_SPWF0xSy/wifi_interface.c ****       Queue_Client_Write_Event(sock_id,chunk_size,pData+(chunk_index*MAX_CLIENT_WRITE_SIZE), NET_SO
 659              		.loc 1 812 0
 660 0038 0025     		movs	r5, #0
 661              	.LVL89:
 662              	.L53:
 813:Middlewares/ST/STM32_SPWF0xSy/wifi_interface.c ****       status = USART_Receive_AT_Resp( );
 663              		.loc 1 813 0 discriminator 4
 664 003a 0223     		movs	r3, #2
 665              	.LVL90:
 666 003c 07EB0432 		add	r2, r7, r4, lsl #12
 667 0040 3046     		mov	r0, r6
 668 0042 FFF7FEFF 		bl	Queue_Client_Write_Event
 669              	.LVL91:
 814:Middlewares/ST/STM32_SPWF0xSy/wifi_interface.c ****       if(status != WiFi_MODULE_SUCCESS)
 670              		.loc 1 814 0 discriminator 4
 671 0046 FFF7FEFF 		bl	USART_Receive_AT_Resp
 672              	.LVL92:
 815:Middlewares/ST/STM32_SPWF0xSy/wifi_interface.c ****         break;
 673              		.loc 1 815 0 discriminator 4
 674 004a 0346     		mov	r3, r0
 675 004c 0028     		cmp	r0, #0
 676 004e E4D1     		bne	.L50
 817:Middlewares/ST/STM32_SPWF0xSy/wifi_interface.c ****     }
 677              		.loc 1 817 0
 678 0050 0134     		adds	r4, r4, #1
 679              	.LVL93:
 680 0052 A4B2     		uxth	r4, r4
 681              	.LVL94:
 682              	.L52:
 809:Middlewares/ST/STM32_SPWF0xSy/wifi_interface.c ****     {
 683              		.loc 1 809 0
 684 0054 4445     		cmp	r4, r8
 685 0056 E0D2     		bcs	.L50
 811:Middlewares/ST/STM32_SPWF0xSy/wifi_interface.c ****       DataLength = (DataLength > MAX_CLIENT_WRITE_SIZE)? (DataLength-MAX_CLIENT_WRITE_SIZE): 0;
 686              		.loc 1 811 0
 687 0058 2946     		mov	r1, r5
 688 005a B5F5805F 		cmp	r5, #4096
 689 005e 28BF     		it	cs
 690 0060 4FF48051 		movcs	r1, #4096
 691              	.LVL95:
 812:Middlewares/ST/STM32_SPWF0xSy/wifi_interface.c ****       Queue_Client_Write_Event(sock_id,chunk_size,pData+(chunk_index*MAX_CLIENT_WRITE_SIZE), NET_SO
 692              		.loc 1 812 0
 693 0064 B5F5805F 		cmp	r5, #4096
 694 0068 E6D9     		bls	.L57
ARM GAS  D:\cygwin64\tmp\ccGmGipG.s 			page 28


 812:Middlewares/ST/STM32_SPWF0xSy/wifi_interface.c ****       Queue_Client_Write_Event(sock_id,chunk_size,pData+(chunk_index*MAX_CLIENT_WRITE_SIZE), NET_SO
 695              		.loc 1 812 0 is_stmt 0 discriminator 1
 696 006a A5F58055 		sub	r5, r5, #4096
 697              	.LVL96:
 698 006e E4E7     		b	.L53
 699              	.L65:
 700              		.align	2
 701              	.L64:
 702 0070 00000000 		.word	open_sockets
 703              		.cfi_endproc
 704              	.LFE283:
 706              		.section	.text.wifi_socket_client_close,"ax",%progbits
 707              		.align	1
 708              		.global	wifi_socket_client_close
 709              		.syntax unified
 710              		.thumb
 711              		.thumb_func
 712              		.fpu fpv4-sp-d16
 714              	wifi_socket_client_close:
 715              	.LFB285:
 829:Middlewares/ST/STM32_SPWF0xSy/wifi_interface.c **** 
 830:Middlewares/ST/STM32_SPWF0xSy/wifi_interface.c **** /**
 831:Middlewares/ST/STM32_SPWF0xSy/wifi_interface.c **** * @brief  Socket_Read
 832:Middlewares/ST/STM32_SPWF0xSy/wifi_interface.c **** *         Return len bytes of data from socket
 833:Middlewares/ST/STM32_SPWF0xSy/wifi_interface.c **** * @param  DataLength: data length to read
 834:Middlewares/ST/STM32_SPWF0xSy/wifi_interface.c **** * @retval WiFi_Status_t : return status of socket read request
 835:Middlewares/ST/STM32_SPWF0xSy/wifi_interface.c **** */
 836:Middlewares/ST/STM32_SPWF0xSy/wifi_interface.c **** WiFi_Status_t Socket_Read(uint16_t DataLength)
 837:Middlewares/ST/STM32_SPWF0xSy/wifi_interface.c **** {
 838:Middlewares/ST/STM32_SPWF0xSy/wifi_interface.c ****   /* AT+S.SOCKR=01,12<cr> */
 839:Middlewares/ST/STM32_SPWF0xSy/wifi_interface.c ****   WiFi_Status_t status = WiFi_MODULE_SUCCESS;
 840:Middlewares/ST/STM32_SPWF0xSy/wifi_interface.c ****   #if defined(SPWF01) && defined(CONSOLE_UART_ENABLED)
 841:Middlewares/ST/STM32_SPWF0xSy/wifi_interface.c ****     wait_for_command_mode();
 842:Middlewares/ST/STM32_SPWF0xSy/wifi_interface.c ****   #endif
 843:Middlewares/ST/STM32_SPWF0xSy/wifi_interface.c **** 
 844:Middlewares/ST/STM32_SPWF0xSy/wifi_interface.c ****   /* AT+S.SOCKON=myserver,1234,t<cr> */
 845:Middlewares/ST/STM32_SPWF0xSy/wifi_interface.c ****   #if defined(CONSOLE_UART_ENABLED)
 846:Middlewares/ST/STM32_SPWF0xSy/wifi_interface.c ****     sprintf((char*)WiFi_AT_Cmd_Buff,AT_SOCKET_READ,WiFi_Counter_Variables.sockon_query_id,DataLengt
 847:Middlewares/ST/STM32_SPWF0xSy/wifi_interface.c ****     WiFi_Counter_Variables.SockON_Data_Length = DataLength;
 848:Middlewares/ST/STM32_SPWF0xSy/wifi_interface.c ****     status = USART_Transmit_AT_Cmd(strlen((char*)WiFi_AT_Cmd_Buff));
 849:Middlewares/ST/STM32_SPWF0xSy/wifi_interface.c ****   #else
 850:Middlewares/ST/STM32_SPWF0xSy/wifi_interface.c ****     //printf("\r\nAT+S.SOCKR");
 851:Middlewares/ST/STM32_SPWF0xSy/wifi_interface.c ****     sprintf((char*)WiFi_AT_Cmd_Buff,"AT+S.SOCKR=%d,%d",WiFi_Counter_Variables.sockon_query_id,DataL
 852:Middlewares/ST/STM32_SPWF0xSy/wifi_interface.c ****     WiFi_Counter_Variables.SockON_Data_Length = DataLength;
 853:Middlewares/ST/STM32_SPWF0xSy/wifi_interface.c ****     run_spi_cmd((char*)WiFi_AT_Cmd_Buff, SPI_POLL);
 854:Middlewares/ST/STM32_SPWF0xSy/wifi_interface.c ****     //@CHECK-TBD!!: Changing AT_event_processing state without checking status flag
 855:Middlewares/ST/STM32_SPWF0xSy/wifi_interface.c ****     IO_status_flag.AT_event_processing = WIFI_CLIENT_SOCKET_READ_DATA;
 856:Middlewares/ST/STM32_SPWF0xSy/wifi_interface.c ****     Start_AT_CMD_Timer();
 857:Middlewares/ST/STM32_SPWF0xSy/wifi_interface.c ****     status = WiFi_MODULE_SUCCESS;//@TBD: Check return error code from run_spi_cmd
 858:Middlewares/ST/STM32_SPWF0xSy/wifi_interface.c ****   #endif
 859:Middlewares/ST/STM32_SPWF0xSy/wifi_interface.c **** 
 860:Middlewares/ST/STM32_SPWF0xSy/wifi_interface.c ****   if(status == WiFi_MODULE_SUCCESS)
 861:Middlewares/ST/STM32_SPWF0xSy/wifi_interface.c ****   {
 862:Middlewares/ST/STM32_SPWF0xSy/wifi_interface.c ****     if(WiFi_Control_Variables.stop_event_dequeue == WIFI_FALSE)
 863:Middlewares/ST/STM32_SPWF0xSy/wifi_interface.c ****         WiFi_Control_Variables.stop_event_dequeue = WIFI_TRUE;
 864:Middlewares/ST/STM32_SPWF0xSy/wifi_interface.c ****    
 865:Middlewares/ST/STM32_SPWF0xSy/wifi_interface.c ****     /* enable the data receive in chunk mode only in spwfsa01 *///--------> TBD->Enable chunk mode 
ARM GAS  D:\cygwin64\tmp\ccGmGipG.s 			page 29


 866:Middlewares/ST/STM32_SPWF0xSy/wifi_interface.c ****     #ifdef SPWF01
 867:Middlewares/ST/STM32_SPWF0xSy/wifi_interface.c ****         WiFi_Counter_Variables.last_process_buffer_index = 5;
 868:Middlewares/ST/STM32_SPWF0xSy/wifi_interface.c ****         WiFi_Control_Variables.enable_receive_data_chunk = WIFI_TRUE;
 869:Middlewares/ST/STM32_SPWF0xSy/wifi_interface.c ****         WiFi_Control_Variables.enable_sock_read = WIFI_TRUE;
 870:Middlewares/ST/STM32_SPWF0xSy/wifi_interface.c ****     #elif defined(SPWF04) && !defined(CONSOLE_UART_ENABLED)
 871:Middlewares/ST/STM32_SPWF0xSy/wifi_interface.c ****         WiFi_Control_Variables.enable_sock_read = WIFI_TRUE;
 872:Middlewares/ST/STM32_SPWF0xSy/wifi_interface.c ****     #endif
 873:Middlewares/ST/STM32_SPWF0xSy/wifi_interface.c **** 
 874:Middlewares/ST/STM32_SPWF0xSy/wifi_interface.c ****   }
 875:Middlewares/ST/STM32_SPWF0xSy/wifi_interface.c ****   return status;
 876:Middlewares/ST/STM32_SPWF0xSy/wifi_interface.c **** }
 877:Middlewares/ST/STM32_SPWF0xSy/wifi_interface.c **** 
 878:Middlewares/ST/STM32_SPWF0xSy/wifi_interface.c **** #ifdef SPWF04
 879:Middlewares/ST/STM32_SPWF0xSy/wifi_interface.c **** /**
 880:Middlewares/ST/STM32_SPWF0xSy/wifi_interface.c **** * @brief  Socket_Server_Read
 881:Middlewares/ST/STM32_SPWF0xSy/wifi_interface.c **** *         Return len bytes of data from socket
 882:Middlewares/ST/STM32_SPWF0xSy/wifi_interface.c **** * @param  DataLength: data length to read
 883:Middlewares/ST/STM32_SPWF0xSy/wifi_interface.c **** * @retval WiFi_Status_t : return status of socket read request
 884:Middlewares/ST/STM32_SPWF0xSy/wifi_interface.c **** */
 885:Middlewares/ST/STM32_SPWF0xSy/wifi_interface.c **** WiFi_Status_t Socket_Server_Read(uint16_t DataLength)
 886:Middlewares/ST/STM32_SPWF0xSy/wifi_interface.c **** {
 887:Middlewares/ST/STM32_SPWF0xSy/wifi_interface.c ****   /* AT+S.SOCKR=01,12<cr> */
 888:Middlewares/ST/STM32_SPWF0xSy/wifi_interface.c ****   WiFi_Status_t status = WiFi_MODULE_SUCCESS;
 889:Middlewares/ST/STM32_SPWF0xSy/wifi_interface.c ****   #if defined(SPWF01) && defined(CONSOLE_UART_ENABLED)
 890:Middlewares/ST/STM32_SPWF0xSy/wifi_interface.c ****     wait_for_command_mode();
 891:Middlewares/ST/STM32_SPWF0xSy/wifi_interface.c ****   #endif
 892:Middlewares/ST/STM32_SPWF0xSy/wifi_interface.c **** 
 893:Middlewares/ST/STM32_SPWF0xSy/wifi_interface.c ****   /* AT+S.SOCKDR=%d,%d,%d<cr> */
 894:Middlewares/ST/STM32_SPWF0xSy/wifi_interface.c ****   sprintf((char*)WiFi_AT_Cmd_Buff,AT_SERVER_SOCKET_READ,WiFi_Counter_Variables.sockdon_query_id, Wi
 895:Middlewares/ST/STM32_SPWF0xSy/wifi_interface.c ****   
 896:Middlewares/ST/STM32_SPWF0xSy/wifi_interface.c ****   #if defined(CONSOLE_UART_ENABLED)
 897:Middlewares/ST/STM32_SPWF0xSy/wifi_interface.c ****     status = USART_Transmit_AT_Cmd(strlen((char*)WiFi_AT_Cmd_Buff));
 898:Middlewares/ST/STM32_SPWF0xSy/wifi_interface.c ****   #else
 899:Middlewares/ST/STM32_SPWF0xSy/wifi_interface.c ****     run_spi_cmd((char*)WiFi_AT_Cmd_Buff, SPI_POLL);
 900:Middlewares/ST/STM32_SPWF0xSy/wifi_interface.c ****     //@CHECK-TBD!!: Changing AT_event_processing state without checking status flag
 901:Middlewares/ST/STM32_SPWF0xSy/wifi_interface.c ****     IO_status_flag.AT_event_processing = WIFI_SERVER_SOCKET_READ_DATA;
 902:Middlewares/ST/STM32_SPWF0xSy/wifi_interface.c ****     Start_AT_CMD_Timer();
 903:Middlewares/ST/STM32_SPWF0xSy/wifi_interface.c ****     status = WiFi_MODULE_SUCCESS;//@TBD: Check return error code from run_spi_cmd
 904:Middlewares/ST/STM32_SPWF0xSy/wifi_interface.c ****   #endif
 905:Middlewares/ST/STM32_SPWF0xSy/wifi_interface.c ****   
 906:Middlewares/ST/STM32_SPWF0xSy/wifi_interface.c ****   if(status == WiFi_MODULE_SUCCESS)
 907:Middlewares/ST/STM32_SPWF0xSy/wifi_interface.c ****   {
 908:Middlewares/ST/STM32_SPWF0xSy/wifi_interface.c ****     WiFi_Control_Variables.stop_event_dequeue = (WiFi_Control_Variables.stop_event_dequeue == WIFI_
 909:Middlewares/ST/STM32_SPWF0xSy/wifi_interface.c ****     WiFi_Counter_Variables.SockON_Data_Length = DataLength;
 910:Middlewares/ST/STM32_SPWF0xSy/wifi_interface.c ****     #if defined(SPWF04) && !defined(CONSOLE_UART_ENABLED)
 911:Middlewares/ST/STM32_SPWF0xSy/wifi_interface.c ****       WiFi_Control_Variables.enable_sock_read = WIFI_TRUE;
 912:Middlewares/ST/STM32_SPWF0xSy/wifi_interface.c ****     #endif
 913:Middlewares/ST/STM32_SPWF0xSy/wifi_interface.c ****   }
 914:Middlewares/ST/STM32_SPWF0xSy/wifi_interface.c ****   return status;
 915:Middlewares/ST/STM32_SPWF0xSy/wifi_interface.c **** }
 916:Middlewares/ST/STM32_SPWF0xSy/wifi_interface.c **** 
 917:Middlewares/ST/STM32_SPWF0xSy/wifi_interface.c **** /**
 918:Middlewares/ST/STM32_SPWF0xSy/wifi_interface.c **** * @brief  Websocket_Read
 919:Middlewares/ST/STM32_SPWF0xSy/wifi_interface.c **** *         Return len bytes of data from socket
 920:Middlewares/ST/STM32_SPWF0xSy/wifi_interface.c **** * @param  DataLength: data length to read
 921:Middlewares/ST/STM32_SPWF0xSy/wifi_interface.c **** * @retval WiFi_Status_t : return status of socket read request
 922:Middlewares/ST/STM32_SPWF0xSy/wifi_interface.c **** */
ARM GAS  D:\cygwin64\tmp\ccGmGipG.s 			page 30


 923:Middlewares/ST/STM32_SPWF0xSy/wifi_interface.c **** WiFi_Status_t Websocket_Read(uint16_t DataLength)
 924:Middlewares/ST/STM32_SPWF0xSy/wifi_interface.c **** {
 925:Middlewares/ST/STM32_SPWF0xSy/wifi_interface.c ****   /* AT+S.WSOCKR=01,12<cr> */
 926:Middlewares/ST/STM32_SPWF0xSy/wifi_interface.c ****   WiFi_Status_t status = WiFi_MODULE_SUCCESS;
 927:Middlewares/ST/STM32_SPWF0xSy/wifi_interface.c **** 
 928:Middlewares/ST/STM32_SPWF0xSy/wifi_interface.c **** #if defined(CONSOLE_UART_ENABLED)
 929:Middlewares/ST/STM32_SPWF0xSy/wifi_interface.c ****   sprintf((char*)WiFi_AT_Cmd_Buff,AT_WEB_SOCKET_READ,WiFi_Counter_Variables.sockon_query_id,DataLen
 930:Middlewares/ST/STM32_SPWF0xSy/wifi_interface.c ****   status = USART_Transmit_AT_Cmd(strlen((char*)WiFi_AT_Cmd_Buff));
 931:Middlewares/ST/STM32_SPWF0xSy/wifi_interface.c **** #else
 932:Middlewares/ST/STM32_SPWF0xSy/wifi_interface.c ****   //printf("\r\nAT+S.SOCKR");
 933:Middlewares/ST/STM32_SPWF0xSy/wifi_interface.c ****   sprintf((char*)WiFi_AT_Cmd_Buff,"AT+S.WSOCKR=%d,%d",WiFi_Counter_Variables.sockon_query_id,DataLe
 934:Middlewares/ST/STM32_SPWF0xSy/wifi_interface.c ****   run_spi_cmd((char*)WiFi_AT_Cmd_Buff, SPI_POLL);
 935:Middlewares/ST/STM32_SPWF0xSy/wifi_interface.c ****   //@CHECK-TBD!!: Changing AT_event_processing state without checking status flag
 936:Middlewares/ST/STM32_SPWF0xSy/wifi_interface.c ****   IO_status_flag.AT_event_processing = WIFI_CLIENT_WEB_SOCKET_READ_DATA;
 937:Middlewares/ST/STM32_SPWF0xSy/wifi_interface.c ****   Start_AT_CMD_Timer();
 938:Middlewares/ST/STM32_SPWF0xSy/wifi_interface.c ****   status = WiFi_MODULE_SUCCESS;//@TBD: Check return error code from run_spi_cmd
 939:Middlewares/ST/STM32_SPWF0xSy/wifi_interface.c **** #endif
 940:Middlewares/ST/STM32_SPWF0xSy/wifi_interface.c ****   if(status == WiFi_MODULE_SUCCESS)
 941:Middlewares/ST/STM32_SPWF0xSy/wifi_interface.c ****   {
 942:Middlewares/ST/STM32_SPWF0xSy/wifi_interface.c ****     if(WiFi_Control_Variables.stop_event_dequeue == WIFI_FALSE)
 943:Middlewares/ST/STM32_SPWF0xSy/wifi_interface.c ****         WiFi_Control_Variables.stop_event_dequeue = WIFI_TRUE;
 944:Middlewares/ST/STM32_SPWF0xSy/wifi_interface.c ****     WiFi_Counter_Variables.SockON_Data_Length = DataLength;
 945:Middlewares/ST/STM32_SPWF0xSy/wifi_interface.c ****     
 946:Middlewares/ST/STM32_SPWF0xSy/wifi_interface.c ****     /* enable sock_read for SPI only */
 947:Middlewares/ST/STM32_SPWF0xSy/wifi_interface.c ****     #if defined(SPWF04) && !defined(CONSOLE_UART_ENABLED)
 948:Middlewares/ST/STM32_SPWF0xSy/wifi_interface.c ****         WiFi_Control_Variables.enable_sock_read = WIFI_TRUE;
 949:Middlewares/ST/STM32_SPWF0xSy/wifi_interface.c ****     #endif
 950:Middlewares/ST/STM32_SPWF0xSy/wifi_interface.c ****    
 951:Middlewares/ST/STM32_SPWF0xSy/wifi_interface.c ****     /* enable the data receive in chunk mode only in spwfsa01 *///--------> TBD->Enable chunk mode 
 952:Middlewares/ST/STM32_SPWF0xSy/wifi_interface.c **** #ifdef SPWF01
 953:Middlewares/ST/STM32_SPWF0xSy/wifi_interface.c ****     WiFi_Counter_Variables.last_process_buffer_index = 5;
 954:Middlewares/ST/STM32_SPWF0xSy/wifi_interface.c ****     WiFi_Control_Variables.enable_receive_data_chunk = WIFI_TRUE;
 955:Middlewares/ST/STM32_SPWF0xSy/wifi_interface.c **** #else
 956:Middlewares/ST/STM32_SPWF0xSy/wifi_interface.c ****     WiFi_Counter_Variables.last_process_buffer_index = 10;
 957:Middlewares/ST/STM32_SPWF0xSy/wifi_interface.c **** #endif
 958:Middlewares/ST/STM32_SPWF0xSy/wifi_interface.c **** 
 959:Middlewares/ST/STM32_SPWF0xSy/wifi_interface.c ****   }
 960:Middlewares/ST/STM32_SPWF0xSy/wifi_interface.c ****   return status;
 961:Middlewares/ST/STM32_SPWF0xSy/wifi_interface.c **** }
 962:Middlewares/ST/STM32_SPWF0xSy/wifi_interface.c **** #endif
 963:Middlewares/ST/STM32_SPWF0xSy/wifi_interface.c **** 
 964:Middlewares/ST/STM32_SPWF0xSy/wifi_interface.c **** /**
 965:Middlewares/ST/STM32_SPWF0xSy/wifi_interface.c **** * @brief  wifi_socket_client_close
 966:Middlewares/ST/STM32_SPWF0xSy/wifi_interface.c **** *         The SOCKC command allows to close socket
 967:Middlewares/ST/STM32_SPWF0xSy/wifi_interface.c **** * @param  sock_close_id the socket ID of the socket which needs to be closed.
 968:Middlewares/ST/STM32_SPWF0xSy/wifi_interface.c **** * @retval WiFi_Status_t : return status of socket close request
 969:Middlewares/ST/STM32_SPWF0xSy/wifi_interface.c **** */
 970:Middlewares/ST/STM32_SPWF0xSy/wifi_interface.c **** WiFi_Status_t wifi_socket_client_close(uint8_t sock_close_id)
 971:Middlewares/ST/STM32_SPWF0xSy/wifi_interface.c **** {
 716              		.loc 1 971 0 is_stmt 1
 717              		.cfi_startproc
 718              		@ args = 0, pretend = 0, frame = 0
 719              		@ frame_needed = 0, uses_anonymous_args = 0
 720              	.LVL97:
 721 0000 08B5     		push	{r3, lr}
 722              	.LCFI11:
 723              		.cfi_def_cfa_offset 8
ARM GAS  D:\cygwin64\tmp\ccGmGipG.s 			page 31


 724              		.cfi_offset 3, -8
 725              		.cfi_offset 14, -4
 726              	.LVL98:
 972:Middlewares/ST/STM32_SPWF0xSy/wifi_interface.c ****   WiFi_Status_t status = WiFi_MODULE_SUCCESS;
 973:Middlewares/ST/STM32_SPWF0xSy/wifi_interface.c ****   /* User is asking for a socket close, no need for callback. */
 974:Middlewares/ST/STM32_SPWF0xSy/wifi_interface.c ****   
 975:Middlewares/ST/STM32_SPWF0xSy/wifi_interface.c ****   #if defined(SPWF01)
 976:Middlewares/ST/STM32_SPWF0xSy/wifi_interface.c ****     WiFi_Control_Variables.enable_SockON_Server_Closed_Callback = WIFI_FALSE;
 727              		.loc 1 976 0
 728 0002 074B     		ldr	r3, .L71
 729 0004 9A79     		ldrb	r2, [r3, #6]	@ zero_extendqisi2
 730 0006 6FF38202 		bfc	r2, #2, #1
 731 000a 9A71     		strb	r2, [r3, #6]
 977:Middlewares/ST/STM32_SPWF0xSy/wifi_interface.c ****   #else
 978:Middlewares/ST/STM32_SPWF0xSy/wifi_interface.c ****     Client_Socket_Close_Callback[sock_close_id] = WIFI_FALSE;
 979:Middlewares/ST/STM32_SPWF0xSy/wifi_interface.c ****   #endif
 980:Middlewares/ST/STM32_SPWF0xSy/wifi_interface.c ****   if(open_sockets[sock_close_id])
 732              		.loc 1 980 0
 733 000c 054B     		ldr	r3, .L71+4
 734 000e 1B5C     		ldrb	r3, [r3, r0]	@ zero_extendqisi2
 735 0010 0BB9     		cbnz	r3, .L70
 981:Middlewares/ST/STM32_SPWF0xSy/wifi_interface.c ****   {
 982:Middlewares/ST/STM32_SPWF0xSy/wifi_interface.c ****     Queue_Client_Close_Event(sock_close_id, NET_SOCKET);
 983:Middlewares/ST/STM32_SPWF0xSy/wifi_interface.c ****     return status;
 984:Middlewares/ST/STM32_SPWF0xSy/wifi_interface.c ****   }
 985:Middlewares/ST/STM32_SPWF0xSy/wifi_interface.c ****   else
 986:Middlewares/ST/STM32_SPWF0xSy/wifi_interface.c ****     return WiFi_MODULE_ERROR;
 736              		.loc 1 986 0
 737 0012 0220     		movs	r0, #2
 738              	.LVL99:
 987:Middlewares/ST/STM32_SPWF0xSy/wifi_interface.c **** }
 739              		.loc 1 987 0
 740 0014 08BD     		pop	{r3, pc}
 741              	.LVL100:
 742              	.L70:
 982:Middlewares/ST/STM32_SPWF0xSy/wifi_interface.c ****     return status;
 743              		.loc 1 982 0
 744 0016 0221     		movs	r1, #2
 745 0018 FFF7FEFF 		bl	Queue_Client_Close_Event
 746              	.LVL101:
 983:Middlewares/ST/STM32_SPWF0xSy/wifi_interface.c ****   }
 747              		.loc 1 983 0
 748 001c 0020     		movs	r0, #0
 749 001e 08BD     		pop	{r3, pc}
 750              	.L72:
 751              		.align	2
 752              	.L71:
 753 0020 00000000 		.word	WiFi_Control_Variables
 754 0024 00000000 		.word	open_sockets
 755              		.cfi_endproc
 756              	.LFE285:
 758              		.section	.text.wifi_socket_server_open,"ax",%progbits
 759              		.align	1
 760              		.global	wifi_socket_server_open
 761              		.syntax unified
 762              		.thumb
 763              		.thumb_func
ARM GAS  D:\cygwin64\tmp\ccGmGipG.s 			page 32


 764              		.fpu fpv4-sp-d16
 766              	wifi_socket_server_open:
 767              	.LFB287:
 988:Middlewares/ST/STM32_SPWF0xSy/wifi_interface.c **** 
 989:Middlewares/ST/STM32_SPWF0xSy/wifi_interface.c **** /**
 990:Middlewares/ST/STM32_SPWF0xSy/wifi_interface.c **** * @brief  Socket_Pending_Data
 991:Middlewares/ST/STM32_SPWF0xSy/wifi_interface.c **** *         Query pending data.It will returns the number of bytes of data waiting on socket
 992:Middlewares/ST/STM32_SPWF0xSy/wifi_interface.c **** * @param None
 993:Middlewares/ST/STM32_SPWF0xSy/wifi_interface.c **** * @retval uint8_t :number of bytes of data waiting on socket
 994:Middlewares/ST/STM32_SPWF0xSy/wifi_interface.c **** */
 995:Middlewares/ST/STM32_SPWF0xSy/wifi_interface.c **** void Socket_Pending_Data()
 996:Middlewares/ST/STM32_SPWF0xSy/wifi_interface.c **** {
 997:Middlewares/ST/STM32_SPWF0xSy/wifi_interface.c ****   /* AT+S.SOCKQ=01<cr> */
 998:Middlewares/ST/STM32_SPWF0xSy/wifi_interface.c ****   Reset_AT_CMD_Buffer();
 999:Middlewares/ST/STM32_SPWF0xSy/wifi_interface.c ****   
1000:Middlewares/ST/STM32_SPWF0xSy/wifi_interface.c ****   #if defined(SPWF01)
1001:Middlewares/ST/STM32_SPWF0xSy/wifi_interface.c ****     wait_for_command_mode();
1002:Middlewares/ST/STM32_SPWF0xSy/wifi_interface.c ****   #endif
1003:Middlewares/ST/STM32_SPWF0xSy/wifi_interface.c ****   
1004:Middlewares/ST/STM32_SPWF0xSy/wifi_interface.c ****   if(open_sockets[WiFi_Counter_Variables.sockon_query_id])
1005:Middlewares/ST/STM32_SPWF0xSy/wifi_interface.c ****     {
1006:Middlewares/ST/STM32_SPWF0xSy/wifi_interface.c ****       if(WiFi_Control_Variables.stop_event_dequeue == WIFI_FALSE)
1007:Middlewares/ST/STM32_SPWF0xSy/wifi_interface.c ****         WiFi_Control_Variables.stop_event_dequeue = WIFI_TRUE;
1008:Middlewares/ST/STM32_SPWF0xSy/wifi_interface.c ****       
1009:Middlewares/ST/STM32_SPWF0xSy/wifi_interface.c ****       #if defined(CONSOLE_UART_ENABLED)
1010:Middlewares/ST/STM32_SPWF0xSy/wifi_interface.c ****         sprintf((char*)WiFi_AT_Cmd_Buff,AT_QUERY_PENDING_DATA,WiFi_Counter_Variables.sockon_query_i
1011:Middlewares/ST/STM32_SPWF0xSy/wifi_interface.c ****         USART_Transmit_AT_Cmd(strlen((char*)WiFi_AT_Cmd_Buff));
1012:Middlewares/ST/STM32_SPWF0xSy/wifi_interface.c ****       #else
1013:Middlewares/ST/STM32_SPWF0xSy/wifi_interface.c ****         //printf("\r\nAT+S.SOCKQ");
1014:Middlewares/ST/STM32_SPWF0xSy/wifi_interface.c ****         sprintf((char*)WiFi_AT_Cmd_Buff,"AT+S.SOCKQ=%d",WiFi_Counter_Variables.sockon_query_id);   
1015:Middlewares/ST/STM32_SPWF0xSy/wifi_interface.c ****         run_spi_cmd((char*)WiFi_AT_Cmd_Buff, SPI_POLL);
1016:Middlewares/ST/STM32_SPWF0xSy/wifi_interface.c ****         //@CHECK-TBD!!: Changing AT_event_processing state without checking status flag
1017:Middlewares/ST/STM32_SPWF0xSy/wifi_interface.c ****         IO_status_flag.AT_event_processing = WIFI_CLIENT_SOCKET_QUERY_EVENT;
1018:Middlewares/ST/STM32_SPWF0xSy/wifi_interface.c ****         Start_AT_CMD_Timer();
1019:Middlewares/ST/STM32_SPWF0xSy/wifi_interface.c ****         //status = WiFi_MODULE_SUCCESS;//@TBD: Check return error code from run_spi_cmd
1020:Middlewares/ST/STM32_SPWF0xSy/wifi_interface.c ****       #endif
1021:Middlewares/ST/STM32_SPWF0xSy/wifi_interface.c ****       
1022:Middlewares/ST/STM32_SPWF0xSy/wifi_interface.c ****       #ifndef CONSOLE_UART_ENABLED
1023:Middlewares/ST/STM32_SPWF0xSy/wifi_interface.c ****         //prevent the OK received after socket close command to be Q'ed
1024:Middlewares/ST/STM32_SPWF0xSy/wifi_interface.c ****         IO_status_flag.prevent_push_OK_event       = WIFI_TRUE;
1025:Middlewares/ST/STM32_SPWF0xSy/wifi_interface.c ****       #endif
1026:Middlewares/ST/STM32_SPWF0xSy/wifi_interface.c ****     }
1027:Middlewares/ST/STM32_SPWF0xSy/wifi_interface.c **** }
1028:Middlewares/ST/STM32_SPWF0xSy/wifi_interface.c **** 
1029:Middlewares/ST/STM32_SPWF0xSy/wifi_interface.c **** #ifdef SPWF04
1030:Middlewares/ST/STM32_SPWF0xSy/wifi_interface.c **** /**
1031:Middlewares/ST/STM32_SPWF0xSy/wifi_interface.c **** * @brief  Server_Pending_Data
1032:Middlewares/ST/STM32_SPWF0xSy/wifi_interface.c **** *         Query pending data.It will returns the number of bytes of data waiting on socket
1033:Middlewares/ST/STM32_SPWF0xSy/wifi_interface.c **** * @param  None
1034:Middlewares/ST/STM32_SPWF0xSy/wifi_interface.c **** * @retval void
1035:Middlewares/ST/STM32_SPWF0xSy/wifi_interface.c **** */
1036:Middlewares/ST/STM32_SPWF0xSy/wifi_interface.c **** void Server_Pending_Data()
1037:Middlewares/ST/STM32_SPWF0xSy/wifi_interface.c **** {
1038:Middlewares/ST/STM32_SPWF0xSy/wifi_interface.c ****   /* "AT+S.SOCKDQ=%d,%d\r" */
1039:Middlewares/ST/STM32_SPWF0xSy/wifi_interface.c ****   Reset_AT_CMD_Buffer();
1040:Middlewares/ST/STM32_SPWF0xSy/wifi_interface.c **** 
1041:Middlewares/ST/STM32_SPWF0xSy/wifi_interface.c ****   #if defined(SPWF01) && defined(CONSOLE_UART_ENABLED)
ARM GAS  D:\cygwin64\tmp\ccGmGipG.s 			page 33


1042:Middlewares/ST/STM32_SPWF0xSy/wifi_interface.c ****     wait_for_command_mode();
1043:Middlewares/ST/STM32_SPWF0xSy/wifi_interface.c ****   #endif
1044:Middlewares/ST/STM32_SPWF0xSy/wifi_interface.c **** 
1045:Middlewares/ST/STM32_SPWF0xSy/wifi_interface.c ****   if(open_server_sockets[WiFi_Counter_Variables.sockdon_query_id])
1046:Middlewares/ST/STM32_SPWF0xSy/wifi_interface.c ****   {
1047:Middlewares/ST/STM32_SPWF0xSy/wifi_interface.c ****     if(WiFi_Control_Variables.stop_event_dequeue == WIFI_FALSE)
1048:Middlewares/ST/STM32_SPWF0xSy/wifi_interface.c ****       WiFi_Control_Variables.stop_event_dequeue = WIFI_TRUE;
1049:Middlewares/ST/STM32_SPWF0xSy/wifi_interface.c ****     #if defined(CONSOLE_UART_ENABLED)
1050:Middlewares/ST/STM32_SPWF0xSy/wifi_interface.c ****       sprintf((char*)WiFi_AT_Cmd_Buff,AT_SERVER_SOCKET_QUERY,WiFi_Counter_Variables.sockdon_query_i
1051:Middlewares/ST/STM32_SPWF0xSy/wifi_interface.c ****       USART_Transmit_AT_Cmd(strlen((char*)WiFi_AT_Cmd_Buff));
1052:Middlewares/ST/STM32_SPWF0xSy/wifi_interface.c ****     #else
1053:Middlewares/ST/STM32_SPWF0xSy/wifi_interface.c ****       sprintf((char*)WiFi_AT_Cmd_Buff,"AT+S.SOCKDQ=%d,%d",WiFi_Counter_Variables.sockdon_query_id, 
1054:Middlewares/ST/STM32_SPWF0xSy/wifi_interface.c ****       run_spi_cmd((char*)WiFi_AT_Cmd_Buff, SPI_POLL);
1055:Middlewares/ST/STM32_SPWF0xSy/wifi_interface.c ****       //@CHECK-TBD!!: Changing AT_event_processing state without checking status flag
1056:Middlewares/ST/STM32_SPWF0xSy/wifi_interface.c ****       IO_status_flag.AT_event_processing = WIFI_SERVER_SOCKET_QUERY_EVENT;
1057:Middlewares/ST/STM32_SPWF0xSy/wifi_interface.c ****       Start_AT_CMD_Timer();
1058:Middlewares/ST/STM32_SPWF0xSy/wifi_interface.c ****       //status = WiFi_MODULE_SUCCESS;//@TBD: Check return error code from run_spi_cmd
1059:Middlewares/ST/STM32_SPWF0xSy/wifi_interface.c ****     #endif
1060:Middlewares/ST/STM32_SPWF0xSy/wifi_interface.c ****     #ifndef CONSOLE_UART_ENABLED
1061:Middlewares/ST/STM32_SPWF0xSy/wifi_interface.c ****       //prevent the OK received after socket close command to be Q'ed
1062:Middlewares/ST/STM32_SPWF0xSy/wifi_interface.c ****       IO_status_flag.prevent_push_OK_event       = WIFI_TRUE;
1063:Middlewares/ST/STM32_SPWF0xSy/wifi_interface.c ****     #endif
1064:Middlewares/ST/STM32_SPWF0xSy/wifi_interface.c ****   }
1065:Middlewares/ST/STM32_SPWF0xSy/wifi_interface.c **** }
1066:Middlewares/ST/STM32_SPWF0xSy/wifi_interface.c **** 
1067:Middlewares/ST/STM32_SPWF0xSy/wifi_interface.c **** /**
1068:Middlewares/ST/STM32_SPWF0xSy/wifi_interface.c **** * @brief  Websocket_Pending_Data
1069:Middlewares/ST/STM32_SPWF0xSy/wifi_interface.c **** *         Query pending data.It will returns the number of bytes of data waiting on websocket
1070:Middlewares/ST/STM32_SPWF0xSy/wifi_interface.c **** * @param  None
1071:Middlewares/ST/STM32_SPWF0xSy/wifi_interface.c **** * @retval void
1072:Middlewares/ST/STM32_SPWF0xSy/wifi_interface.c **** */
1073:Middlewares/ST/STM32_SPWF0xSy/wifi_interface.c **** void Websocket_Pending_Data()
1074:Middlewares/ST/STM32_SPWF0xSy/wifi_interface.c **** {
1075:Middlewares/ST/STM32_SPWF0xSy/wifi_interface.c ****   /* "AT+S.WSOCKDQ=%d,%d\r" */
1076:Middlewares/ST/STM32_SPWF0xSy/wifi_interface.c ****   Reset_AT_CMD_Buffer();
1077:Middlewares/ST/STM32_SPWF0xSy/wifi_interface.c **** 
1078:Middlewares/ST/STM32_SPWF0xSy/wifi_interface.c ****   //if(open_server_sockets[WiFi_Counter_Variables.sockdon_query_id])
1079:Middlewares/ST/STM32_SPWF0xSy/wifi_interface.c ****     {
1080:Middlewares/ST/STM32_SPWF0xSy/wifi_interface.c ****       if(WiFi_Control_Variables.stop_event_dequeue == WIFI_FALSE)
1081:Middlewares/ST/STM32_SPWF0xSy/wifi_interface.c ****         WiFi_Control_Variables.stop_event_dequeue = WIFI_TRUE;
1082:Middlewares/ST/STM32_SPWF0xSy/wifi_interface.c ****       #if defined(CONSOLE_UART_ENABLED)
1083:Middlewares/ST/STM32_SPWF0xSy/wifi_interface.c ****       sprintf((char*)WiFi_AT_Cmd_Buff,AT_WEB_SOCKET_QUERY,WiFi_Counter_Variables.sockon_query_id); 
1084:Middlewares/ST/STM32_SPWF0xSy/wifi_interface.c ****       USART_Transmit_AT_Cmd(strlen((char*)WiFi_AT_Cmd_Buff));
1085:Middlewares/ST/STM32_SPWF0xSy/wifi_interface.c ****       #else
1086:Middlewares/ST/STM32_SPWF0xSy/wifi_interface.c ****       sprintf((char*)WiFi_AT_Cmd_Buff,"AT+S.WSOCKQ=%d",WiFi_Counter_Variables.sockon_query_id);    
1087:Middlewares/ST/STM32_SPWF0xSy/wifi_interface.c ****       run_spi_cmd((char*)WiFi_AT_Cmd_Buff, SPI_POLL);
1088:Middlewares/ST/STM32_SPWF0xSy/wifi_interface.c ****       //@CHECK-TBD!!: Changing AT_event_processing state without checking status flag
1089:Middlewares/ST/STM32_SPWF0xSy/wifi_interface.c ****       IO_status_flag.AT_event_processing = WIFI_CLIENT_WEB_SOCKET_QUERY_EVENT;
1090:Middlewares/ST/STM32_SPWF0xSy/wifi_interface.c ****       Start_AT_CMD_Timer();
1091:Middlewares/ST/STM32_SPWF0xSy/wifi_interface.c ****       //status = WiFi_MODULE_SUCCESS;//@TBD: Check return error code from run_spi_cmd
1092:Middlewares/ST/STM32_SPWF0xSy/wifi_interface.c ****       #endif
1093:Middlewares/ST/STM32_SPWF0xSy/wifi_interface.c **** #ifndef CONSOLE_UART_ENABLED
1094:Middlewares/ST/STM32_SPWF0xSy/wifi_interface.c ****         //prevent the OK received after socket close command to be Q'ed
1095:Middlewares/ST/STM32_SPWF0xSy/wifi_interface.c ****         IO_status_flag.prevent_push_OK_event       = WIFI_TRUE;
1096:Middlewares/ST/STM32_SPWF0xSy/wifi_interface.c **** #endif
1097:Middlewares/ST/STM32_SPWF0xSy/wifi_interface.c ****     }
1098:Middlewares/ST/STM32_SPWF0xSy/wifi_interface.c **** }
ARM GAS  D:\cygwin64\tmp\ccGmGipG.s 			page 34


1099:Middlewares/ST/STM32_SPWF0xSy/wifi_interface.c **** #endif
1100:Middlewares/ST/STM32_SPWF0xSy/wifi_interface.c **** 
1101:Middlewares/ST/STM32_SPWF0xSy/wifi_interface.c **** /**
1102:Middlewares/ST/STM32_SPWF0xSy/wifi_interface.c **** * @brief  wifi_socket_server_open
1103:Middlewares/ST/STM32_SPWF0xSy/wifi_interface.c **** *         Open a Server socket
1104:Middlewares/ST/STM32_SPWF0xSy/wifi_interface.c **** * @param  port_number: port number to connect to
1105:Middlewares/ST/STM32_SPWF0xSy/wifi_interface.c **** * @retval WiFi_Status_t : return status of server socket request
1106:Middlewares/ST/STM32_SPWF0xSy/wifi_interface.c **** */
1107:Middlewares/ST/STM32_SPWF0xSy/wifi_interface.c **** #ifdef SPWF04
1108:Middlewares/ST/STM32_SPWF0xSy/wifi_interface.c **** WiFi_Status_t wifi_socket_server_open(uint32_t port_number, uint8_t *protocol, uint8_t *sock_id)
1109:Middlewares/ST/STM32_SPWF0xSy/wifi_interface.c **** {
1110:Middlewares/ST/STM32_SPWF0xSy/wifi_interface.c ****   WiFi_Status_t status = WiFi_MODULE_SUCCESS;
1111:Middlewares/ST/STM32_SPWF0xSy/wifi_interface.c **** 
1112:Middlewares/ST/STM32_SPWF0xSy/wifi_interface.c ****   Queue_Server_Open_Event(port_number,protocol);
1113:Middlewares/ST/STM32_SPWF0xSy/wifi_interface.c ****   status = USART_Receive_AT_Resp( );
1114:Middlewares/ST/STM32_SPWF0xSy/wifi_interface.c ****   *sock_id = WiFi_Counter_Variables.Server_Socket_Open_ID; //return the socket id to the user
1115:Middlewares/ST/STM32_SPWF0xSy/wifi_interface.c ****   return status;
1116:Middlewares/ST/STM32_SPWF0xSy/wifi_interface.c **** }
1117:Middlewares/ST/STM32_SPWF0xSy/wifi_interface.c **** #else
1118:Middlewares/ST/STM32_SPWF0xSy/wifi_interface.c **** WiFi_Status_t wifi_socket_server_open(uint32_t port_number, uint8_t * protocol)
1119:Middlewares/ST/STM32_SPWF0xSy/wifi_interface.c **** {
 768              		.loc 1 1119 0
 769              		.cfi_startproc
 770              		@ args = 0, pretend = 0, frame = 0
 771              		@ frame_needed = 0, uses_anonymous_args = 0
 772              	.LVL102:
 773 0000 08B5     		push	{r3, lr}
 774              	.LCFI12:
 775              		.cfi_def_cfa_offset 8
 776              		.cfi_offset 3, -8
 777              		.cfi_offset 14, -4
 778              	.LVL103:
1120:Middlewares/ST/STM32_SPWF0xSy/wifi_interface.c ****   WiFi_Status_t status = WiFi_MODULE_SUCCESS;
1121:Middlewares/ST/STM32_SPWF0xSy/wifi_interface.c **** 
1122:Middlewares/ST/STM32_SPWF0xSy/wifi_interface.c ****   Queue_Server_Open_Event(port_number,protocol);
 779              		.loc 1 1122 0
 780 0002 FFF7FEFF 		bl	Queue_Server_Open_Event
 781              	.LVL104:
1123:Middlewares/ST/STM32_SPWF0xSy/wifi_interface.c ****   status = USART_Receive_AT_Resp( );
 782              		.loc 1 1123 0
 783 0006 FFF7FEFF 		bl	USART_Receive_AT_Resp
 784              	.LVL105:
1124:Middlewares/ST/STM32_SPWF0xSy/wifi_interface.c **** 
1125:Middlewares/ST/STM32_SPWF0xSy/wifi_interface.c ****   return status;
1126:Middlewares/ST/STM32_SPWF0xSy/wifi_interface.c **** }
 785              		.loc 1 1126 0
 786 000a 08BD     		pop	{r3, pc}
 787              		.cfi_endproc
 788              	.LFE287:
 790              		.section	.text.wifi_socket_server_close,"ax",%progbits
 791              		.align	1
 792              		.global	wifi_socket_server_close
 793              		.syntax unified
 794              		.thumb
 795              		.thumb_func
 796              		.fpu fpv4-sp-d16
 798              	wifi_socket_server_close:
ARM GAS  D:\cygwin64\tmp\ccGmGipG.s 			page 35


 799              	.LFB289:
1127:Middlewares/ST/STM32_SPWF0xSy/wifi_interface.c **** 
1128:Middlewares/ST/STM32_SPWF0xSy/wifi_interface.c **** #endif
1129:Middlewares/ST/STM32_SPWF0xSy/wifi_interface.c **** 
1130:Middlewares/ST/STM32_SPWF0xSy/wifi_interface.c **** /**
1131:Middlewares/ST/STM32_SPWF0xSy/wifi_interface.c **** * @brief  wifi_socket_server_write
1132:Middlewares/ST/STM32_SPWF0xSy/wifi_interface.c **** *         Write to a Server socket
1133:Middlewares/ST/STM32_SPWF0xSy/wifi_interface.c **** * @param  server_id 
1134:Middlewares/ST/STM32_SPWF0xSy/wifi_interface.c **** *         client_id
1135:Middlewares/ST/STM32_SPWF0xSy/wifi_interface.c **** *         Datalength
1136:Middlewares/ST/STM32_SPWF0xSy/wifi_interface.c **** * @retval WiFi_Status_t : return status of server socket request
1137:Middlewares/ST/STM32_SPWF0xSy/wifi_interface.c **** */
1138:Middlewares/ST/STM32_SPWF0xSy/wifi_interface.c **** #ifdef SPWF04
1139:Middlewares/ST/STM32_SPWF0xSy/wifi_interface.c **** WiFi_Status_t wifi_socket_server_write(uint8_t server_id, uint8_t client_id, uint32_t DataLength,ch
1140:Middlewares/ST/STM32_SPWF0xSy/wifi_interface.c **** {
1141:Middlewares/ST/STM32_SPWF0xSy/wifi_interface.c ****   /* AT+S.SOCKW=00,11<cr> */
1142:Middlewares/ST/STM32_SPWF0xSy/wifi_interface.c ****   WiFi_Status_t status = WiFi_MODULE_SUCCESS;
1143:Middlewares/ST/STM32_SPWF0xSy/wifi_interface.c **** 
1144:Middlewares/ST/STM32_SPWF0xSy/wifi_interface.c ****   //Check if sock_id is open
1145:Middlewares/ST/STM32_SPWF0xSy/wifi_interface.c ****   if(!open_server_sockets[server_id])
1146:Middlewares/ST/STM32_SPWF0xSy/wifi_interface.c ****     return WiFi_NOT_READY;
1147:Middlewares/ST/STM32_SPWF0xSy/wifi_interface.c **** 
1148:Middlewares/ST/STM32_SPWF0xSy/wifi_interface.c ****   if(DataLength<=0 && DataLength > WiFi_Counter_Variables.wifi_socket_write_limit)
1149:Middlewares/ST/STM32_SPWF0xSy/wifi_interface.c ****     return WiFi_NOT_SUPPORTED;
1150:Middlewares/ST/STM32_SPWF0xSy/wifi_interface.c **** 
1151:Middlewares/ST/STM32_SPWF0xSy/wifi_interface.c ****   Queue_Server_Write_Event(server_id, client_id, DataLength,Data);
1152:Middlewares/ST/STM32_SPWF0xSy/wifi_interface.c ****   status = USART_Receive_AT_Resp( );
1153:Middlewares/ST/STM32_SPWF0xSy/wifi_interface.c ****   return status;
1154:Middlewares/ST/STM32_SPWF0xSy/wifi_interface.c **** }
1155:Middlewares/ST/STM32_SPWF0xSy/wifi_interface.c **** #else
1156:Middlewares/ST/STM32_SPWF0xSy/wifi_interface.c **** 
1157:Middlewares/ST/STM32_SPWF0xSy/wifi_interface.c **** WiFi_Status_t wifi_socket_server_write(uint32_t DataLength,char * Data) 
1158:Middlewares/ST/STM32_SPWF0xSy/wifi_interface.c **** {
1159:Middlewares/ST/STM32_SPWF0xSy/wifi_interface.c ****   WiFi_Status_t status = WiFi_MODULE_SUCCESS;
1160:Middlewares/ST/STM32_SPWF0xSy/wifi_interface.c ****   /* Can only write if there is a client connected */
1161:Middlewares/ST/STM32_SPWF0xSy/wifi_interface.c ****   if(!wifi_client_connected)
1162:Middlewares/ST/STM32_SPWF0xSy/wifi_interface.c ****     return WiFi_NOT_READY;
1163:Middlewares/ST/STM32_SPWF0xSy/wifi_interface.c ****   
1164:Middlewares/ST/STM32_SPWF0xSy/wifi_interface.c ****   if(DataLength <= 0 && DataLength > WiFi_Counter_Variables.wifi_socket_write_limit)
1165:Middlewares/ST/STM32_SPWF0xSy/wifi_interface.c ****     return WiFi_MODULE_ERROR;
1166:Middlewares/ST/STM32_SPWF0xSy/wifi_interface.c **** 
1167:Middlewares/ST/STM32_SPWF0xSy/wifi_interface.c ****   wait_for_command_mode(); 
1168:Middlewares/ST/STM32_SPWF0xSy/wifi_interface.c ****     
1169:Middlewares/ST/STM32_SPWF0xSy/wifi_interface.c ****   __disable_irq();
1170:Middlewares/ST/STM32_SPWF0xSy/wifi_interface.c **** 
1171:Middlewares/ST/STM32_SPWF0xSy/wifi_interface.c ****   WiFi_Control_Variables.do_not_reset_push_WIFI_event = WIFI_TRUE;
1172:Middlewares/ST/STM32_SPWF0xSy/wifi_interface.c ****   WiFi_Control_Variables.prevent_push_WIFI_event = WIFI_TRUE;
1173:Middlewares/ST/STM32_SPWF0xSy/wifi_interface.c ****   __enable_irq();
1174:Middlewares/ST/STM32_SPWF0xSy/wifi_interface.c **** 
1175:Middlewares/ST/STM32_SPWF0xSy/wifi_interface.c ****   while(IO_status_flag.sock_read_ongoing || IO_status_flag.WIND64_count!= 0)//wait till any pending
1176:Middlewares/ST/STM32_SPWF0xSy/wifi_interface.c ****     {
1177:Middlewares/ST/STM32_SPWF0xSy/wifi_interface.c ****       __NOP(); //nothing to do
1178:Middlewares/ST/STM32_SPWF0xSy/wifi_interface.c ****     }
1179:Middlewares/ST/STM32_SPWF0xSy/wifi_interface.c **** 
1180:Middlewares/ST/STM32_SPWF0xSy/wifi_interface.c ****   /*to make sure that by default the mode is not switched to command mode from data mode*/
1181:Middlewares/ST/STM32_SPWF0xSy/wifi_interface.c ****   WiFi_Control_Variables.switch_by_default_to_command_mode = WIFI_FALSE;
1182:Middlewares/ST/STM32_SPWF0xSy/wifi_interface.c **** 
ARM GAS  D:\cygwin64\tmp\ccGmGipG.s 			page 36


1183:Middlewares/ST/STM32_SPWF0xSy/wifi_interface.c ****   /*Switch to Data Mode first*/
1184:Middlewares/ST/STM32_SPWF0xSy/wifi_interface.c ****   if(!IO_status_flag.data_mode)
1185:Middlewares/ST/STM32_SPWF0xSy/wifi_interface.c ****     {
1186:Middlewares/ST/STM32_SPWF0xSy/wifi_interface.c ****       WiFi_switch_to_data_mode();//switch by default
1187:Middlewares/ST/STM32_SPWF0xSy/wifi_interface.c ****       while(!IO_status_flag.data_mode && wifi_client_connected)
1188:Middlewares/ST/STM32_SPWF0xSy/wifi_interface.c ****         {
1189:Middlewares/ST/STM32_SPWF0xSy/wifi_interface.c ****           //Wait till data_mode is active
1190:Middlewares/ST/STM32_SPWF0xSy/wifi_interface.c ****           __NOP(); //nothing to do
1191:Middlewares/ST/STM32_SPWF0xSy/wifi_interface.c ****         }
1192:Middlewares/ST/STM32_SPWF0xSy/wifi_interface.c ****       // if client got disconnected
1193:Middlewares/ST/STM32_SPWF0xSy/wifi_interface.c ****       if(!wifi_client_connected)
1194:Middlewares/ST/STM32_SPWF0xSy/wifi_interface.c ****         {
1195:Middlewares/ST/STM32_SPWF0xSy/wifi_interface.c ****           WiFi_Control_Variables.switch_by_default_to_command_mode = WIFI_TRUE;  /*back to default 
1196:Middlewares/ST/STM32_SPWF0xSy/wifi_interface.c ****           __disable_irq();
1197:Middlewares/ST/STM32_SPWF0xSy/wifi_interface.c ****           WiFi_Control_Variables.prevent_push_WIFI_event = WIFI_FALSE;
1198:Middlewares/ST/STM32_SPWF0xSy/wifi_interface.c ****           WiFi_Control_Variables.do_not_reset_push_WIFI_event = WIFI_FALSE;
1199:Middlewares/ST/STM32_SPWF0xSy/wifi_interface.c ****           __enable_irq();
1200:Middlewares/ST/STM32_SPWF0xSy/wifi_interface.c ****           return WiFi_MODULE_ERROR;
1201:Middlewares/ST/STM32_SPWF0xSy/wifi_interface.c ****         }
1202:Middlewares/ST/STM32_SPWF0xSy/wifi_interface.c ****     }
1203:Middlewares/ST/STM32_SPWF0xSy/wifi_interface.c **** 
1204:Middlewares/ST/STM32_SPWF0xSy/wifi_interface.c ****   /*Write the data on the uart*/
1205:Middlewares/ST/STM32_SPWF0xSy/wifi_interface.c ****   if(HAL_UART_Transmit(&UartWiFiHandle, (uint8_t *)Data, DataLength,1000)!= HAL_OK)
1206:Middlewares/ST/STM32_SPWF0xSy/wifi_interface.c ****     {
1207:Middlewares/ST/STM32_SPWF0xSy/wifi_interface.c ****       WiFi_UART_Error_Handler();
1208:Middlewares/ST/STM32_SPWF0xSy/wifi_interface.c ****       status = WiFi_HAL_UART_ERROR;
1209:Middlewares/ST/STM32_SPWF0xSy/wifi_interface.c ****     }
1210:Middlewares/ST/STM32_SPWF0xSy/wifi_interface.c ****   //HAL_Delay(100);//Wait for tx before switching back to command mode
1211:Middlewares/ST/STM32_SPWF0xSy/wifi_interface.c **** 
1212:Middlewares/ST/STM32_SPWF0xSy/wifi_interface.c ****   /*Switch back to Command Mode*/
1213:Middlewares/ST/STM32_SPWF0xSy/wifi_interface.c ****   if(!IO_status_flag.command_mode)
1214:Middlewares/ST/STM32_SPWF0xSy/wifi_interface.c ****     {
1215:Middlewares/ST/STM32_SPWF0xSy/wifi_interface.c ****       WiFi_switch_to_command_mode();//switch by default
1216:Middlewares/ST/STM32_SPWF0xSy/wifi_interface.c ****       while(!IO_status_flag.command_mode)
1217:Middlewares/ST/STM32_SPWF0xSy/wifi_interface.c ****         {
1218:Middlewares/ST/STM32_SPWF0xSy/wifi_interface.c ****           //Wait till command_mode is active
1219:Middlewares/ST/STM32_SPWF0xSy/wifi_interface.c ****           __NOP(); //nothing to do
1220:Middlewares/ST/STM32_SPWF0xSy/wifi_interface.c ****         }
1221:Middlewares/ST/STM32_SPWF0xSy/wifi_interface.c ****     }
1222:Middlewares/ST/STM32_SPWF0xSy/wifi_interface.c **** 
1223:Middlewares/ST/STM32_SPWF0xSy/wifi_interface.c ****   WiFi_Control_Variables.switch_by_default_to_command_mode = WIFI_TRUE;  /*back to default behaviou
1224:Middlewares/ST/STM32_SPWF0xSy/wifi_interface.c **** 
1225:Middlewares/ST/STM32_SPWF0xSy/wifi_interface.c ****   __disable_irq();
1226:Middlewares/ST/STM32_SPWF0xSy/wifi_interface.c ****   WiFi_Control_Variables.prevent_push_WIFI_event = WIFI_FALSE;
1227:Middlewares/ST/STM32_SPWF0xSy/wifi_interface.c ****   WiFi_Control_Variables.do_not_reset_push_WIFI_event = WIFI_FALSE;
1228:Middlewares/ST/STM32_SPWF0xSy/wifi_interface.c ****   __enable_irq();
1229:Middlewares/ST/STM32_SPWF0xSy/wifi_interface.c ****   
1230:Middlewares/ST/STM32_SPWF0xSy/wifi_interface.c ****   return status;
1231:Middlewares/ST/STM32_SPWF0xSy/wifi_interface.c **** }
1232:Middlewares/ST/STM32_SPWF0xSy/wifi_interface.c **** #endif
1233:Middlewares/ST/STM32_SPWF0xSy/wifi_interface.c **** 
1234:Middlewares/ST/STM32_SPWF0xSy/wifi_interface.c **** /**
1235:Middlewares/ST/STM32_SPWF0xSy/wifi_interface.c **** * @brief  Server Socket Close
1236:Middlewares/ST/STM32_SPWF0xSy/wifi_interface.c **** *         Queue the server socket close command
1237:Middlewares/ST/STM32_SPWF0xSy/wifi_interface.c **** * @param  count: the number of arguments 
1238:Middlewares/ST/STM32_SPWF0xSy/wifi_interface.c **** * @retval WiFi_Status_t : return status of server socket request
1239:Middlewares/ST/STM32_SPWF0xSy/wifi_interface.c **** */
ARM GAS  D:\cygwin64\tmp\ccGmGipG.s 			page 37


1240:Middlewares/ST/STM32_SPWF0xSy/wifi_interface.c **** #ifdef SPWF04
1241:Middlewares/ST/STM32_SPWF0xSy/wifi_interface.c **** WiFi_Status_t socket_server_close(int count,...)
1242:Middlewares/ST/STM32_SPWF0xSy/wifi_interface.c **** {
1243:Middlewares/ST/STM32_SPWF0xSy/wifi_interface.c ****   va_list v;
1244:Middlewares/ST/STM32_SPWF0xSy/wifi_interface.c ****   va_start(v,count);
1245:Middlewares/ST/STM32_SPWF0xSy/wifi_interface.c ****   int sid = va_arg(v,int);
1246:Middlewares/ST/STM32_SPWF0xSy/wifi_interface.c ****   int cid;
1247:Middlewares/ST/STM32_SPWF0xSy/wifi_interface.c ****   (count == 2) ? (cid = va_arg(v,int)): (cid = 9);
1248:Middlewares/ST/STM32_SPWF0xSy/wifi_interface.c ****   Queue_Server_Close_Event(sid,cid);
1249:Middlewares/ST/STM32_SPWF0xSy/wifi_interface.c ****   va_end(v);
1250:Middlewares/ST/STM32_SPWF0xSy/wifi_interface.c ****   return WiFi_MODULE_SUCCESS;
1251:Middlewares/ST/STM32_SPWF0xSy/wifi_interface.c **** }
1252:Middlewares/ST/STM32_SPWF0xSy/wifi_interface.c **** #else
1253:Middlewares/ST/STM32_SPWF0xSy/wifi_interface.c **** /**
1254:Middlewares/ST/STM32_SPWF0xSy/wifi_interface.c **** * @brief  Server Socket Close
1255:Middlewares/ST/STM32_SPWF0xSy/wifi_interface.c **** *         Close a Server socket
1256:Middlewares/ST/STM32_SPWF0xSy/wifi_interface.c **** * @param  None
1257:Middlewares/ST/STM32_SPWF0xSy/wifi_interface.c **** * @retval WiFi_Status_t : return status of server socket request
1258:Middlewares/ST/STM32_SPWF0xSy/wifi_interface.c **** */
1259:Middlewares/ST/STM32_SPWF0xSy/wifi_interface.c **** WiFi_Status_t wifi_socket_server_close() 
1260:Middlewares/ST/STM32_SPWF0xSy/wifi_interface.c **** {
 800              		.loc 1 1260 0
 801              		.cfi_startproc
 802              		@ args = 0, pretend = 0, frame = 0
 803              		@ frame_needed = 0, uses_anonymous_args = 0
 804 0000 08B5     		push	{r3, lr}
 805              	.LCFI13:
 806              		.cfi_def_cfa_offset 8
 807              		.cfi_offset 3, -8
 808              		.cfi_offset 14, -4
1261:Middlewares/ST/STM32_SPWF0xSy/wifi_interface.c ****   Queue_Server_Close_Event(-1,-1);
 809              		.loc 1 1261 0
 810 0002 4FF0FF31 		mov	r1, #-1
 811 0006 0846     		mov	r0, r1
 812 0008 FFF7FEFF 		bl	Queue_Server_Close_Event
 813              	.LVL106:
1262:Middlewares/ST/STM32_SPWF0xSy/wifi_interface.c ****   return WiFi_MODULE_SUCCESS; 
1263:Middlewares/ST/STM32_SPWF0xSy/wifi_interface.c **** }
 814              		.loc 1 1263 0
 815 000c 0020     		movs	r0, #0
 816 000e 08BD     		pop	{r3, pc}
 817              		.cfi_endproc
 818              	.LFE289:
 820              		.section	.text.wait_for_command_mode,"ax",%progbits
 821              		.align	1
 822              		.global	wait_for_command_mode
 823              		.syntax unified
 824              		.thumb
 825              		.thumb_func
 826              		.fpu fpv4-sp-d16
 828              	wait_for_command_mode:
 829              	.LFB290:
1264:Middlewares/ST/STM32_SPWF0xSy/wifi_interface.c **** #endif
1265:Middlewares/ST/STM32_SPWF0xSy/wifi_interface.c **** 
1266:Middlewares/ST/STM32_SPWF0xSy/wifi_interface.c **** #ifdef CONSOLE_UART_ENABLED
1267:Middlewares/ST/STM32_SPWF0xSy/wifi_interface.c **** /**
1268:Middlewares/ST/STM32_SPWF0xSy/wifi_interface.c **** * @brief  wait_for_command_mode
ARM GAS  D:\cygwin64\tmp\ccGmGipG.s 			page 38


1269:Middlewares/ST/STM32_SPWF0xSy/wifi_interface.c **** *         Waits till we are in command mode
1270:Middlewares/ST/STM32_SPWF0xSy/wifi_interface.c **** * @param  None
1271:Middlewares/ST/STM32_SPWF0xSy/wifi_interface.c **** * @retval None
1272:Middlewares/ST/STM32_SPWF0xSy/wifi_interface.c **** */
1273:Middlewares/ST/STM32_SPWF0xSy/wifi_interface.c **** void wait_for_command_mode(void)
1274:Middlewares/ST/STM32_SPWF0xSy/wifi_interface.c **** {
 830              		.loc 1 1274 0
 831              		.cfi_startproc
 832              		@ args = 0, pretend = 0, frame = 0
 833              		@ frame_needed = 0, uses_anonymous_args = 0
 834              		@ link register save eliminated.
1275:Middlewares/ST/STM32_SPWF0xSy/wifi_interface.c ****     while(!IO_status_flag.command_mode)
 835              		.loc 1 1275 0
 836 0000 00E0     		b	.L78
 837              	.L79:
1276:Middlewares/ST/STM32_SPWF0xSy/wifi_interface.c ****       {
1277:Middlewares/ST/STM32_SPWF0xSy/wifi_interface.c ****         //Make sure we are in command mode, ideally we should do this in every User API?
1278:Middlewares/ST/STM32_SPWF0xSy/wifi_interface.c ****         __NOP(); //nothing to do
 838              		.loc 1 1278 0
 839              		.syntax unified
 840              	@ 1278 "Middlewares/ST/STM32_SPWF0xSy/wifi_interface.c" 1
 841 0002 00BF     		nop
 842              	@ 0 "" 2
 843              		.thumb
 844              		.syntax unified
 845              	.L78:
1275:Middlewares/ST/STM32_SPWF0xSy/wifi_interface.c ****     while(!IO_status_flag.command_mode)
 846              		.loc 1 1275 0
 847 0004 024B     		ldr	r3, .L80
 848 0006 1B78     		ldrb	r3, [r3]	@ zero_extendqisi2
 849 0008 DB09     		lsrs	r3, r3, #7
 850 000a FAD0     		beq	.L79
1279:Middlewares/ST/STM32_SPWF0xSy/wifi_interface.c ****       }
1280:Middlewares/ST/STM32_SPWF0xSy/wifi_interface.c **** }
 851              		.loc 1 1280 0
 852 000c 7047     		bx	lr
 853              	.L81:
 854 000e 00BF     		.align	2
 855              	.L80:
 856 0010 00000000 		.word	IO_status_flag
 857              		.cfi_endproc
 858              	.LFE290:
 860              		.section	.text.Socket_Read,"ax",%progbits
 861              		.align	1
 862              		.global	Socket_Read
 863              		.syntax unified
 864              		.thumb
 865              		.thumb_func
 866              		.fpu fpv4-sp-d16
 868              	Socket_Read:
 869              	.LFB284:
 837:Middlewares/ST/STM32_SPWF0xSy/wifi_interface.c ****   /* AT+S.SOCKR=01,12<cr> */
 870              		.loc 1 837 0
 871              		.cfi_startproc
 872              		@ args = 0, pretend = 0, frame = 0
 873              		@ frame_needed = 0, uses_anonymous_args = 0
 874              	.LVL107:
ARM GAS  D:\cygwin64\tmp\ccGmGipG.s 			page 39


 875 0000 70B5     		push	{r4, r5, r6, lr}
 876              	.LCFI14:
 877              		.cfi_def_cfa_offset 16
 878              		.cfi_offset 4, -16
 879              		.cfi_offset 5, -12
 880              		.cfi_offset 6, -8
 881              		.cfi_offset 14, -4
 882 0002 0646     		mov	r6, r0
 883              	.LVL108:
 841:Middlewares/ST/STM32_SPWF0xSy/wifi_interface.c ****   #endif
 884              		.loc 1 841 0
 885 0004 FFF7FEFF 		bl	wait_for_command_mode
 886              	.LVL109:
 846:Middlewares/ST/STM32_SPWF0xSy/wifi_interface.c ****     WiFi_Counter_Variables.SockON_Data_Length = DataLength;
 887              		.loc 1 846 0
 888 0008 134D     		ldr	r5, .L86
 889 000a 2A78     		ldrb	r2, [r5]	@ zero_extendqisi2
 890 000c 134C     		ldr	r4, .L86+4
 891 000e 3346     		mov	r3, r6
 892 0010 C2F3C202 		ubfx	r2, r2, #3, #3
 893 0014 1249     		ldr	r1, .L86+8
 894 0016 2046     		mov	r0, r4
 895 0018 FFF7FEFF 		bl	sprintf
 896              	.LVL110:
 847:Middlewares/ST/STM32_SPWF0xSy/wifi_interface.c ****     status = USART_Transmit_AT_Cmd(strlen((char*)WiFi_AT_Cmd_Buff));
 897              		.loc 1 847 0
 898 001c C5F8A460 		str	r6, [r5, #164]
 848:Middlewares/ST/STM32_SPWF0xSy/wifi_interface.c ****   #else
 899              		.loc 1 848 0
 900 0020 2046     		mov	r0, r4
 901 0022 FFF7FEFF 		bl	strlen
 902              	.LVL111:
 903 0026 80B2     		uxth	r0, r0
 904 0028 FFF7FEFF 		bl	USART_Transmit_AT_Cmd
 905              	.LVL112:
 860:Middlewares/ST/STM32_SPWF0xSy/wifi_interface.c ****   {
 906              		.loc 1 860 0
 907 002c 0246     		mov	r2, r0
 908 002e 88B9     		cbnz	r0, .L83
 862:Middlewares/ST/STM32_SPWF0xSy/wifi_interface.c ****         WiFi_Control_Variables.stop_event_dequeue = WIFI_TRUE;
 909              		.loc 1 862 0
 910 0030 0C4B     		ldr	r3, .L86+12
 911 0032 1B78     		ldrb	r3, [r3]	@ zero_extendqisi2
 912 0034 13F0080F 		tst	r3, #8
 913 0038 03D1     		bne	.L84
 863:Middlewares/ST/STM32_SPWF0xSy/wifi_interface.c ****    
 914              		.loc 1 863 0
 915 003a 0A49     		ldr	r1, .L86+12
 916 003c 43F00803 		orr	r3, r3, #8
 917 0040 0B70     		strb	r3, [r1]
 918              	.L84:
 867:Middlewares/ST/STM32_SPWF0xSy/wifi_interface.c ****         WiFi_Control_Variables.enable_receive_data_chunk = WIFI_TRUE;
 919              		.loc 1 867 0
 920 0042 0521     		movs	r1, #5
 921 0044 044B     		ldr	r3, .L86
 922 0046 A3F89A10 		strh	r1, [r3, #154]	@ movhi
 868:Middlewares/ST/STM32_SPWF0xSy/wifi_interface.c ****         WiFi_Control_Variables.enable_sock_read = WIFI_TRUE;
ARM GAS  D:\cygwin64\tmp\ccGmGipG.s 			page 40


 923              		.loc 1 868 0
 924 004a 0649     		ldr	r1, .L86+12
 925 004c 8B78     		ldrb	r3, [r1, #2]	@ zero_extendqisi2
 869:Middlewares/ST/STM32_SPWF0xSy/wifi_interface.c ****     #elif defined(SPWF04) && !defined(CONSOLE_UART_ENABLED)
 926              		.loc 1 869 0
 927 004e 43F02403 		orr	r3, r3, #36
 928 0052 8B70     		strb	r3, [r1, #2]
 929              	.L83:
 876:Middlewares/ST/STM32_SPWF0xSy/wifi_interface.c **** 
 930              		.loc 1 876 0
 931 0054 1046     		mov	r0, r2
 932              	.LVL113:
 933 0056 70BD     		pop	{r4, r5, r6, pc}
 934              	.L87:
 935              		.align	2
 936              	.L86:
 937 0058 00000000 		.word	WiFi_Counter_Variables
 938 005c 00000000 		.word	WiFi_AT_Cmd_Buff
 939 0060 00000000 		.word	.LC7
 940 0064 00000000 		.word	WiFi_Control_Variables
 941              		.cfi_endproc
 942              	.LFE284:
 944              		.section	.text.Socket_Pending_Data,"ax",%progbits
 945              		.align	1
 946              		.global	Socket_Pending_Data
 947              		.syntax unified
 948              		.thumb
 949              		.thumb_func
 950              		.fpu fpv4-sp-d16
 952              	Socket_Pending_Data:
 953              	.LFB286:
 996:Middlewares/ST/STM32_SPWF0xSy/wifi_interface.c ****   /* AT+S.SOCKQ=01<cr> */
 954              		.loc 1 996 0
 955              		.cfi_startproc
 956              		@ args = 0, pretend = 0, frame = 0
 957              		@ frame_needed = 0, uses_anonymous_args = 0
 958 0000 10B5     		push	{r4, lr}
 959              	.LCFI15:
 960              		.cfi_def_cfa_offset 8
 961              		.cfi_offset 4, -8
 962              		.cfi_offset 14, -4
 998:Middlewares/ST/STM32_SPWF0xSy/wifi_interface.c ****   
 963              		.loc 1 998 0
 964 0002 FFF7FEFF 		bl	Reset_AT_CMD_Buffer
 965              	.LVL114:
1001:Middlewares/ST/STM32_SPWF0xSy/wifi_interface.c ****   #endif
 966              		.loc 1 1001 0
 967 0006 FFF7FEFF 		bl	wait_for_command_mode
 968              	.LVL115:
1004:Middlewares/ST/STM32_SPWF0xSy/wifi_interface.c ****     {
 969              		.loc 1 1004 0
 970 000a 0E4B     		ldr	r3, .L92
 971 000c 1A78     		ldrb	r2, [r3]	@ zero_extendqisi2
 972 000e C2F3C202 		ubfx	r2, r2, #3, #3
 973 0012 0D4B     		ldr	r3, .L92+4
 974 0014 9B5C     		ldrb	r3, [r3, r2]	@ zero_extendqisi2
 975 0016 9BB1     		cbz	r3, .L88
ARM GAS  D:\cygwin64\tmp\ccGmGipG.s 			page 41


1006:Middlewares/ST/STM32_SPWF0xSy/wifi_interface.c ****         WiFi_Control_Variables.stop_event_dequeue = WIFI_TRUE;
 976              		.loc 1 1006 0
 977 0018 0C4B     		ldr	r3, .L92+8
 978 001a 1B78     		ldrb	r3, [r3]	@ zero_extendqisi2
 979 001c 13F0080F 		tst	r3, #8
 980 0020 03D1     		bne	.L90
1007:Middlewares/ST/STM32_SPWF0xSy/wifi_interface.c ****       
 981              		.loc 1 1007 0
 982 0022 0A49     		ldr	r1, .L92+8
 983 0024 43F00803 		orr	r3, r3, #8
 984 0028 0B70     		strb	r3, [r1]
 985              	.L90:
1010:Middlewares/ST/STM32_SPWF0xSy/wifi_interface.c ****         USART_Transmit_AT_Cmd(strlen((char*)WiFi_AT_Cmd_Buff));
 986              		.loc 1 1010 0
 987 002a 094C     		ldr	r4, .L92+12
 988 002c 0949     		ldr	r1, .L92+16
 989 002e 2046     		mov	r0, r4
 990 0030 FFF7FEFF 		bl	sprintf
 991              	.LVL116:
1011:Middlewares/ST/STM32_SPWF0xSy/wifi_interface.c ****       #else
 992              		.loc 1 1011 0
 993 0034 2046     		mov	r0, r4
 994 0036 FFF7FEFF 		bl	strlen
 995              	.LVL117:
 996 003a 80B2     		uxth	r0, r0
 997 003c FFF7FEFF 		bl	USART_Transmit_AT_Cmd
 998              	.LVL118:
 999              	.L88:
 1000 0040 10BD     		pop	{r4, pc}
 1001              	.L93:
 1002 0042 00BF     		.align	2
 1003              	.L92:
 1004 0044 00000000 		.word	WiFi_Counter_Variables
 1005 0048 00000000 		.word	open_sockets
 1006 004c 00000000 		.word	WiFi_Control_Variables
 1007 0050 00000000 		.word	WiFi_AT_Cmd_Buff
 1008 0054 00000000 		.word	.LC8
 1009              		.cfi_endproc
 1010              	.LFE286:
 1012              		.section	.text.wifi_socket_server_write,"ax",%progbits
 1013              		.align	1
 1014              		.global	wifi_socket_server_write
 1015              		.syntax unified
 1016              		.thumb
 1017              		.thumb_func
 1018              		.fpu fpv4-sp-d16
 1020              	wifi_socket_server_write:
 1021              	.LFB288:
1158:Middlewares/ST/STM32_SPWF0xSy/wifi_interface.c ****   WiFi_Status_t status = WiFi_MODULE_SUCCESS;
 1022              		.loc 1 1158 0
 1023              		.cfi_startproc
 1024              		@ args = 0, pretend = 0, frame = 0
 1025              		@ frame_needed = 0, uses_anonymous_args = 0
 1026              	.LVL119:
 1027 0000 38B5     		push	{r3, r4, r5, lr}
 1028              	.LCFI16:
 1029              		.cfi_def_cfa_offset 16
ARM GAS  D:\cygwin64\tmp\ccGmGipG.s 			page 42


 1030              		.cfi_offset 3, -16
 1031              		.cfi_offset 4, -12
 1032              		.cfi_offset 5, -8
 1033              		.cfi_offset 14, -4
 1034              	.LVL120:
1161:Middlewares/ST/STM32_SPWF0xSy/wifi_interface.c ****     return WiFi_NOT_READY;
 1035              		.loc 1 1161 0
 1036 0002 3A4B     		ldr	r3, .L114
 1037 0004 1B78     		ldrb	r3, [r3]	@ zero_extendqisi2
 1038 0006 13B9     		cbnz	r3, .L111
1162:Middlewares/ST/STM32_SPWF0xSy/wifi_interface.c ****   
 1039              		.loc 1 1162 0
 1040 0008 0524     		movs	r4, #5
 1041              	.LVL121:
 1042              	.L95:
1231:Middlewares/ST/STM32_SPWF0xSy/wifi_interface.c **** #endif
 1043              		.loc 1 1231 0
 1044 000a 2046     		mov	r0, r4
 1045 000c 38BD     		pop	{r3, r4, r5, pc}
 1046              	.LVL122:
 1047              	.L111:
1164:Middlewares/ST/STM32_SPWF0xSy/wifi_interface.c ****     return WiFi_MODULE_ERROR;
 1048              		.loc 1 1164 0
 1049 000e 30B9     		cbnz	r0, .L96
1164:Middlewares/ST/STM32_SPWF0xSy/wifi_interface.c ****     return WiFi_MODULE_ERROR;
 1050              		.loc 1 1164 0 is_stmt 0 discriminator 1
 1051 0010 374B     		ldr	r3, .L114+4
 1052 0012 D3F8E430 		ldr	r3, [r3, #228]
 1053 0016 9842     		cmp	r0, r3
 1054 0018 01D9     		bls	.L96
1165:Middlewares/ST/STM32_SPWF0xSy/wifi_interface.c **** 
 1055              		.loc 1 1165 0 is_stmt 1
 1056 001a 0224     		movs	r4, #2
 1057 001c F5E7     		b	.L95
 1058              	.L96:
 1059 001e 0D46     		mov	r5, r1
 1060 0020 0446     		mov	r4, r0
1167:Middlewares/ST/STM32_SPWF0xSy/wifi_interface.c ****     
 1061              		.loc 1 1167 0
 1062 0022 FFF7FEFF 		bl	wait_for_command_mode
 1063              	.LVL123:
 1064              	.LBB14:
 1065              	.LBB15:
 1066              		.file 2 "Drivers/CMSIS/Include/cmsis_gcc.h"
   1:Drivers/CMSIS/Include/cmsis_gcc.h **** /**************************************************************************//**
   2:Drivers/CMSIS/Include/cmsis_gcc.h ****  * @file     cmsis_gcc.h
   3:Drivers/CMSIS/Include/cmsis_gcc.h ****  * @brief    CMSIS compiler GCC header file
   4:Drivers/CMSIS/Include/cmsis_gcc.h ****  * @version  V5.0.4
   5:Drivers/CMSIS/Include/cmsis_gcc.h ****  * @date     09. April 2018
   6:Drivers/CMSIS/Include/cmsis_gcc.h ****  ******************************************************************************/
   7:Drivers/CMSIS/Include/cmsis_gcc.h **** /*
   8:Drivers/CMSIS/Include/cmsis_gcc.h ****  * Copyright (c) 2009-2018 Arm Limited. All rights reserved.
   9:Drivers/CMSIS/Include/cmsis_gcc.h ****  *
  10:Drivers/CMSIS/Include/cmsis_gcc.h ****  * SPDX-License-Identifier: Apache-2.0
  11:Drivers/CMSIS/Include/cmsis_gcc.h ****  *
  12:Drivers/CMSIS/Include/cmsis_gcc.h ****  * Licensed under the Apache License, Version 2.0 (the License); you may
  13:Drivers/CMSIS/Include/cmsis_gcc.h ****  * not use this file except in compliance with the License.
ARM GAS  D:\cygwin64\tmp\ccGmGipG.s 			page 43


  14:Drivers/CMSIS/Include/cmsis_gcc.h ****  * You may obtain a copy of the License at
  15:Drivers/CMSIS/Include/cmsis_gcc.h ****  *
  16:Drivers/CMSIS/Include/cmsis_gcc.h ****  * www.apache.org/licenses/LICENSE-2.0
  17:Drivers/CMSIS/Include/cmsis_gcc.h ****  *
  18:Drivers/CMSIS/Include/cmsis_gcc.h ****  * Unless required by applicable law or agreed to in writing, software
  19:Drivers/CMSIS/Include/cmsis_gcc.h ****  * distributed under the License is distributed on an AS IS BASIS, WITHOUT
  20:Drivers/CMSIS/Include/cmsis_gcc.h ****  * WARRANTIES OR CONDITIONS OF ANY KIND, either express or implied.
  21:Drivers/CMSIS/Include/cmsis_gcc.h ****  * See the License for the specific language governing permissions and
  22:Drivers/CMSIS/Include/cmsis_gcc.h ****  * limitations under the License.
  23:Drivers/CMSIS/Include/cmsis_gcc.h ****  */
  24:Drivers/CMSIS/Include/cmsis_gcc.h **** 
  25:Drivers/CMSIS/Include/cmsis_gcc.h **** #ifndef __CMSIS_GCC_H
  26:Drivers/CMSIS/Include/cmsis_gcc.h **** #define __CMSIS_GCC_H
  27:Drivers/CMSIS/Include/cmsis_gcc.h **** 
  28:Drivers/CMSIS/Include/cmsis_gcc.h **** /* ignore some GCC warnings */
  29:Drivers/CMSIS/Include/cmsis_gcc.h **** #pragma GCC diagnostic push
  30:Drivers/CMSIS/Include/cmsis_gcc.h **** #pragma GCC diagnostic ignored "-Wsign-conversion"
  31:Drivers/CMSIS/Include/cmsis_gcc.h **** #pragma GCC diagnostic ignored "-Wconversion"
  32:Drivers/CMSIS/Include/cmsis_gcc.h **** #pragma GCC diagnostic ignored "-Wunused-parameter"
  33:Drivers/CMSIS/Include/cmsis_gcc.h **** 
  34:Drivers/CMSIS/Include/cmsis_gcc.h **** /* Fallback for __has_builtin */
  35:Drivers/CMSIS/Include/cmsis_gcc.h **** #ifndef __has_builtin
  36:Drivers/CMSIS/Include/cmsis_gcc.h ****   #define __has_builtin(x) (0)
  37:Drivers/CMSIS/Include/cmsis_gcc.h **** #endif
  38:Drivers/CMSIS/Include/cmsis_gcc.h **** 
  39:Drivers/CMSIS/Include/cmsis_gcc.h **** /* CMSIS compiler specific defines */
  40:Drivers/CMSIS/Include/cmsis_gcc.h **** #ifndef   __ASM
  41:Drivers/CMSIS/Include/cmsis_gcc.h ****   #define __ASM                                  __asm
  42:Drivers/CMSIS/Include/cmsis_gcc.h **** #endif
  43:Drivers/CMSIS/Include/cmsis_gcc.h **** #ifndef   __INLINE
  44:Drivers/CMSIS/Include/cmsis_gcc.h ****   #define __INLINE                               inline
  45:Drivers/CMSIS/Include/cmsis_gcc.h **** #endif
  46:Drivers/CMSIS/Include/cmsis_gcc.h **** #ifndef   __STATIC_INLINE
  47:Drivers/CMSIS/Include/cmsis_gcc.h ****   #define __STATIC_INLINE                        static inline
  48:Drivers/CMSIS/Include/cmsis_gcc.h **** #endif
  49:Drivers/CMSIS/Include/cmsis_gcc.h **** #ifndef   __STATIC_FORCEINLINE                 
  50:Drivers/CMSIS/Include/cmsis_gcc.h ****   #define __STATIC_FORCEINLINE                   __attribute__((always_inline)) static inline
  51:Drivers/CMSIS/Include/cmsis_gcc.h **** #endif                                           
  52:Drivers/CMSIS/Include/cmsis_gcc.h **** #ifndef   __NO_RETURN
  53:Drivers/CMSIS/Include/cmsis_gcc.h ****   #define __NO_RETURN                            __attribute__((__noreturn__))
  54:Drivers/CMSIS/Include/cmsis_gcc.h **** #endif
  55:Drivers/CMSIS/Include/cmsis_gcc.h **** #ifndef   __USED
  56:Drivers/CMSIS/Include/cmsis_gcc.h ****   #define __USED                                 __attribute__((used))
  57:Drivers/CMSIS/Include/cmsis_gcc.h **** #endif
  58:Drivers/CMSIS/Include/cmsis_gcc.h **** #ifndef   __WEAK
  59:Drivers/CMSIS/Include/cmsis_gcc.h ****   #define __WEAK                                 __attribute__((weak))
  60:Drivers/CMSIS/Include/cmsis_gcc.h **** #endif
  61:Drivers/CMSIS/Include/cmsis_gcc.h **** #ifndef   __PACKED
  62:Drivers/CMSIS/Include/cmsis_gcc.h ****   #define __PACKED                               __attribute__((packed, aligned(1)))
  63:Drivers/CMSIS/Include/cmsis_gcc.h **** #endif
  64:Drivers/CMSIS/Include/cmsis_gcc.h **** #ifndef   __PACKED_STRUCT
  65:Drivers/CMSIS/Include/cmsis_gcc.h ****   #define __PACKED_STRUCT                        struct __attribute__((packed, aligned(1)))
  66:Drivers/CMSIS/Include/cmsis_gcc.h **** #endif
  67:Drivers/CMSIS/Include/cmsis_gcc.h **** #ifndef   __PACKED_UNION
  68:Drivers/CMSIS/Include/cmsis_gcc.h ****   #define __PACKED_UNION                         union __attribute__((packed, aligned(1)))
  69:Drivers/CMSIS/Include/cmsis_gcc.h **** #endif
  70:Drivers/CMSIS/Include/cmsis_gcc.h **** #ifndef   __UNALIGNED_UINT32        /* deprecated */
ARM GAS  D:\cygwin64\tmp\ccGmGipG.s 			page 44


  71:Drivers/CMSIS/Include/cmsis_gcc.h ****   #pragma GCC diagnostic push
  72:Drivers/CMSIS/Include/cmsis_gcc.h ****   #pragma GCC diagnostic ignored "-Wpacked"
  73:Drivers/CMSIS/Include/cmsis_gcc.h ****   #pragma GCC diagnostic ignored "-Wattributes"
  74:Drivers/CMSIS/Include/cmsis_gcc.h ****   struct __attribute__((packed)) T_UINT32 { uint32_t v; };
  75:Drivers/CMSIS/Include/cmsis_gcc.h ****   #pragma GCC diagnostic pop
  76:Drivers/CMSIS/Include/cmsis_gcc.h ****   #define __UNALIGNED_UINT32(x)                  (((struct T_UINT32 *)(x))->v)
  77:Drivers/CMSIS/Include/cmsis_gcc.h **** #endif
  78:Drivers/CMSIS/Include/cmsis_gcc.h **** #ifndef   __UNALIGNED_UINT16_WRITE
  79:Drivers/CMSIS/Include/cmsis_gcc.h ****   #pragma GCC diagnostic push
  80:Drivers/CMSIS/Include/cmsis_gcc.h ****   #pragma GCC diagnostic ignored "-Wpacked"
  81:Drivers/CMSIS/Include/cmsis_gcc.h ****   #pragma GCC diagnostic ignored "-Wattributes"
  82:Drivers/CMSIS/Include/cmsis_gcc.h ****   __PACKED_STRUCT T_UINT16_WRITE { uint16_t v; };
  83:Drivers/CMSIS/Include/cmsis_gcc.h ****   #pragma GCC diagnostic pop
  84:Drivers/CMSIS/Include/cmsis_gcc.h ****   #define __UNALIGNED_UINT16_WRITE(addr, val)    (void)((((struct T_UINT16_WRITE *)(void *)(addr))-
  85:Drivers/CMSIS/Include/cmsis_gcc.h **** #endif
  86:Drivers/CMSIS/Include/cmsis_gcc.h **** #ifndef   __UNALIGNED_UINT16_READ
  87:Drivers/CMSIS/Include/cmsis_gcc.h ****   #pragma GCC diagnostic push
  88:Drivers/CMSIS/Include/cmsis_gcc.h ****   #pragma GCC diagnostic ignored "-Wpacked"
  89:Drivers/CMSIS/Include/cmsis_gcc.h ****   #pragma GCC diagnostic ignored "-Wattributes"
  90:Drivers/CMSIS/Include/cmsis_gcc.h ****   __PACKED_STRUCT T_UINT16_READ { uint16_t v; };
  91:Drivers/CMSIS/Include/cmsis_gcc.h ****   #pragma GCC diagnostic pop
  92:Drivers/CMSIS/Include/cmsis_gcc.h ****   #define __UNALIGNED_UINT16_READ(addr)          (((const struct T_UINT16_READ *)(const void *)(add
  93:Drivers/CMSIS/Include/cmsis_gcc.h **** #endif
  94:Drivers/CMSIS/Include/cmsis_gcc.h **** #ifndef   __UNALIGNED_UINT32_WRITE
  95:Drivers/CMSIS/Include/cmsis_gcc.h ****   #pragma GCC diagnostic push
  96:Drivers/CMSIS/Include/cmsis_gcc.h ****   #pragma GCC diagnostic ignored "-Wpacked"
  97:Drivers/CMSIS/Include/cmsis_gcc.h ****   #pragma GCC diagnostic ignored "-Wattributes"
  98:Drivers/CMSIS/Include/cmsis_gcc.h ****   __PACKED_STRUCT T_UINT32_WRITE { uint32_t v; };
  99:Drivers/CMSIS/Include/cmsis_gcc.h ****   #pragma GCC diagnostic pop
 100:Drivers/CMSIS/Include/cmsis_gcc.h ****   #define __UNALIGNED_UINT32_WRITE(addr, val)    (void)((((struct T_UINT32_WRITE *)(void *)(addr))-
 101:Drivers/CMSIS/Include/cmsis_gcc.h **** #endif
 102:Drivers/CMSIS/Include/cmsis_gcc.h **** #ifndef   __UNALIGNED_UINT32_READ
 103:Drivers/CMSIS/Include/cmsis_gcc.h ****   #pragma GCC diagnostic push
 104:Drivers/CMSIS/Include/cmsis_gcc.h ****   #pragma GCC diagnostic ignored "-Wpacked"
 105:Drivers/CMSIS/Include/cmsis_gcc.h ****   #pragma GCC diagnostic ignored "-Wattributes"
 106:Drivers/CMSIS/Include/cmsis_gcc.h ****   __PACKED_STRUCT T_UINT32_READ { uint32_t v; };
 107:Drivers/CMSIS/Include/cmsis_gcc.h ****   #pragma GCC diagnostic pop
 108:Drivers/CMSIS/Include/cmsis_gcc.h ****   #define __UNALIGNED_UINT32_READ(addr)          (((const struct T_UINT32_READ *)(const void *)(add
 109:Drivers/CMSIS/Include/cmsis_gcc.h **** #endif
 110:Drivers/CMSIS/Include/cmsis_gcc.h **** #ifndef   __ALIGNED
 111:Drivers/CMSIS/Include/cmsis_gcc.h ****   #define __ALIGNED(x)                           __attribute__((aligned(x)))
 112:Drivers/CMSIS/Include/cmsis_gcc.h **** #endif
 113:Drivers/CMSIS/Include/cmsis_gcc.h **** #ifndef   __RESTRICT
 114:Drivers/CMSIS/Include/cmsis_gcc.h ****   #define __RESTRICT                             __restrict
 115:Drivers/CMSIS/Include/cmsis_gcc.h **** #endif
 116:Drivers/CMSIS/Include/cmsis_gcc.h **** 
 117:Drivers/CMSIS/Include/cmsis_gcc.h **** 
 118:Drivers/CMSIS/Include/cmsis_gcc.h **** /* ###########################  Core Function Access  ########################### */
 119:Drivers/CMSIS/Include/cmsis_gcc.h **** /** \ingroup  CMSIS_Core_FunctionInterface
 120:Drivers/CMSIS/Include/cmsis_gcc.h ****     \defgroup CMSIS_Core_RegAccFunctions CMSIS Core Register Access Functions
 121:Drivers/CMSIS/Include/cmsis_gcc.h ****   @{
 122:Drivers/CMSIS/Include/cmsis_gcc.h ****  */
 123:Drivers/CMSIS/Include/cmsis_gcc.h **** 
 124:Drivers/CMSIS/Include/cmsis_gcc.h **** /**
 125:Drivers/CMSIS/Include/cmsis_gcc.h ****   \brief   Enable IRQ Interrupts
 126:Drivers/CMSIS/Include/cmsis_gcc.h ****   \details Enables IRQ interrupts by clearing the I-bit in the CPSR.
 127:Drivers/CMSIS/Include/cmsis_gcc.h ****            Can only be executed in Privileged modes.
ARM GAS  D:\cygwin64\tmp\ccGmGipG.s 			page 45


 128:Drivers/CMSIS/Include/cmsis_gcc.h ****  */
 129:Drivers/CMSIS/Include/cmsis_gcc.h **** __STATIC_FORCEINLINE void __enable_irq(void)
 130:Drivers/CMSIS/Include/cmsis_gcc.h **** {
 131:Drivers/CMSIS/Include/cmsis_gcc.h ****   __ASM volatile ("cpsie i" : : : "memory");
 132:Drivers/CMSIS/Include/cmsis_gcc.h **** }
 133:Drivers/CMSIS/Include/cmsis_gcc.h **** 
 134:Drivers/CMSIS/Include/cmsis_gcc.h **** 
 135:Drivers/CMSIS/Include/cmsis_gcc.h **** /**
 136:Drivers/CMSIS/Include/cmsis_gcc.h ****   \brief   Disable IRQ Interrupts
 137:Drivers/CMSIS/Include/cmsis_gcc.h ****   \details Disables IRQ interrupts by setting the I-bit in the CPSR.
 138:Drivers/CMSIS/Include/cmsis_gcc.h ****            Can only be executed in Privileged modes.
 139:Drivers/CMSIS/Include/cmsis_gcc.h ****  */
 140:Drivers/CMSIS/Include/cmsis_gcc.h **** __STATIC_FORCEINLINE void __disable_irq(void)
 141:Drivers/CMSIS/Include/cmsis_gcc.h **** {
 142:Drivers/CMSIS/Include/cmsis_gcc.h ****   __ASM volatile ("cpsid i" : : : "memory");
 1067              		.loc 2 142 0
 1068              		.syntax unified
 1069              	@ 142 "Drivers/CMSIS/Include/cmsis_gcc.h" 1
 1070 0026 72B6     		cpsid i
 1071              	@ 0 "" 2
 1072              		.thumb
 1073              		.syntax unified
 1074              	.LBE15:
 1075              	.LBE14:
1171:Middlewares/ST/STM32_SPWF0xSy/wifi_interface.c ****   WiFi_Control_Variables.prevent_push_WIFI_event = WIFI_TRUE;
 1076              		.loc 1 1171 0
 1077 0028 324A     		ldr	r2, .L114+8
 1078 002a 1379     		ldrb	r3, [r2, #4]	@ zero_extendqisi2
1172:Middlewares/ST/STM32_SPWF0xSy/wifi_interface.c ****   __enable_irq();
 1079              		.loc 1 1172 0
 1080 002c 43F00503 		orr	r3, r3, #5
 1081 0030 1371     		strb	r3, [r2, #4]
 1082              	.LBB16:
 1083              	.LBB17:
 131:Drivers/CMSIS/Include/cmsis_gcc.h **** }
 1084              		.loc 2 131 0
 1085              		.syntax unified
 1086              	@ 131 "Drivers/CMSIS/Include/cmsis_gcc.h" 1
 1087 0032 62B6     		cpsie i
 1088              	@ 0 "" 2
 1089              		.thumb
 1090              		.syntax unified
 1091 0034 00E0     		b	.L97
 1092              	.L98:
 1093              	.LBE17:
 1094              	.LBE16:
1177:Middlewares/ST/STM32_SPWF0xSy/wifi_interface.c ****     }
 1095              		.loc 1 1177 0
 1096              		.syntax unified
 1097              	@ 1177 "Middlewares/ST/STM32_SPWF0xSy/wifi_interface.c" 1
 1098 0036 00BF     		nop
 1099              	@ 0 "" 2
 1100              		.thumb
 1101              		.syntax unified
 1102              	.L97:
1175:Middlewares/ST/STM32_SPWF0xSy/wifi_interface.c ****     {
 1103              		.loc 1 1175 0
ARM GAS  D:\cygwin64\tmp\ccGmGipG.s 			page 46


 1104 0038 2F4B     		ldr	r3, .L114+12
 1105 003a 1B78     		ldrb	r3, [r3]	@ zero_extendqisi2
 1106 003c 13F0010F 		tst	r3, #1
 1107 0040 F9D1     		bne	.L98
1175:Middlewares/ST/STM32_SPWF0xSy/wifi_interface.c ****     {
 1108              		.loc 1 1175 0 is_stmt 0 discriminator 1
 1109 0042 2D4B     		ldr	r3, .L114+12
 1110 0044 5B68     		ldr	r3, [r3, #4]
 1111 0046 002B     		cmp	r3, #0
 1112 0048 F5D1     		bne	.L98
1181:Middlewares/ST/STM32_SPWF0xSy/wifi_interface.c **** 
 1113              		.loc 1 1181 0 is_stmt 1
 1114 004a 2A4B     		ldr	r3, .L114+8
 1115 004c 1A78     		ldrb	r2, [r3]	@ zero_extendqisi2
 1116 004e 6FF30002 		bfc	r2, #0, #1
 1117 0052 1A70     		strb	r2, [r3]
1184:Middlewares/ST/STM32_SPWF0xSy/wifi_interface.c ****     {
 1118              		.loc 1 1184 0
 1119 0054 284B     		ldr	r3, .L114+12
 1120 0056 1B78     		ldrb	r3, [r3]	@ zero_extendqisi2
 1121 0058 13F0200F 		tst	r3, #32
 1122 005c 1ED1     		bne	.L99
1186:Middlewares/ST/STM32_SPWF0xSy/wifi_interface.c ****       while(!IO_status_flag.data_mode && wifi_client_connected)
 1123              		.loc 1 1186 0
 1124 005e FFF7FEFF 		bl	WiFi_switch_to_data_mode
 1125              	.LVL124:
1187:Middlewares/ST/STM32_SPWF0xSy/wifi_interface.c ****         {
 1126              		.loc 1 1187 0
 1127 0062 00E0     		b	.L100
 1128              	.L102:
1190:Middlewares/ST/STM32_SPWF0xSy/wifi_interface.c ****         }
 1129              		.loc 1 1190 0
 1130              		.syntax unified
 1131              	@ 1190 "Middlewares/ST/STM32_SPWF0xSy/wifi_interface.c" 1
 1132 0064 00BF     		nop
 1133              	@ 0 "" 2
 1134              		.thumb
 1135              		.syntax unified
 1136              	.L100:
1187:Middlewares/ST/STM32_SPWF0xSy/wifi_interface.c ****         {
 1137              		.loc 1 1187 0
 1138 0066 244B     		ldr	r3, .L114+12
 1139 0068 1B78     		ldrb	r3, [r3]	@ zero_extendqisi2
 1140 006a 13F0200F 		tst	r3, #32
 1141 006e 03D1     		bne	.L101
1187:Middlewares/ST/STM32_SPWF0xSy/wifi_interface.c ****         {
 1142              		.loc 1 1187 0 is_stmt 0 discriminator 1
 1143 0070 1E4B     		ldr	r3, .L114
 1144 0072 1B78     		ldrb	r3, [r3]	@ zero_extendqisi2
 1145 0074 002B     		cmp	r3, #0
 1146 0076 F5D1     		bne	.L102
 1147              	.L101:
1193:Middlewares/ST/STM32_SPWF0xSy/wifi_interface.c ****         {
 1148              		.loc 1 1193 0 is_stmt 1
 1149 0078 1C4B     		ldr	r3, .L114
 1150 007a 1B78     		ldrb	r3, [r3]	@ zero_extendqisi2
 1151 007c 73B9     		cbnz	r3, .L99
ARM GAS  D:\cygwin64\tmp\ccGmGipG.s 			page 47


1195:Middlewares/ST/STM32_SPWF0xSy/wifi_interface.c ****           __disable_irq();
 1152              		.loc 1 1195 0
 1153 007e 1D4B     		ldr	r3, .L114+8
 1154 0080 1A78     		ldrb	r2, [r3]	@ zero_extendqisi2
 1155 0082 42F00102 		orr	r2, r2, #1
 1156 0086 1A70     		strb	r2, [r3]
 1157              	.LBB18:
 1158              	.LBB19:
 1159              		.loc 2 142 0
 1160              		.syntax unified
 1161              	@ 142 "Drivers/CMSIS/Include/cmsis_gcc.h" 1
 1162 0088 72B6     		cpsid i
 1163              	@ 0 "" 2
 1164              		.thumb
 1165              		.syntax unified
 1166              	.LBE19:
 1167              	.LBE18:
1197:Middlewares/ST/STM32_SPWF0xSy/wifi_interface.c ****           WiFi_Control_Variables.do_not_reset_push_WIFI_event = WIFI_FALSE;
 1168              		.loc 1 1197 0
 1169 008a 1A79     		ldrb	r2, [r3, #4]	@ zero_extendqisi2
1198:Middlewares/ST/STM32_SPWF0xSy/wifi_interface.c ****           __enable_irq();
 1170              		.loc 1 1198 0
 1171 008c 02F0FE02 		and	r2, r2, #254
 1172 0090 6FF38202 		bfc	r2, #2, #1
 1173 0094 1A71     		strb	r2, [r3, #4]
 1174              	.LBB20:
 1175              	.LBB21:
 131:Drivers/CMSIS/Include/cmsis_gcc.h **** }
 1176              		.loc 2 131 0
 1177              		.syntax unified
 1178              	@ 131 "Drivers/CMSIS/Include/cmsis_gcc.h" 1
 1179 0096 62B6     		cpsie i
 1180              	@ 0 "" 2
 1181              		.thumb
 1182              		.syntax unified
 1183              	.LBE21:
 1184              	.LBE20:
1200:Middlewares/ST/STM32_SPWF0xSy/wifi_interface.c ****         }
 1185              		.loc 1 1200 0
 1186 0098 0224     		movs	r4, #2
 1187              	.LVL125:
 1188 009a B6E7     		b	.L95
 1189              	.LVL126:
 1190              	.L99:
1205:Middlewares/ST/STM32_SPWF0xSy/wifi_interface.c ****     {
 1191              		.loc 1 1205 0
 1192 009c 4FF47A73 		mov	r3, #1000
 1193 00a0 A2B2     		uxth	r2, r4
 1194 00a2 2946     		mov	r1, r5
 1195 00a4 1548     		ldr	r0, .L114+16
 1196 00a6 FFF7FEFF 		bl	HAL_UART_Transmit
 1197              	.LVL127:
 1198 00aa 90B9     		cbnz	r0, .L112
1159:Middlewares/ST/STM32_SPWF0xSy/wifi_interface.c ****   /* Can only write if there is a client connected */
 1199              		.loc 1 1159 0
 1200 00ac 0024     		movs	r4, #0
 1201              	.LVL128:
ARM GAS  D:\cygwin64\tmp\ccGmGipG.s 			page 48


 1202              	.L103:
1213:Middlewares/ST/STM32_SPWF0xSy/wifi_interface.c ****     {
 1203              		.loc 1 1213 0
 1204 00ae 124B     		ldr	r3, .L114+12
 1205 00b0 1B78     		ldrb	r3, [r3]	@ zero_extendqisi2
 1206 00b2 DB09     		lsrs	r3, r3, #7
 1207 00b4 11D0     		beq	.L113
 1208              	.L104:
1223:Middlewares/ST/STM32_SPWF0xSy/wifi_interface.c **** 
 1209              		.loc 1 1223 0
 1210 00b6 0F4B     		ldr	r3, .L114+8
 1211 00b8 1A78     		ldrb	r2, [r3]	@ zero_extendqisi2
 1212 00ba 42F00102 		orr	r2, r2, #1
 1213 00be 1A70     		strb	r2, [r3]
 1214              	.LBB22:
 1215              	.LBB23:
 1216              		.loc 2 142 0
 1217              		.syntax unified
 1218              	@ 142 "Drivers/CMSIS/Include/cmsis_gcc.h" 1
 1219 00c0 72B6     		cpsid i
 1220              	@ 0 "" 2
 1221              		.thumb
 1222              		.syntax unified
 1223              	.LBE23:
 1224              	.LBE22:
1226:Middlewares/ST/STM32_SPWF0xSy/wifi_interface.c ****   WiFi_Control_Variables.do_not_reset_push_WIFI_event = WIFI_FALSE;
 1225              		.loc 1 1226 0
 1226 00c2 1A79     		ldrb	r2, [r3, #4]	@ zero_extendqisi2
1227:Middlewares/ST/STM32_SPWF0xSy/wifi_interface.c ****   __enable_irq();
 1227              		.loc 1 1227 0
 1228 00c4 02F0FE02 		and	r2, r2, #254
 1229 00c8 6FF38202 		bfc	r2, #2, #1
 1230 00cc 1A71     		strb	r2, [r3, #4]
 1231              	.LBB24:
 1232              	.LBB25:
 131:Drivers/CMSIS/Include/cmsis_gcc.h **** }
 1233              		.loc 2 131 0
 1234              		.syntax unified
 1235              	@ 131 "Drivers/CMSIS/Include/cmsis_gcc.h" 1
 1236 00ce 62B6     		cpsie i
 1237              	@ 0 "" 2
 1238              		.thumb
 1239              		.syntax unified
 1240              	.LBE25:
 1241              	.LBE24:
1230:Middlewares/ST/STM32_SPWF0xSy/wifi_interface.c **** }
 1242              		.loc 1 1230 0
 1243 00d0 9BE7     		b	.L95
 1244              	.LVL129:
 1245              	.L112:
1207:Middlewares/ST/STM32_SPWF0xSy/wifi_interface.c ****       status = WiFi_HAL_UART_ERROR;
 1246              		.loc 1 1207 0
 1247 00d2 FFF7FEFF 		bl	WiFi_UART_Error_Handler
 1248              	.LVL130:
1208:Middlewares/ST/STM32_SPWF0xSy/wifi_interface.c ****     }
 1249              		.loc 1 1208 0
 1250 00d6 0F24     		movs	r4, #15
ARM GAS  D:\cygwin64\tmp\ccGmGipG.s 			page 49


 1251              	.LVL131:
 1252 00d8 E9E7     		b	.L103
 1253              	.LVL132:
 1254              	.L113:
1215:Middlewares/ST/STM32_SPWF0xSy/wifi_interface.c ****       while(!IO_status_flag.command_mode)
 1255              		.loc 1 1215 0
 1256 00da FFF7FEFF 		bl	WiFi_switch_to_command_mode
 1257              	.LVL133:
1216:Middlewares/ST/STM32_SPWF0xSy/wifi_interface.c ****         {
 1258              		.loc 1 1216 0
 1259 00de 00E0     		b	.L105
 1260              	.L106:
1219:Middlewares/ST/STM32_SPWF0xSy/wifi_interface.c ****         }
 1261              		.loc 1 1219 0
 1262              		.syntax unified
 1263              	@ 1219 "Middlewares/ST/STM32_SPWF0xSy/wifi_interface.c" 1
 1264 00e0 00BF     		nop
 1265              	@ 0 "" 2
 1266              		.thumb
 1267              		.syntax unified
 1268              	.L105:
1216:Middlewares/ST/STM32_SPWF0xSy/wifi_interface.c ****         {
 1269              		.loc 1 1216 0
 1270 00e2 054B     		ldr	r3, .L114+12
 1271 00e4 1B78     		ldrb	r3, [r3]	@ zero_extendqisi2
 1272 00e6 DB09     		lsrs	r3, r3, #7
 1273 00e8 FAD0     		beq	.L106
 1274 00ea E4E7     		b	.L104
 1275              	.L115:
 1276              		.align	2
 1277              	.L114:
 1278 00ec 00000000 		.word	wifi_client_connected
 1279 00f0 00000000 		.word	WiFi_Counter_Variables
 1280 00f4 00000000 		.word	WiFi_Control_Variables
 1281 00f8 00000000 		.word	IO_status_flag
 1282 00fc 00000000 		.word	UartWiFiHandle
 1283              		.cfi_endproc
 1284              	.LFE288:
 1286              		.section	.text.wifi_file_delete,"ax",%progbits
 1287              		.align	1
 1288              		.global	wifi_file_delete
 1289              		.syntax unified
 1290              		.thumb
 1291              		.thumb_func
 1292              		.fpu fpv4-sp-d16
 1294              	wifi_file_delete:
 1295              	.LFB291:
1281:Middlewares/ST/STM32_SPWF0xSy/wifi_interface.c **** #endif
1282:Middlewares/ST/STM32_SPWF0xSy/wifi_interface.c **** 
1283:Middlewares/ST/STM32_SPWF0xSy/wifi_interface.c **** #ifdef SPWF04
1284:Middlewares/ST/STM32_SPWF0xSy/wifi_interface.c **** /**
1285:Middlewares/ST/STM32_SPWF0xSy/wifi_interface.c **** * @brief  wifi_file_rename
1286:Middlewares/ST/STM32_SPWF0xSy/wifi_interface.c **** *         Rename an existing file
1287:Middlewares/ST/STM32_SPWF0xSy/wifi_interface.c **** * @param  FileName : Filename to be renamed
1288:Middlewares/ST/STM32_SPWF0xSy/wifi_interface.c **** *         Mod_FileName : New File Name
1289:Middlewares/ST/STM32_SPWF0xSy/wifi_interface.c **** * @retval WiFi_Status_t : return status of AT cmd request
1290:Middlewares/ST/STM32_SPWF0xSy/wifi_interface.c **** */
ARM GAS  D:\cygwin64\tmp\ccGmGipG.s 			page 50


1291:Middlewares/ST/STM32_SPWF0xSy/wifi_interface.c **** WiFi_Status_t wifi_file_rename(char *FileName, char *Mod_FileName)
1292:Middlewares/ST/STM32_SPWF0xSy/wifi_interface.c **** {
1293:Middlewares/ST/STM32_SPWF0xSy/wifi_interface.c ****   WiFi_Status_t status = WiFi_MODULE_SUCCESS;
1294:Middlewares/ST/STM32_SPWF0xSy/wifi_interface.c **** 
1295:Middlewares/ST/STM32_SPWF0xSy/wifi_interface.c ****   if(FileName ==NULL || Mod_FileName == NULL)
1296:Middlewares/ST/STM32_SPWF0xSy/wifi_interface.c ****     return WiFi_MODULE_ERROR;
1297:Middlewares/ST/STM32_SPWF0xSy/wifi_interface.c **** 
1298:Middlewares/ST/STM32_SPWF0xSy/wifi_interface.c ****   Queue_File_Event(FileName,Mod_FileName,-1,-1);
1299:Middlewares/ST/STM32_SPWF0xSy/wifi_interface.c ****   status = USART_Receive_AT_Resp( );
1300:Middlewares/ST/STM32_SPWF0xSy/wifi_interface.c ****   return status;
1301:Middlewares/ST/STM32_SPWF0xSy/wifi_interface.c **** }
1302:Middlewares/ST/STM32_SPWF0xSy/wifi_interface.c **** #endif
1303:Middlewares/ST/STM32_SPWF0xSy/wifi_interface.c **** 
1304:Middlewares/ST/STM32_SPWF0xSy/wifi_interface.c **** #ifdef SPWF04
1305:Middlewares/ST/STM32_SPWF0xSy/wifi_interface.c **** #ifndef WIFI_USE_VCOM  
1306:Middlewares/ST/STM32_SPWF0xSy/wifi_interface.c **** /**
1307:Middlewares/ST/STM32_SPWF0xSy/wifi_interface.c **** * @brief  wifi_unmount_user_memory
1308:Middlewares/ST/STM32_SPWF0xSy/wifi_interface.c **** *         Unmount/erase user memory volumes
1309:Middlewares/ST/STM32_SPWF0xSy/wifi_interface.c **** * @param  Volume : Indicates the memory volume. Default: 0.  <1:User Flash 0:SD Card>
1310:Middlewares/ST/STM32_SPWF0xSy/wifi_interface.c **** *         Erase  : Default: 0. when 1, the specified volume is erased.
1311:Middlewares/ST/STM32_SPWF0xSy/wifi_interface.c **** * @retval WiFi_Status_t : return status of AT cmd request
1312:Middlewares/ST/STM32_SPWF0xSy/wifi_interface.c **** */
1313:Middlewares/ST/STM32_SPWF0xSy/wifi_interface.c **** WiFi_Status_t wifi_unmount_user_memory(int8_t volume, int8_t erase)
1314:Middlewares/ST/STM32_SPWF0xSy/wifi_interface.c **** {
1315:Middlewares/ST/STM32_SPWF0xSy/wifi_interface.c ****   WiFi_Status_t status = WiFi_MODULE_SUCCESS;
1316:Middlewares/ST/STM32_SPWF0xSy/wifi_interface.c ****   
1317:Middlewares/ST/STM32_SPWF0xSy/wifi_interface.c ****   volume = (volume==-1)?0:volume;
1318:Middlewares/ST/STM32_SPWF0xSy/wifi_interface.c ****   erase = (erase==-1)?0:erase;
1319:Middlewares/ST/STM32_SPWF0xSy/wifi_interface.c ****   Queue_File_Event(NULL,NULL,volume,erase);
1320:Middlewares/ST/STM32_SPWF0xSy/wifi_interface.c ****   status = USART_Receive_AT_Resp( );
1321:Middlewares/ST/STM32_SPWF0xSy/wifi_interface.c ****   return status; 
1322:Middlewares/ST/STM32_SPWF0xSy/wifi_interface.c **** }
1323:Middlewares/ST/STM32_SPWF0xSy/wifi_interface.c **** #endif
1324:Middlewares/ST/STM32_SPWF0xSy/wifi_interface.c **** #endif
1325:Middlewares/ST/STM32_SPWF0xSy/wifi_interface.c **** 
1326:Middlewares/ST/STM32_SPWF0xSy/wifi_interface.c **** /**
1327:Middlewares/ST/STM32_SPWF0xSy/wifi_interface.c **** * @brief  wifi_file_delete
1328:Middlewares/ST/STM32_SPWF0xSy/wifi_interface.c **** *         Delete a file
1329:Middlewares/ST/STM32_SPWF0xSy/wifi_interface.c **** * @param  FileName : File Name to be deleted
1330:Middlewares/ST/STM32_SPWF0xSy/wifi_interface.c **** * @retval WiFi_Status_t : return status of delete file request
1331:Middlewares/ST/STM32_SPWF0xSy/wifi_interface.c **** */
1332:Middlewares/ST/STM32_SPWF0xSy/wifi_interface.c **** WiFi_Status_t wifi_file_delete(char *FileName)
1333:Middlewares/ST/STM32_SPWF0xSy/wifi_interface.c **** {
 1296              		.loc 1 1333 0
 1297              		.cfi_startproc
 1298              		@ args = 0, pretend = 0, frame = 0
 1299              		@ frame_needed = 0, uses_anonymous_args = 0
 1300              	.LVL134:
1334:Middlewares/ST/STM32_SPWF0xSy/wifi_interface.c ****   if(FileName==NULL)
 1301              		.loc 1 1334 0
 1302 0000 48B1     		cbz	r0, .L118
1333:Middlewares/ST/STM32_SPWF0xSy/wifi_interface.c ****   if(FileName==NULL)
 1303              		.loc 1 1333 0
 1304 0002 08B5     		push	{r3, lr}
 1305              	.LCFI17:
 1306              		.cfi_def_cfa_offset 8
 1307              		.cfi_offset 3, -8
ARM GAS  D:\cygwin64\tmp\ccGmGipG.s 			page 51


 1308              		.cfi_offset 14, -4
 1309              	.LVL135:
1335:Middlewares/ST/STM32_SPWF0xSy/wifi_interface.c ****     return WiFi_MODULE_ERROR;
1336:Middlewares/ST/STM32_SPWF0xSy/wifi_interface.c **** 
1337:Middlewares/ST/STM32_SPWF0xSy/wifi_interface.c ****   WiFi_Status_t status = WiFi_MODULE_SUCCESS;  
1338:Middlewares/ST/STM32_SPWF0xSy/wifi_interface.c ****   Queue_File_Event(FileName,NULL,-1,-1);
 1310              		.loc 1 1338 0
 1311 0004 4FF0FF33 		mov	r3, #-1
 1312 0008 1A46     		mov	r2, r3
 1313 000a 0021     		movs	r1, #0
 1314 000c FFF7FEFF 		bl	Queue_File_Event
 1315              	.LVL136:
1339:Middlewares/ST/STM32_SPWF0xSy/wifi_interface.c ****   
1340:Middlewares/ST/STM32_SPWF0xSy/wifi_interface.c ****   status = USART_Receive_AT_Resp( );
 1316              		.loc 1 1340 0
 1317 0010 FFF7FEFF 		bl	USART_Receive_AT_Resp
 1318              	.LVL137:
1341:Middlewares/ST/STM32_SPWF0xSy/wifi_interface.c **** 
1342:Middlewares/ST/STM32_SPWF0xSy/wifi_interface.c ****   return status; 
 1319              		.loc 1 1342 0
 1320 0014 08BD     		pop	{r3, pc}
 1321              	.LVL138:
 1322              	.L118:
 1323              	.LCFI18:
 1324              		.cfi_def_cfa_offset 0
 1325              		.cfi_restore 3
 1326              		.cfi_restore 14
1335:Middlewares/ST/STM32_SPWF0xSy/wifi_interface.c **** 
 1327              		.loc 1 1335 0
 1328 0016 0220     		movs	r0, #2
 1329              	.LVL139:
 1330 0018 7047     		bx	lr
 1331              		.cfi_endproc
 1332              	.LFE291:
 1334              		.section	.text.wifi_file_list,"ax",%progbits
 1335              		.align	1
 1336              		.global	wifi_file_list
 1337              		.syntax unified
 1338              		.thumb
 1339              		.thumb_func
 1340              		.fpu fpv4-sp-d16
 1342              	wifi_file_list:
 1343              	.LFB292:
1343:Middlewares/ST/STM32_SPWF0xSy/wifi_interface.c **** }
1344:Middlewares/ST/STM32_SPWF0xSy/wifi_interface.c **** 
1345:Middlewares/ST/STM32_SPWF0xSy/wifi_interface.c **** 
1346:Middlewares/ST/STM32_SPWF0xSy/wifi_interface.c **** /**
1347:Middlewares/ST/STM32_SPWF0xSy/wifi_interface.c **** * @brief  wifi_file_list
1348:Middlewares/ST/STM32_SPWF0xSy/wifi_interface.c **** *         List existing filename
1349:Middlewares/ST/STM32_SPWF0xSy/wifi_interface.c **** * @param  None
1350:Middlewares/ST/STM32_SPWF0xSy/wifi_interface.c **** * @retval WiFi_Status_t : return status of AT cmd request
1351:Middlewares/ST/STM32_SPWF0xSy/wifi_interface.c **** */
1352:Middlewares/ST/STM32_SPWF0xSy/wifi_interface.c **** 
1353:Middlewares/ST/STM32_SPWF0xSy/wifi_interface.c **** WiFi_Status_t wifi_file_list()
1354:Middlewares/ST/STM32_SPWF0xSy/wifi_interface.c **** {
 1344              		.loc 1 1354 0
 1345              		.cfi_startproc
ARM GAS  D:\cygwin64\tmp\ccGmGipG.s 			page 52


 1346              		@ args = 0, pretend = 0, frame = 0
 1347              		@ frame_needed = 0, uses_anonymous_args = 0
 1348 0000 00B5     		push	{lr}
 1349              	.LCFI19:
 1350              		.cfi_def_cfa_offset 4
 1351              		.cfi_offset 14, -4
 1352 0002 83B0     		sub	sp, sp, #12
 1353              	.LCFI20:
 1354              		.cfi_def_cfa_offset 16
 1355              	.LVL140:
1355:Middlewares/ST/STM32_SPWF0xSy/wifi_interface.c ****   WiFi_Status_t status = WiFi_MODULE_SUCCESS;  
1356:Middlewares/ST/STM32_SPWF0xSy/wifi_interface.c ****   Queue_Wifi_File_Event(NULL,NULL,0,-1,-1);
 1356              		.loc 1 1356 0
 1357 0004 4FF0FF33 		mov	r3, #-1
 1358 0008 0093     		str	r3, [sp]
 1359 000a 0022     		movs	r2, #0
 1360 000c 1146     		mov	r1, r2
 1361 000e 1046     		mov	r0, r2
 1362 0010 FFF7FEFF 		bl	Queue_Wifi_File_Event
 1363              	.LVL141:
1357:Middlewares/ST/STM32_SPWF0xSy/wifi_interface.c ****   status = USART_Receive_AT_Resp( );
 1364              		.loc 1 1357 0
 1365 0014 FFF7FEFF 		bl	USART_Receive_AT_Resp
 1366              	.LVL142:
1358:Middlewares/ST/STM32_SPWF0xSy/wifi_interface.c ****   return status;
1359:Middlewares/ST/STM32_SPWF0xSy/wifi_interface.c **** }
 1367              		.loc 1 1359 0
 1368 0018 03B0     		add	sp, sp, #12
 1369              	.LCFI21:
 1370              		.cfi_def_cfa_offset 4
 1371              		@ sp needed
 1372 001a 5DF804FB 		ldr	pc, [sp], #4
 1373              		.cfi_endproc
 1374              	.LFE292:
 1376              		.section	.text.wifi_file_print_content,"ax",%progbits
 1377              		.align	1
 1378              		.global	wifi_file_print_content
 1379              		.syntax unified
 1380              		.thumb
 1381              		.thumb_func
 1382              		.fpu fpv4-sp-d16
 1384              	wifi_file_print_content:
 1385              	.LFB293:
1360:Middlewares/ST/STM32_SPWF0xSy/wifi_interface.c **** 
1361:Middlewares/ST/STM32_SPWF0xSy/wifi_interface.c **** /**
1362:Middlewares/ST/STM32_SPWF0xSy/wifi_interface.c **** * @brief  wifi_file_print_content
1363:Middlewares/ST/STM32_SPWF0xSy/wifi_interface.c **** *         Print the contents of an existing file
1364:Middlewares/ST/STM32_SPWF0xSy/wifi_interface.c **** * @param  FileName : Name of the File whose content is to be printed.
1365:Middlewares/ST/STM32_SPWF0xSy/wifi_interface.c **** * @retval WiFi_Status_t : return status of AT cmd request
1366:Middlewares/ST/STM32_SPWF0xSy/wifi_interface.c **** */
1367:Middlewares/ST/STM32_SPWF0xSy/wifi_interface.c **** WiFi_Status_t wifi_file_print_content(uint8_t * FileName)
1368:Middlewares/ST/STM32_SPWF0xSy/wifi_interface.c **** {
 1386              		.loc 1 1368 0
 1387              		.cfi_startproc
 1388              		@ args = 0, pretend = 0, frame = 0
 1389              		@ frame_needed = 0, uses_anonymous_args = 0
 1390              	.LVL143:
ARM GAS  D:\cygwin64\tmp\ccGmGipG.s 			page 53


1369:Middlewares/ST/STM32_SPWF0xSy/wifi_interface.c ****   if(FileName==NULL)
 1391              		.loc 1 1369 0
 1392 0000 70B1     		cbz	r0, .L127
1368:Middlewares/ST/STM32_SPWF0xSy/wifi_interface.c ****   if(FileName==NULL)
 1393              		.loc 1 1368 0
 1394 0002 00B5     		push	{lr}
 1395              	.LCFI22:
 1396              		.cfi_def_cfa_offset 4
 1397              		.cfi_offset 14, -4
 1398 0004 83B0     		sub	sp, sp, #12
 1399              	.LCFI23:
 1400              		.cfi_def_cfa_offset 16
 1401 0006 0146     		mov	r1, r0
 1402              	.LVL144:
1370:Middlewares/ST/STM32_SPWF0xSy/wifi_interface.c ****       return WiFi_MODULE_ERROR;
1371:Middlewares/ST/STM32_SPWF0xSy/wifi_interface.c **** 
1372:Middlewares/ST/STM32_SPWF0xSy/wifi_interface.c ****   WiFi_Status_t status = WiFi_MODULE_SUCCESS;  
1373:Middlewares/ST/STM32_SPWF0xSy/wifi_interface.c ****   Queue_Wifi_File_Event(NULL,FileName,0,-1,-1);
 1403              		.loc 1 1373 0
 1404 0008 4FF0FF33 		mov	r3, #-1
 1405 000c 0093     		str	r3, [sp]
 1406 000e 0022     		movs	r2, #0
 1407 0010 1046     		mov	r0, r2
 1408              	.LVL145:
 1409 0012 FFF7FEFF 		bl	Queue_Wifi_File_Event
 1410              	.LVL146:
1374:Middlewares/ST/STM32_SPWF0xSy/wifi_interface.c ****   status = USART_Receive_AT_Resp( );
 1411              		.loc 1 1374 0
 1412 0016 FFF7FEFF 		bl	USART_Receive_AT_Resp
 1413              	.LVL147:
1375:Middlewares/ST/STM32_SPWF0xSy/wifi_interface.c ****   return status; 
1376:Middlewares/ST/STM32_SPWF0xSy/wifi_interface.c **** }
 1414              		.loc 1 1376 0
 1415 001a 03B0     		add	sp, sp, #12
 1416              	.LCFI24:
 1417              		.cfi_def_cfa_offset 4
 1418              		@ sp needed
 1419 001c 5DF804FB 		ldr	pc, [sp], #4
 1420              	.LVL148:
 1421              	.L127:
 1422              	.LCFI25:
 1423              		.cfi_def_cfa_offset 0
 1424              		.cfi_restore 14
1370:Middlewares/ST/STM32_SPWF0xSy/wifi_interface.c **** 
 1425              		.loc 1 1370 0
 1426 0020 0220     		movs	r0, #2
 1427              	.LVL149:
 1428 0022 7047     		bx	lr
 1429              		.cfi_endproc
 1430              	.LFE293:
 1432              		.section	.text.wifi_file_create,"ax",%progbits
 1433              		.align	1
 1434              		.global	wifi_file_create
 1435              		.syntax unified
 1436              		.thumb
 1437              		.thumb_func
 1438              		.fpu fpv4-sp-d16
ARM GAS  D:\cygwin64\tmp\ccGmGipG.s 			page 54


 1440              	wifi_file_create:
 1441              	.LFB294:
1377:Middlewares/ST/STM32_SPWF0xSy/wifi_interface.c **** 
1378:Middlewares/ST/STM32_SPWF0xSy/wifi_interface.c **** #if defined(SPWF01) && defined(CONSOLE_UART_ENABLED)
1379:Middlewares/ST/STM32_SPWF0xSy/wifi_interface.c **** /**
1380:Middlewares/ST/STM32_SPWF0xSy/wifi_interface.c **** * @brief  wifi_file_create
1381:Middlewares/ST/STM32_SPWF0xSy/wifi_interface.c **** *         Create file for HTTP server
1382:Middlewares/ST/STM32_SPWF0xSy/wifi_interface.c **** * @param  FileName : Name of the file to be created
1383:Middlewares/ST/STM32_SPWF0xSy/wifi_interface.c **** *         length   : length of file
1384:Middlewares/ST/STM32_SPWF0xSy/wifi_interface.c **** *         UserFileBuff : pointer to the buffer
1385:Middlewares/ST/STM32_SPWF0xSy/wifi_interface.c **** * @retval WiFi_Status_t : return status of AT cmd request
1386:Middlewares/ST/STM32_SPWF0xSy/wifi_interface.c **** */
1387:Middlewares/ST/STM32_SPWF0xSy/wifi_interface.c **** WiFi_Status_t wifi_file_create(char *FileName, uint16_t length, char *UserFileBuff)
1388:Middlewares/ST/STM32_SPWF0xSy/wifi_interface.c **** {
 1442              		.loc 1 1388 0
 1443              		.cfi_startproc
 1444              		@ args = 0, pretend = 0, frame = 0
 1445              		@ frame_needed = 0, uses_anonymous_args = 0
 1446              	.LVL150:
 1447 0000 F8B5     		push	{r3, r4, r5, r6, r7, lr}
 1448              	.LCFI26:
 1449              		.cfi_def_cfa_offset 24
 1450              		.cfi_offset 3, -24
 1451              		.cfi_offset 4, -20
 1452              		.cfi_offset 5, -16
 1453              		.cfi_offset 6, -12
 1454              		.cfi_offset 7, -8
 1455              		.cfi_offset 14, -4
 1456              	.LVL151:
1389:Middlewares/ST/STM32_SPWF0xSy/wifi_interface.c ****   WiFi_Status_t status = WiFi_MODULE_SUCCESS;
1390:Middlewares/ST/STM32_SPWF0xSy/wifi_interface.c ****  
1391:Middlewares/ST/STM32_SPWF0xSy/wifi_interface.c ****   if(length >1024)
 1457              		.loc 1 1391 0
 1458 0002 B1F5806F 		cmp	r1, #1024
 1459 0006 02D9     		bls	.L137
1392:Middlewares/ST/STM32_SPWF0xSy/wifi_interface.c ****     return WiFi_AT_FILE_LENGTH_ERROR;
 1460              		.loc 1 1392 0
 1461 0008 0E23     		movs	r3, #14
 1462              	.LVL152:
 1463              	.L133:
1393:Middlewares/ST/STM32_SPWF0xSy/wifi_interface.c ****  
1394:Middlewares/ST/STM32_SPWF0xSy/wifi_interface.c ****   Reset_AT_CMD_Buffer();
1395:Middlewares/ST/STM32_SPWF0xSy/wifi_interface.c ****  
1396:Middlewares/ST/STM32_SPWF0xSy/wifi_interface.c ****   /* AT+S.FSC=/index.html  */
1397:Middlewares/ST/STM32_SPWF0xSy/wifi_interface.c ****   sprintf((char*)WiFi_AT_Cmd_Buff, AT_CREATE_FILE, FileName, length);
1398:Middlewares/ST/STM32_SPWF0xSy/wifi_interface.c ****  
1399:Middlewares/ST/STM32_SPWF0xSy/wifi_interface.c ****   status = USART_Transmit_AT_Cmd(strlen((char*)WiFi_AT_Cmd_Buff));
1400:Middlewares/ST/STM32_SPWF0xSy/wifi_interface.c ****   if(status == WiFi_MODULE_SUCCESS)
1401:Middlewares/ST/STM32_SPWF0xSy/wifi_interface.c ****   {
1402:Middlewares/ST/STM32_SPWF0xSy/wifi_interface.c ****     status = USART_Receive_AT_Resp( );
1403:Middlewares/ST/STM32_SPWF0xSy/wifi_interface.c ****     int len = strlen(UserFileBuff);
1404:Middlewares/ST/STM32_SPWF0xSy/wifi_interface.c ****  
1405:Middlewares/ST/STM32_SPWF0xSy/wifi_interface.c ****     if(len >= 1024)
1406:Middlewares/ST/STM32_SPWF0xSy/wifi_interface.c ****        return WiFi_AT_FILE_LENGTH_ERROR;
1407:Middlewares/ST/STM32_SPWF0xSy/wifi_interface.c ****  
1408:Middlewares/ST/STM32_SPWF0xSy/wifi_interface.c ****     /* AT+S.FSA=/index.html  */
1409:Middlewares/ST/STM32_SPWF0xSy/wifi_interface.c ****     sprintf((char*)WiFi_AT_Cmd_Buff,AT_APPEND_FILE,FileName,len);
ARM GAS  D:\cygwin64\tmp\ccGmGipG.s 			page 55


1410:Middlewares/ST/STM32_SPWF0xSy/wifi_interface.c ****  
1411:Middlewares/ST/STM32_SPWF0xSy/wifi_interface.c ****     status = USART_Transmit_AT_Cmd(strlen((char*)WiFi_AT_Cmd_Buff));
1412:Middlewares/ST/STM32_SPWF0xSy/wifi_interface.c ****     if(status == WiFi_MODULE_SUCCESS)
1413:Middlewares/ST/STM32_SPWF0xSy/wifi_interface.c ****     {
1414:Middlewares/ST/STM32_SPWF0xSy/wifi_interface.c ****       memset(WiFi_AT_Cmd_Buff, 0x00, sizeof WiFi_AT_Cmd_Buff);
1415:Middlewares/ST/STM32_SPWF0xSy/wifi_interface.c ****       memcpy((char*)WiFi_AT_Cmd_Buff, (char*) UserFileBuff,len);
1416:Middlewares/ST/STM32_SPWF0xSy/wifi_interface.c ****       WiFi_AT_Cmd_Buff[len+1]='\r';
1417:Middlewares/ST/STM32_SPWF0xSy/wifi_interface.c ****       status = USART_Transmit_AT_Cmd(strlen((char*)WiFi_AT_Cmd_Buff));
1418:Middlewares/ST/STM32_SPWF0xSy/wifi_interface.c ****       if(status == WiFi_MODULE_SUCCESS)
1419:Middlewares/ST/STM32_SPWF0xSy/wifi_interface.c ****       {
1420:Middlewares/ST/STM32_SPWF0xSy/wifi_interface.c ****         status = USART_Receive_AT_Resp( );
1421:Middlewares/ST/STM32_SPWF0xSy/wifi_interface.c ****       }
1422:Middlewares/ST/STM32_SPWF0xSy/wifi_interface.c ****     }
1423:Middlewares/ST/STM32_SPWF0xSy/wifi_interface.c ****   }
1424:Middlewares/ST/STM32_SPWF0xSy/wifi_interface.c ****   return status; 
1425:Middlewares/ST/STM32_SPWF0xSy/wifi_interface.c **** }
 1464              		.loc 1 1425 0
 1465 000a 1846     		mov	r0, r3
 1466 000c F8BD     		pop	{r3, r4, r5, r6, r7, pc}
 1467              	.LVL153:
 1468              	.L137:
 1469 000e 1646     		mov	r6, r2
 1470 0010 0C46     		mov	r4, r1
 1471 0012 0546     		mov	r5, r0
1394:Middlewares/ST/STM32_SPWF0xSy/wifi_interface.c ****  
 1472              		.loc 1 1394 0
 1473 0014 FFF7FEFF 		bl	Reset_AT_CMD_Buffer
 1474              	.LVL154:
1397:Middlewares/ST/STM32_SPWF0xSy/wifi_interface.c ****  
 1475              		.loc 1 1397 0
 1476 0018 224F     		ldr	r7, .L139
 1477 001a 2346     		mov	r3, r4
 1478 001c 2A46     		mov	r2, r5
 1479 001e 2249     		ldr	r1, .L139+4
 1480 0020 3846     		mov	r0, r7
 1481 0022 FFF7FEFF 		bl	sprintf
 1482              	.LVL155:
1399:Middlewares/ST/STM32_SPWF0xSy/wifi_interface.c ****   if(status == WiFi_MODULE_SUCCESS)
 1483              		.loc 1 1399 0
 1484 0026 3846     		mov	r0, r7
 1485 0028 FFF7FEFF 		bl	strlen
 1486              	.LVL156:
 1487 002c 80B2     		uxth	r0, r0
 1488 002e FFF7FEFF 		bl	USART_Transmit_AT_Cmd
 1489              	.LVL157:
1400:Middlewares/ST/STM32_SPWF0xSy/wifi_interface.c ****   {
 1490              		.loc 1 1400 0
 1491 0032 0346     		mov	r3, r0
 1492 0034 0028     		cmp	r0, #0
 1493 0036 E8D1     		bne	.L133
 1494              	.LBB26:
1402:Middlewares/ST/STM32_SPWF0xSy/wifi_interface.c ****     int len = strlen(UserFileBuff);
 1495              		.loc 1 1402 0
 1496 0038 FFF7FEFF 		bl	USART_Receive_AT_Resp
 1497              	.LVL158:
1403:Middlewares/ST/STM32_SPWF0xSy/wifi_interface.c ****  
 1498              		.loc 1 1403 0
ARM GAS  D:\cygwin64\tmp\ccGmGipG.s 			page 56


 1499 003c 3046     		mov	r0, r6
 1500 003e FFF7FEFF 		bl	strlen
 1501              	.LVL159:
 1502 0042 0446     		mov	r4, r0
 1503              	.LVL160:
1405:Middlewares/ST/STM32_SPWF0xSy/wifi_interface.c ****        return WiFi_AT_FILE_LENGTH_ERROR;
 1504              		.loc 1 1405 0
 1505 0044 B0F5806F 		cmp	r0, #1024
 1506 0048 01DB     		blt	.L138
1406:Middlewares/ST/STM32_SPWF0xSy/wifi_interface.c ****  
 1507              		.loc 1 1406 0
 1508 004a 0E23     		movs	r3, #14
 1509 004c DDE7     		b	.L133
 1510              	.L138:
1409:Middlewares/ST/STM32_SPWF0xSy/wifi_interface.c ****  
 1511              		.loc 1 1409 0
 1512 004e 0346     		mov	r3, r0
 1513 0050 2A46     		mov	r2, r5
 1514 0052 1649     		ldr	r1, .L139+8
 1515 0054 3846     		mov	r0, r7
 1516              	.LVL161:
 1517 0056 FFF7FEFF 		bl	sprintf
 1518              	.LVL162:
1411:Middlewares/ST/STM32_SPWF0xSy/wifi_interface.c ****     if(status == WiFi_MODULE_SUCCESS)
 1519              		.loc 1 1411 0
 1520 005a 3846     		mov	r0, r7
 1521 005c FFF7FEFF 		bl	strlen
 1522              	.LVL163:
 1523 0060 80B2     		uxth	r0, r0
 1524 0062 FFF7FEFF 		bl	USART_Transmit_AT_Cmd
 1525              	.LVL164:
1412:Middlewares/ST/STM32_SPWF0xSy/wifi_interface.c ****     {
 1526              		.loc 1 1412 0
 1527 0066 0346     		mov	r3, r0
 1528 0068 0028     		cmp	r0, #0
 1529 006a CED1     		bne	.L133
1414:Middlewares/ST/STM32_SPWF0xSy/wifi_interface.c ****       memcpy((char*)WiFi_AT_Cmd_Buff, (char*) UserFileBuff,len);
 1530              		.loc 1 1414 0
 1531 006c 4FF40062 		mov	r2, #2048
 1532 0070 0021     		movs	r1, #0
 1533 0072 3846     		mov	r0, r7
 1534              	.LVL165:
 1535 0074 FFF7FEFF 		bl	memset
 1536              	.LVL166:
1415:Middlewares/ST/STM32_SPWF0xSy/wifi_interface.c ****       WiFi_AT_Cmd_Buff[len+1]='\r';
 1537              		.loc 1 1415 0
 1538 0078 2246     		mov	r2, r4
 1539 007a 3146     		mov	r1, r6
 1540 007c 3846     		mov	r0, r7
 1541 007e FFF7FEFF 		bl	memcpy
 1542              	.LVL167:
1416:Middlewares/ST/STM32_SPWF0xSy/wifi_interface.c ****       status = USART_Transmit_AT_Cmd(strlen((char*)WiFi_AT_Cmd_Buff));
 1543              		.loc 1 1416 0
 1544 0082 0134     		adds	r4, r4, #1
 1545              	.LVL168:
 1546 0084 0D23     		movs	r3, #13
 1547 0086 3B55     		strb	r3, [r7, r4]
ARM GAS  D:\cygwin64\tmp\ccGmGipG.s 			page 57


1417:Middlewares/ST/STM32_SPWF0xSy/wifi_interface.c ****       if(status == WiFi_MODULE_SUCCESS)
 1548              		.loc 1 1417 0
 1549 0088 3846     		mov	r0, r7
 1550 008a FFF7FEFF 		bl	strlen
 1551              	.LVL169:
 1552 008e 80B2     		uxth	r0, r0
 1553 0090 FFF7FEFF 		bl	USART_Transmit_AT_Cmd
 1554              	.LVL170:
1418:Middlewares/ST/STM32_SPWF0xSy/wifi_interface.c ****       {
 1555              		.loc 1 1418 0
 1556 0094 0346     		mov	r3, r0
 1557 0096 0028     		cmp	r0, #0
 1558 0098 B7D1     		bne	.L133
1420:Middlewares/ST/STM32_SPWF0xSy/wifi_interface.c ****       }
 1559              		.loc 1 1420 0
 1560 009a FFF7FEFF 		bl	USART_Receive_AT_Resp
 1561              	.LVL171:
 1562 009e 0346     		mov	r3, r0
 1563              	.LVL172:
 1564 00a0 B3E7     		b	.L133
 1565              	.L140:
 1566 00a2 00BF     		.align	2
 1567              	.L139:
 1568 00a4 00000000 		.word	WiFi_AT_Cmd_Buff
 1569 00a8 00000000 		.word	.LC9
 1570 00ac 14000000 		.word	.LC10
 1571              	.LBE26:
 1572              		.cfi_endproc
 1573              	.LFE294:
 1575              		.section	.text.wifi_fill_input_buffer,"ax",%progbits
 1576              		.align	1
 1577              		.global	wifi_fill_input_buffer
 1578              		.syntax unified
 1579              		.thumb
 1580              		.thumb_func
 1581              		.fpu fpv4-sp-d16
 1583              	wifi_fill_input_buffer:
 1584              	.LFB295:
1426:Middlewares/ST/STM32_SPWF0xSy/wifi_interface.c **** #else
1427:Middlewares/ST/STM32_SPWF0xSy/wifi_interface.c **** /**
1428:Middlewares/ST/STM32_SPWF0xSy/wifi_interface.c **** * @brief  wifi_file_create
1429:Middlewares/ST/STM32_SPWF0xSy/wifi_interface.c **** *         Create file for HTTP server
1430:Middlewares/ST/STM32_SPWF0xSy/wifi_interface.c **** * @param  FileName : Name of the file to be created
1431:Middlewares/ST/STM32_SPWF0xSy/wifi_interface.c **** *         length   : length of file
1432:Middlewares/ST/STM32_SPWF0xSy/wifi_interface.c **** *         UserFileBuff : pointer to the buffer
1433:Middlewares/ST/STM32_SPWF0xSy/wifi_interface.c **** * @retval WiFi_Status_t : return status of AT cmd request
1434:Middlewares/ST/STM32_SPWF0xSy/wifi_interface.c **** */
1435:Middlewares/ST/STM32_SPWF0xSy/wifi_interface.c **** 
1436:Middlewares/ST/STM32_SPWF0xSy/wifi_interface.c **** WiFi_Status_t wifi_file_create(char *FileName, uint16_t length, char *UserFileBuff)
1437:Middlewares/ST/STM32_SPWF0xSy/wifi_interface.c **** {
1438:Middlewares/ST/STM32_SPWF0xSy/wifi_interface.c ****   WiFi_Status_t status = WiFi_MODULE_SUCCESS;
1439:Middlewares/ST/STM32_SPWF0xSy/wifi_interface.c ****   Reset_AT_CMD_Buffer();
1440:Middlewares/ST/STM32_SPWF0xSy/wifi_interface.c ****  
1441:Middlewares/ST/STM32_SPWF0xSy/wifi_interface.c ****   if(FileName==NULL || UserFileBuff==NULL)
1442:Middlewares/ST/STM32_SPWF0xSy/wifi_interface.c ****     return WiFi_MODULE_ERROR;
1443:Middlewares/ST/STM32_SPWF0xSy/wifi_interface.c **** 
1444:Middlewares/ST/STM32_SPWF0xSy/wifi_interface.c ****   if(length > 1024)
ARM GAS  D:\cygwin64\tmp\ccGmGipG.s 			page 58


1445:Middlewares/ST/STM32_SPWF0xSy/wifi_interface.c ****     return WiFi_AT_FILE_LENGTH_ERROR;
1446:Middlewares/ST/STM32_SPWF0xSy/wifi_interface.c **** 
1447:Middlewares/ST/STM32_SPWF0xSy/wifi_interface.c ****   Queue_Wifi_File_Create_Event((uint8_t *)FileName,length,UserFileBuff);
1448:Middlewares/ST/STM32_SPWF0xSy/wifi_interface.c ****   status = USART_Receive_AT_Resp( );
1449:Middlewares/ST/STM32_SPWF0xSy/wifi_interface.c ****   return status; 
1450:Middlewares/ST/STM32_SPWF0xSy/wifi_interface.c **** }
1451:Middlewares/ST/STM32_SPWF0xSy/wifi_interface.c **** #endif
1452:Middlewares/ST/STM32_SPWF0xSy/wifi_interface.c **** 
1453:Middlewares/ST/STM32_SPWF0xSy/wifi_interface.c **** #if defined(SPWF04)
1454:Middlewares/ST/STM32_SPWF0xSy/wifi_interface.c **** /**
1455:Middlewares/ST/STM32_SPWF0xSy/wifi_interface.c **** * @brief  wifi_mqtt_connect
1456:Middlewares/ST/STM32_SPWF0xSy/wifi_interface.c **** *         Open a connection with MQTT broker
1457:Middlewares/ST/STM32_SPWF0xSy/wifi_interface.c **** * @param  Hostname hostname to connect to
1458:Middlewares/ST/STM32_SPWF0xSy/wifi_interface.c **** *         portnumber portnumber of the Host to connect to
1459:Middlewares/ST/STM32_SPWF0xSy/wifi_interface.c **** * @retval WiFi_Status_t : return status of mqtt connect request
1460:Middlewares/ST/STM32_SPWF0xSy/wifi_interface.c **** */
1461:Middlewares/ST/STM32_SPWF0xSy/wifi_interface.c **** WiFi_Status_t wifi_mqtt_connect(uint8_t * hostname, uint32_t port_num)
1462:Middlewares/ST/STM32_SPWF0xSy/wifi_interface.c **** {
1463:Middlewares/ST/STM32_SPWF0xSy/wifi_interface.c ****   WiFi_Status_t status = WiFi_MODULE_SUCCESS;
1464:Middlewares/ST/STM32_SPWF0xSy/wifi_interface.c **** 
1465:Middlewares/ST/STM32_SPWF0xSy/wifi_interface.c ****   mqtt_type = CONNECT;
1466:Middlewares/ST/STM32_SPWF0xSy/wifi_interface.c ****   Queue_Mqtt_Connect_Event(hostname, port_num);
1467:Middlewares/ST/STM32_SPWF0xSy/wifi_interface.c ****   status = USART_Receive_AT_Resp( );
1468:Middlewares/ST/STM32_SPWF0xSy/wifi_interface.c **** 
1469:Middlewares/ST/STM32_SPWF0xSy/wifi_interface.c ****   return status; 
1470:Middlewares/ST/STM32_SPWF0xSy/wifi_interface.c **** }
1471:Middlewares/ST/STM32_SPWF0xSy/wifi_interface.c **** 
1472:Middlewares/ST/STM32_SPWF0xSy/wifi_interface.c **** /**
1473:Middlewares/ST/STM32_SPWF0xSy/wifi_interface.c **** * @brief  wifi_mqtt_subscribe
1474:Middlewares/ST/STM32_SPWF0xSy/wifi_interface.c **** *         Subscribe topic to an mqtt broker
1475:Middlewares/ST/STM32_SPWF0xSy/wifi_interface.c **** * @param  topic: topic to subscribe to
1476:Middlewares/ST/STM32_SPWF0xSy/wifi_interface.c **** * @retval WiFi_Status_t : return status of mqtt subscribe request
1477:Middlewares/ST/STM32_SPWF0xSy/wifi_interface.c **** */
1478:Middlewares/ST/STM32_SPWF0xSy/wifi_interface.c **** WiFi_Status_t wifi_mqtt_subscribe(uint8_t *topic)
1479:Middlewares/ST/STM32_SPWF0xSy/wifi_interface.c **** {
1480:Middlewares/ST/STM32_SPWF0xSy/wifi_interface.c ****   WiFi_Status_t status = WiFi_MODULE_SUCCESS;
1481:Middlewares/ST/STM32_SPWF0xSy/wifi_interface.c **** 
1482:Middlewares/ST/STM32_SPWF0xSy/wifi_interface.c ****   mqtt_type = SUBSCRIBE;
1483:Middlewares/ST/STM32_SPWF0xSy/wifi_interface.c ****   Queue_Mqtt_Event(topic);
1484:Middlewares/ST/STM32_SPWF0xSy/wifi_interface.c ****   status = USART_Receive_AT_Resp( );
1485:Middlewares/ST/STM32_SPWF0xSy/wifi_interface.c **** 
1486:Middlewares/ST/STM32_SPWF0xSy/wifi_interface.c ****   return status; 
1487:Middlewares/ST/STM32_SPWF0xSy/wifi_interface.c **** }
1488:Middlewares/ST/STM32_SPWF0xSy/wifi_interface.c **** 
1489:Middlewares/ST/STM32_SPWF0xSy/wifi_interface.c **** /**
1490:Middlewares/ST/STM32_SPWF0xSy/wifi_interface.c **** * @brief  wifi_mqtt_publish
1491:Middlewares/ST/STM32_SPWF0xSy/wifi_interface.c **** *         Publish message to an mqtt broker
1492:Middlewares/ST/STM32_SPWF0xSy/wifi_interface.c **** * @param  topic: topic to publish to
1493:Middlewares/ST/STM32_SPWF0xSy/wifi_interface.c **** * @param  DataLength: MQTT message length
1494:Middlewares/ST/STM32_SPWF0xSy/wifi_interface.c **** * @param  Data: data to publish 
1495:Middlewares/ST/STM32_SPWF0xSy/wifi_interface.c **** * @retval WiFi_Status_t : return status of mqtt publish request
1496:Middlewares/ST/STM32_SPWF0xSy/wifi_interface.c **** */
1497:Middlewares/ST/STM32_SPWF0xSy/wifi_interface.c **** WiFi_Status_t wifi_mqtt_publish(uint8_t *topic, uint32_t DataLength, char *Data)
1498:Middlewares/ST/STM32_SPWF0xSy/wifi_interface.c **** {
1499:Middlewares/ST/STM32_SPWF0xSy/wifi_interface.c ****   WiFi_Status_t status = WiFi_MODULE_SUCCESS;
1500:Middlewares/ST/STM32_SPWF0xSy/wifi_interface.c ****    
1501:Middlewares/ST/STM32_SPWF0xSy/wifi_interface.c ****   mqtt_type = PUBLISH;
ARM GAS  D:\cygwin64\tmp\ccGmGipG.s 			page 59


1502:Middlewares/ST/STM32_SPWF0xSy/wifi_interface.c ****   Queue_Mqtt_Publish_Event(topic, DataLength, Data);
1503:Middlewares/ST/STM32_SPWF0xSy/wifi_interface.c ****   status = USART_Receive_AT_Resp( );
1504:Middlewares/ST/STM32_SPWF0xSy/wifi_interface.c **** 
1505:Middlewares/ST/STM32_SPWF0xSy/wifi_interface.c ****   return status;
1506:Middlewares/ST/STM32_SPWF0xSy/wifi_interface.c **** }
1507:Middlewares/ST/STM32_SPWF0xSy/wifi_interface.c **** 
1508:Middlewares/ST/STM32_SPWF0xSy/wifi_interface.c **** /**
1509:Middlewares/ST/STM32_SPWF0xSy/wifi_interface.c **** * @brief  wifi_mqtt_disconnect
1510:Middlewares/ST/STM32_SPWF0xSy/wifi_interface.c **** *         disconnect from an mqtt broker
1511:Middlewares/ST/STM32_SPWF0xSy/wifi_interface.c **** * @retval WiFi_Status_t : return status of mqtt disconnect request
1512:Middlewares/ST/STM32_SPWF0xSy/wifi_interface.c **** */
1513:Middlewares/ST/STM32_SPWF0xSy/wifi_interface.c **** WiFi_Status_t wifi_mqtt_disconnect(void)
1514:Middlewares/ST/STM32_SPWF0xSy/wifi_interface.c **** {
1515:Middlewares/ST/STM32_SPWF0xSy/wifi_interface.c ****   WiFi_Status_t status = WiFi_MODULE_SUCCESS;
1516:Middlewares/ST/STM32_SPWF0xSy/wifi_interface.c **** 
1517:Middlewares/ST/STM32_SPWF0xSy/wifi_interface.c ****   mqtt_type = DISCONNECT;
1518:Middlewares/ST/STM32_SPWF0xSy/wifi_interface.c ****   Queue_Mqtt_Event(NULL);
1519:Middlewares/ST/STM32_SPWF0xSy/wifi_interface.c ****   status = USART_Receive_AT_Resp( );
1520:Middlewares/ST/STM32_SPWF0xSy/wifi_interface.c **** 
1521:Middlewares/ST/STM32_SPWF0xSy/wifi_interface.c ****   return status; 
1522:Middlewares/ST/STM32_SPWF0xSy/wifi_interface.c **** }
1523:Middlewares/ST/STM32_SPWF0xSy/wifi_interface.c **** 
1524:Middlewares/ST/STM32_SPWF0xSy/wifi_interface.c **** /**
1525:Middlewares/ST/STM32_SPWF0xSy/wifi_interface.c **** * @brief  wifi_mqtt_unsubscribe
1526:Middlewares/ST/STM32_SPWF0xSy/wifi_interface.c **** *         Unsubscribe topic from an mqtt broker
1527:Middlewares/ST/STM32_SPWF0xSy/wifi_interface.c **** * @param  topic: topic to unsubscribe from 
1528:Middlewares/ST/STM32_SPWF0xSy/wifi_interface.c **** * @retval WiFi_Status_t : return status of mqtt unsubscribe request
1529:Middlewares/ST/STM32_SPWF0xSy/wifi_interface.c **** */
1530:Middlewares/ST/STM32_SPWF0xSy/wifi_interface.c **** WiFi_Status_t wifi_mqtt_unsubscribe(uint8_t *topic)
1531:Middlewares/ST/STM32_SPWF0xSy/wifi_interface.c **** {
1532:Middlewares/ST/STM32_SPWF0xSy/wifi_interface.c ****   WiFi_Status_t status = WiFi_MODULE_SUCCESS;
1533:Middlewares/ST/STM32_SPWF0xSy/wifi_interface.c **** 
1534:Middlewares/ST/STM32_SPWF0xSy/wifi_interface.c ****   mqtt_type = UNSUBSCRIBE;
1535:Middlewares/ST/STM32_SPWF0xSy/wifi_interface.c ****   Queue_Mqtt_Event(topic);
1536:Middlewares/ST/STM32_SPWF0xSy/wifi_interface.c ****   status = USART_Receive_AT_Resp( );
1537:Middlewares/ST/STM32_SPWF0xSy/wifi_interface.c **** 
1538:Middlewares/ST/STM32_SPWF0xSy/wifi_interface.c ****   return status; 
1539:Middlewares/ST/STM32_SPWF0xSy/wifi_interface.c **** }
1540:Middlewares/ST/STM32_SPWF0xSy/wifi_interface.c **** 
1541:Middlewares/ST/STM32_SPWF0xSy/wifi_interface.c **** 
1542:Middlewares/ST/STM32_SPWF0xSy/wifi_interface.c **** /**
1543:Middlewares/ST/STM32_SPWF0xSy/wifi_interface.c **** * @brief  wifi_list_open_client_socket
1544:Middlewares/ST/STM32_SPWF0xSy/wifi_interface.c **** *         list opened client sockets
1545:Middlewares/ST/STM32_SPWF0xSy/wifi_interface.c **** * @param  None
1546:Middlewares/ST/STM32_SPWF0xSy/wifi_interface.c **** * @retval WiFi_Status_t : return status
1547:Middlewares/ST/STM32_SPWF0xSy/wifi_interface.c **** */
1548:Middlewares/ST/STM32_SPWF0xSy/wifi_interface.c **** WiFi_Status_t wifi_list_open_client_socket(void)
1549:Middlewares/ST/STM32_SPWF0xSy/wifi_interface.c **** {
1550:Middlewares/ST/STM32_SPWF0xSy/wifi_interface.c ****   WiFi_Status_t status = WiFi_MODULE_SUCCESS;
1551:Middlewares/ST/STM32_SPWF0xSy/wifi_interface.c ****   Queue_Client_List_Event(NET_SOCKET);
1552:Middlewares/ST/STM32_SPWF0xSy/wifi_interface.c ****   status = USART_Receive_AT_Resp( );
1553:Middlewares/ST/STM32_SPWF0xSy/wifi_interface.c ****   return status; 
1554:Middlewares/ST/STM32_SPWF0xSy/wifi_interface.c **** }
1555:Middlewares/ST/STM32_SPWF0xSy/wifi_interface.c **** 
1556:Middlewares/ST/STM32_SPWF0xSy/wifi_interface.c **** /**
1557:Middlewares/ST/STM32_SPWF0xSy/wifi_interface.c **** * @brief  wifi_list_open_web_client_socket
1558:Middlewares/ST/STM32_SPWF0xSy/wifi_interface.c **** *         list opened web client sockets
ARM GAS  D:\cygwin64\tmp\ccGmGipG.s 			page 60


1559:Middlewares/ST/STM32_SPWF0xSy/wifi_interface.c **** * @param  None
1560:Middlewares/ST/STM32_SPWF0xSy/wifi_interface.c **** * @retval WiFi_Status_t : return status
1561:Middlewares/ST/STM32_SPWF0xSy/wifi_interface.c **** */
1562:Middlewares/ST/STM32_SPWF0xSy/wifi_interface.c **** WiFi_Status_t wifi_list_open_web_client_socket(void)
1563:Middlewares/ST/STM32_SPWF0xSy/wifi_interface.c **** {
1564:Middlewares/ST/STM32_SPWF0xSy/wifi_interface.c ****   WiFi_Status_t status = WiFi_MODULE_SUCCESS;
1565:Middlewares/ST/STM32_SPWF0xSy/wifi_interface.c ****   Queue_Client_List_Event(WEB_SOCKET);
1566:Middlewares/ST/STM32_SPWF0xSy/wifi_interface.c ****   status = USART_Receive_AT_Resp( );
1567:Middlewares/ST/STM32_SPWF0xSy/wifi_interface.c ****   return status; 
1568:Middlewares/ST/STM32_SPWF0xSy/wifi_interface.c **** }
1569:Middlewares/ST/STM32_SPWF0xSy/wifi_interface.c **** 
1570:Middlewares/ST/STM32_SPWF0xSy/wifi_interface.c **** /**
1571:Middlewares/ST/STM32_SPWF0xSy/wifi_interface.c **** * @brief  wifi_list_bound_client_socket
1572:Middlewares/ST/STM32_SPWF0xSy/wifi_interface.c **** *         list all bounded client sockets
1573:Middlewares/ST/STM32_SPWF0xSy/wifi_interface.c **** * @param  None
1574:Middlewares/ST/STM32_SPWF0xSy/wifi_interface.c **** * @retval WiFi_Status_t : return status
1575:Middlewares/ST/STM32_SPWF0xSy/wifi_interface.c **** */
1576:Middlewares/ST/STM32_SPWF0xSy/wifi_interface.c **** WiFi_Status_t wifi_list_bound_client_socket(void)
1577:Middlewares/ST/STM32_SPWF0xSy/wifi_interface.c **** {
1578:Middlewares/ST/STM32_SPWF0xSy/wifi_interface.c ****   WiFi_Status_t status = WiFi_MODULE_SUCCESS;
1579:Middlewares/ST/STM32_SPWF0xSy/wifi_interface.c ****   Queue_Server_List_Event();
1580:Middlewares/ST/STM32_SPWF0xSy/wifi_interface.c ****   status = USART_Receive_AT_Resp( );
1581:Middlewares/ST/STM32_SPWF0xSy/wifi_interface.c ****   return status; 
1582:Middlewares/ST/STM32_SPWF0xSy/wifi_interface.c **** }
1583:Middlewares/ST/STM32_SPWF0xSy/wifi_interface.c **** 
1584:Middlewares/ST/STM32_SPWF0xSy/wifi_interface.c **** 
1585:Middlewares/ST/STM32_SPWF0xSy/wifi_interface.c **** /**
1586:Middlewares/ST/STM32_SPWF0xSy/wifi_interface.c **** * @brief  wifi_send_mail
1587:Middlewares/ST/STM32_SPWF0xSy/wifi_interface.c **** *         SMTP protocol to send a secure mail
1588:Middlewares/ST/STM32_SPWF0xSy/wifi_interface.c **** * @param hostname: DMA resolvable name or IP address of the remote host
1589:Middlewares/ST/STM32_SPWF0xSy/wifi_interface.c **** * @param port:     Server port.
1590:Middlewares/ST/STM32_SPWF0xSy/wifi_interface.c **** * @param From:     Email address on the SMTP server
1591:Middlewares/ST/STM32_SPWF0xSy/wifi_interface.c **** * @param To:       Destinator Email. Multiple email are seperated by semicolon  
1592:Middlewares/ST/STM32_SPWF0xSy/wifi_interface.c **** * @param subject:  Email subject. String message.
1593:Middlewares/ST/STM32_SPWF0xSy/wifi_interface.c **** * @param length:   length of body message
1594:Middlewares/ST/STM32_SPWF0xSy/wifi_interface.c **** * @param Data:     Body of the Mail
1595:Middlewares/ST/STM32_SPWF0xSy/wifi_interface.c **** * @retval WiFi_Status_t : return status of send mail
1596:Middlewares/ST/STM32_SPWF0xSy/wifi_interface.c **** */
1597:Middlewares/ST/STM32_SPWF0xSy/wifi_interface.c **** WiFi_Status_t wifi_send_mail(uint8_t *hostname,
1598:Middlewares/ST/STM32_SPWF0xSy/wifi_interface.c ****                              uint32_t port_num,
1599:Middlewares/ST/STM32_SPWF0xSy/wifi_interface.c ****                              uint8_t *from, 
1600:Middlewares/ST/STM32_SPWF0xSy/wifi_interface.c ****                              uint8_t *to, 
1601:Middlewares/ST/STM32_SPWF0xSy/wifi_interface.c ****                              uint8_t *subject, 
1602:Middlewares/ST/STM32_SPWF0xSy/wifi_interface.c ****                              uint32_t length, 
1603:Middlewares/ST/STM32_SPWF0xSy/wifi_interface.c ****                              char *Data)
1604:Middlewares/ST/STM32_SPWF0xSy/wifi_interface.c **** {
1605:Middlewares/ST/STM32_SPWF0xSy/wifi_interface.c ****   if(length >= 1021 || length <= 0)
1606:Middlewares/ST/STM32_SPWF0xSy/wifi_interface.c ****     return WiFi_NOT_SUPPORTED;
1607:Middlewares/ST/STM32_SPWF0xSy/wifi_interface.c ****   
1608:Middlewares/ST/STM32_SPWF0xSy/wifi_interface.c ****   WiFi_Status_t status = WiFi_MODULE_SUCCESS;
1609:Middlewares/ST/STM32_SPWF0xSy/wifi_interface.c ****   Queue_Wifi_Send_Mail_Event(hostname,port_num,from,to,subject,length,Data);
1610:Middlewares/ST/STM32_SPWF0xSy/wifi_interface.c ****   status = USART_Receive_AT_Resp( );
1611:Middlewares/ST/STM32_SPWF0xSy/wifi_interface.c ****   return status;
1612:Middlewares/ST/STM32_SPWF0xSy/wifi_interface.c **** }
1613:Middlewares/ST/STM32_SPWF0xSy/wifi_interface.c **** 
1614:Middlewares/ST/STM32_SPWF0xSy/wifi_interface.c **** /**
1615:Middlewares/ST/STM32_SPWF0xSy/wifi_interface.c **** * @brief  wifi_tftp_get
ARM GAS  D:\cygwin64\tmp\ccGmGipG.s 			page 61


1616:Middlewares/ST/STM32_SPWF0xSy/wifi_interface.c **** *         Issue an TFTP GET of the given filename to the specified host
1617:Middlewares/ST/STM32_SPWF0xSy/wifi_interface.c **** * @param  hostname: Target host. DNS resolvable name or IP address.
1618:Middlewares/ST/STM32_SPWF0xSy/wifi_interface.c **** * @param  filename: Document path/name
1619:Middlewares/ST/STM32_SPWF0xSy/wifi_interface.c **** * @param  port_number: port number to connect to
1620:Middlewares/ST/STM32_SPWF0xSy/wifi_interface.c **** * @retval WiFi_Status_t : return status of AT cmd response
1621:Middlewares/ST/STM32_SPWF0xSy/wifi_interface.c **** */
1622:Middlewares/ST/STM32_SPWF0xSy/wifi_interface.c **** WiFi_Status_t wifi_tftp_get(uint8_t * hostname, uint32_t port_number, uint8_t * filename)
1623:Middlewares/ST/STM32_SPWF0xSy/wifi_interface.c **** {
1624:Middlewares/ST/STM32_SPWF0xSy/wifi_interface.c ****   if(hostname == NULL || filename == NULL)
1625:Middlewares/ST/STM32_SPWF0xSy/wifi_interface.c ****     return WiFi_MODULE_ERROR;
1626:Middlewares/ST/STM32_SPWF0xSy/wifi_interface.c ****   
1627:Middlewares/ST/STM32_SPWF0xSy/wifi_interface.c ****   WiFi_Status_t status = WiFi_MODULE_SUCCESS;
1628:Middlewares/ST/STM32_SPWF0xSy/wifi_interface.c **** 
1629:Middlewares/ST/STM32_SPWF0xSy/wifi_interface.c ****   while(IO_status_flag.sock_read_ongoing || IO_status_flag.WIND64_count!= 0) //wait till any pendin
1630:Middlewares/ST/STM32_SPWF0xSy/wifi_interface.c ****     {
1631:Middlewares/ST/STM32_SPWF0xSy/wifi_interface.c ****       __NOP(); //nothing to do
1632:Middlewares/ST/STM32_SPWF0xSy/wifi_interface.c ****     }
1633:Middlewares/ST/STM32_SPWF0xSy/wifi_interface.c ****   
1634:Middlewares/ST/STM32_SPWF0xSy/wifi_interface.c ****   // AT+S.TFTPGET=host.example.com,port_number,filename,NULL<cr>
1635:Middlewares/ST/STM32_SPWF0xSy/wifi_interface.c ****   //Queue the ftp-get command
1636:Middlewares/ST/STM32_SPWF0xSy/wifi_interface.c ****   Queue_Tftp_Event(hostname, port_number, filename, 0);
1637:Middlewares/ST/STM32_SPWF0xSy/wifi_interface.c **** 
1638:Middlewares/ST/STM32_SPWF0xSy/wifi_interface.c ****   //Make the user wait anyway
1639:Middlewares/ST/STM32_SPWF0xSy/wifi_interface.c ****   status = USART_Receive_AT_Resp( );
1640:Middlewares/ST/STM32_SPWF0xSy/wifi_interface.c ****   return status; 
1641:Middlewares/ST/STM32_SPWF0xSy/wifi_interface.c **** }
1642:Middlewares/ST/STM32_SPWF0xSy/wifi_interface.c **** 
1643:Middlewares/ST/STM32_SPWF0xSy/wifi_interface.c **** /**
1644:Middlewares/ST/STM32_SPWF0xSy/wifi_interface.c **** * @brief  wifi_tftp_put
1645:Middlewares/ST/STM32_SPWF0xSy/wifi_interface.c **** *         Issue an TFTP PUT of the given filename from the specified host
1646:Middlewares/ST/STM32_SPWF0xSy/wifi_interface.c **** * @param  hostname: Target host. DNS resolvable name or IP address.
1647:Middlewares/ST/STM32_SPWF0xSy/wifi_interface.c **** * @param  filename: Document path/name
1648:Middlewares/ST/STM32_SPWF0xSy/wifi_interface.c **** * @param  port_number: port number to connect to
1649:Middlewares/ST/STM32_SPWF0xSy/wifi_interface.c **** * @retval WiFi_Status_t : return status of AT cmd response
1650:Middlewares/ST/STM32_SPWF0xSy/wifi_interface.c **** */
1651:Middlewares/ST/STM32_SPWF0xSy/wifi_interface.c **** WiFi_Status_t wifi_tftp_put(uint8_t * hostname, uint32_t port_number, uint8_t * filename)
1652:Middlewares/ST/STM32_SPWF0xSy/wifi_interface.c **** {
1653:Middlewares/ST/STM32_SPWF0xSy/wifi_interface.c ****   if(hostname == NULL || filename == NULL)
1654:Middlewares/ST/STM32_SPWF0xSy/wifi_interface.c ****     return WiFi_MODULE_ERROR;
1655:Middlewares/ST/STM32_SPWF0xSy/wifi_interface.c ****   
1656:Middlewares/ST/STM32_SPWF0xSy/wifi_interface.c ****   WiFi_Status_t status = WiFi_MODULE_SUCCESS;
1657:Middlewares/ST/STM32_SPWF0xSy/wifi_interface.c **** 
1658:Middlewares/ST/STM32_SPWF0xSy/wifi_interface.c ****   while(IO_status_flag.sock_read_ongoing || IO_status_flag.WIND64_count!= 0) //wait till any pendin
1659:Middlewares/ST/STM32_SPWF0xSy/wifi_interface.c ****     {
1660:Middlewares/ST/STM32_SPWF0xSy/wifi_interface.c ****       __NOP(); //nothing to do
1661:Middlewares/ST/STM32_SPWF0xSy/wifi_interface.c ****     }
1662:Middlewares/ST/STM32_SPWF0xSy/wifi_interface.c ****   
1663:Middlewares/ST/STM32_SPWF0xSy/wifi_interface.c ****   // AT+S.TFTPPUT=host.example.com,port_number, filename<cr>
1664:Middlewares/ST/STM32_SPWF0xSy/wifi_interface.c ****   //Queue the ftp-get command
1665:Middlewares/ST/STM32_SPWF0xSy/wifi_interface.c ****   Queue_Tftp_Event(hostname, port_number, filename, 1);
1666:Middlewares/ST/STM32_SPWF0xSy/wifi_interface.c **** 
1667:Middlewares/ST/STM32_SPWF0xSy/wifi_interface.c ****   //Make the user wait anyway
1668:Middlewares/ST/STM32_SPWF0xSy/wifi_interface.c ****   status = USART_Receive_AT_Resp( );
1669:Middlewares/ST/STM32_SPWF0xSy/wifi_interface.c **** 
1670:Middlewares/ST/STM32_SPWF0xSy/wifi_interface.c ****   return status; 
1671:Middlewares/ST/STM32_SPWF0xSy/wifi_interface.c **** }
1672:Middlewares/ST/STM32_SPWF0xSy/wifi_interface.c **** 
ARM GAS  D:\cygwin64\tmp\ccGmGipG.s 			page 62


1673:Middlewares/ST/STM32_SPWF0xSy/wifi_interface.c **** /**
1674:Middlewares/ST/STM32_SPWF0xSy/wifi_interface.c **** * @brief  wifi_fill_input_buffer
1675:Middlewares/ST/STM32_SPWF0xSy/wifi_interface.c **** *         Fill buffer for raw text input ssi.
1676:Middlewares/ST/STM32_SPWF0xSy/wifi_interface.c **** * @param  DataLength: Length of the data. (maximum internal buffer size is 128 bytes)
1677:Middlewares/ST/STM32_SPWF0xSy/wifi_interface.c **** * @param  Data:       Data to save in buffer.
1678:Middlewares/ST/STM32_SPWF0xSy/wifi_interface.c **** *         NOTE:       {data} used to fill the buffer must be properly set. The first byte is used a
1679:Middlewares/ST/STM32_SPWF0xSy/wifi_interface.c **** *                     splitter; so use this special character to fill the buffer with multiple toke
1680:Middlewares/ST/STM32_SPWF0xSy/wifi_interface.c **** *                     be directly referred remotely by SSI indexes contained inside the HTML page. 
1681:Middlewares/ST/STM32_SPWF0xSy/wifi_interface.c **** *                     example: |hello|world| will create 2 tokens: "hello accessed by <!--|06|In
1682:Middlewares/ST/STM32_SPWF0xSy/wifi_interface.c **** *                     world accessed by <!--|06|Input|1|-->. 
1683:Middlewares/ST/STM32_SPWF0xSy/wifi_interface.c **** * @retval WiFi_Status_t : return status of AT cmd response
1684:Middlewares/ST/STM32_SPWF0xSy/wifi_interface.c **** */
1685:Middlewares/ST/STM32_SPWF0xSy/wifi_interface.c **** 
1686:Middlewares/ST/STM32_SPWF0xSy/wifi_interface.c **** WiFi_Status_t wifi_fill_input_buffer(uint32_t DataLength, char * Data)
1687:Middlewares/ST/STM32_SPWF0xSy/wifi_interface.c **** {
1688:Middlewares/ST/STM32_SPWF0xSy/wifi_interface.c ****   /* AT+S.SOCKW=00,11<cr> */
1689:Middlewares/ST/STM32_SPWF0xSy/wifi_interface.c ****   WiFi_Status_t status = WiFi_MODULE_SUCCESS;
1690:Middlewares/ST/STM32_SPWF0xSy/wifi_interface.c **** 
1691:Middlewares/ST/STM32_SPWF0xSy/wifi_interface.c ****   if(DataLength >= 128 || DataLength<=0)
1692:Middlewares/ST/STM32_SPWF0xSy/wifi_interface.c ****     return WiFi_NOT_SUPPORTED;
1693:Middlewares/ST/STM32_SPWF0xSy/wifi_interface.c **** 
1694:Middlewares/ST/STM32_SPWF0xSy/wifi_interface.c ****   Reset_AT_CMD_Buffer();
1695:Middlewares/ST/STM32_SPWF0xSy/wifi_interface.c **** 
1696:Middlewares/ST/STM32_SPWF0xSy/wifi_interface.c ****   /* AT+S.INPUTSSI=<length><cr>{data} */
1697:Middlewares/ST/STM32_SPWF0xSy/wifi_interface.c ****   /* should not queue, we have a minimal window of 30sec to write the data*/
1698:Middlewares/ST/STM32_SPWF0xSy/wifi_interface.c ****   #if defined(CONSOLE_UART_ENABLED)
1699:Middlewares/ST/STM32_SPWF0xSy/wifi_interface.c ****     sprintf((char*)WiFi_AT_Cmd_Buff,AT_FILL_INTERNAL_BUFFER,DataLength);
1700:Middlewares/ST/STM32_SPWF0xSy/wifi_interface.c ****     status = USART_Transmit_AT_Cmd(strlen((char*)WiFi_AT_Cmd_Buff));
1701:Middlewares/ST/STM32_SPWF0xSy/wifi_interface.c ****     if(status == WiFi_MODULE_SUCCESS)
1702:Middlewares/ST/STM32_SPWF0xSy/wifi_interface.c ****     {
1703:Middlewares/ST/STM32_SPWF0xSy/wifi_interface.c ****       Reset_AT_CMD_Buffer();
1704:Middlewares/ST/STM32_SPWF0xSy/wifi_interface.c ****       memcpy((char*)WiFi_AT_Cmd_Buff, (char*)Data, DataLength);
1705:Middlewares/ST/STM32_SPWF0xSy/wifi_interface.c ****       status = USART_Transmit_AT_Cmd(DataLength);
1706:Middlewares/ST/STM32_SPWF0xSy/wifi_interface.c ****     }
1707:Middlewares/ST/STM32_SPWF0xSy/wifi_interface.c ****   #else
1708:Middlewares/ST/STM32_SPWF0xSy/wifi_interface.c ****     sprintf((char*)WiFi_AT_Cmd_Buff,"AT+S.INPUTSSI=%d %s", DataLength, "DATA");
1709:Middlewares/ST/STM32_SPWF0xSy/wifi_interface.c ****     WiFi_Counter_Variables.curr_DataLength = DataLength;
1710:Middlewares/ST/STM32_SPWF0xSy/wifi_interface.c ****     WiFi_Counter_Variables.curr_data = Data;
1711:Middlewares/ST/STM32_SPWF0xSy/wifi_interface.c ****     run_spi_cmd((char*)WiFi_AT_Cmd_Buff, SPI_POLL);
1712:Middlewares/ST/STM32_SPWF0xSy/wifi_interface.c ****     status = WiFi_MODULE_SUCCESS;//@TBD: Check return error code
1713:Middlewares/ST/STM32_SPWF0xSy/wifi_interface.c ****   #endif
1714:Middlewares/ST/STM32_SPWF0xSy/wifi_interface.c ****   if(status == WiFi_MODULE_SUCCESS)
1715:Middlewares/ST/STM32_SPWF0xSy/wifi_interface.c ****   {
1716:Middlewares/ST/STM32_SPWF0xSy/wifi_interface.c ****     IO_status_flag.send_data = WIFI_TRUE;
1717:Middlewares/ST/STM32_SPWF0xSy/wifi_interface.c ****     WiFi_Control_Variables.fill_buffer_command_ongoing = WIFI_TRUE;
1718:Middlewares/ST/STM32_SPWF0xSy/wifi_interface.c ****     status = USART_Receive_AT_Resp( );
1719:Middlewares/ST/STM32_SPWF0xSy/wifi_interface.c ****   }
1720:Middlewares/ST/STM32_SPWF0xSy/wifi_interface.c ****   HAL_NVIC_EnableIRQ(TIMx_IRQn);
1721:Middlewares/ST/STM32_SPWF0xSy/wifi_interface.c ****   return status;
1722:Middlewares/ST/STM32_SPWF0xSy/wifi_interface.c **** }
1723:Middlewares/ST/STM32_SPWF0xSy/wifi_interface.c **** 
1724:Middlewares/ST/STM32_SPWF0xSy/wifi_interface.c **** #endif
1725:Middlewares/ST/STM32_SPWF0xSy/wifi_interface.c **** 
1726:Middlewares/ST/STM32_SPWF0xSy/wifi_interface.c **** #if defined(SPWF01)
1727:Middlewares/ST/STM32_SPWF0xSy/wifi_interface.c **** /* @brief  wifi_fill_input_buffer
1728:Middlewares/ST/STM32_SPWF0xSy/wifi_interface.c **** *         Fill buffer for raw text input ssi.
1729:Middlewares/ST/STM32_SPWF0xSy/wifi_interface.c **** * @param  DataLength: Length of the data. (maximum internal buffer size is 128 bytes)
ARM GAS  D:\cygwin64\tmp\ccGmGipG.s 			page 63


1730:Middlewares/ST/STM32_SPWF0xSy/wifi_interface.c **** * @param  Data:       Data to save in buffer.
1731:Middlewares/ST/STM32_SPWF0xSy/wifi_interface.c **** * @retval WiFi_Status_t : return status of AT cmd response
1732:Middlewares/ST/STM32_SPWF0xSy/wifi_interface.c **** */
1733:Middlewares/ST/STM32_SPWF0xSy/wifi_interface.c **** 
1734:Middlewares/ST/STM32_SPWF0xSy/wifi_interface.c **** WiFi_Status_t wifi_fill_input_buffer(uint32_t DataLength, char * Data)
1735:Middlewares/ST/STM32_SPWF0xSy/wifi_interface.c **** {
 1585              		.loc 1 1735 0
 1586              		.cfi_startproc
 1587              		@ args = 0, pretend = 0, frame = 0
 1588              		@ frame_needed = 0, uses_anonymous_args = 0
 1589              	.LVL173:
 1590 0000 38B5     		push	{r3, r4, r5, lr}
 1591              	.LCFI27:
 1592              		.cfi_def_cfa_offset 16
 1593              		.cfi_offset 3, -16
 1594              		.cfi_offset 4, -12
 1595              		.cfi_offset 5, -8
 1596              		.cfi_offset 14, -4
1736:Middlewares/ST/STM32_SPWF0xSy/wifi_interface.c ****   if(DataLength >1024 || DataLength <=0)
 1597              		.loc 1 1736 0
 1598 0002 431E     		subs	r3, r0, #1
 1599 0004 B3F5806F 		cmp	r3, #1024
 1600 0008 02D3     		bcc	.L145
1737:Middlewares/ST/STM32_SPWF0xSy/wifi_interface.c ****     return WiFi_NOT_SUPPORTED;
 1601              		.loc 1 1737 0
 1602 000a 0424     		movs	r4, #4
 1603              	.LVL174:
 1604              	.L142:
1738:Middlewares/ST/STM32_SPWF0xSy/wifi_interface.c **** 
1739:Middlewares/ST/STM32_SPWF0xSy/wifi_interface.c ****   WiFi_Status_t status = WiFi_MODULE_SUCCESS;
1740:Middlewares/ST/STM32_SPWF0xSy/wifi_interface.c ****   Reset_AT_CMD_Buffer();
1741:Middlewares/ST/STM32_SPWF0xSy/wifi_interface.c **** 
1742:Middlewares/ST/STM32_SPWF0xSy/wifi_interface.c ****   memcpy((char*)WiFi_AT_Cmd_Buff,Data,DataLength);
1743:Middlewares/ST/STM32_SPWF0xSy/wifi_interface.c ****   status = USART_Transmit_AT_Cmd(DataLength);
1744:Middlewares/ST/STM32_SPWF0xSy/wifi_interface.c **** 
1745:Middlewares/ST/STM32_SPWF0xSy/wifi_interface.c ****   HAL_NVIC_EnableIRQ(TIMx_IRQn);
1746:Middlewares/ST/STM32_SPWF0xSy/wifi_interface.c ****   return status;
1747:Middlewares/ST/STM32_SPWF0xSy/wifi_interface.c **** }
 1605              		.loc 1 1747 0
 1606 000c 2046     		mov	r0, r4
 1607 000e 38BD     		pop	{r3, r4, r5, pc}
 1608              	.LVL175:
 1609              	.L145:
 1610 0010 0D46     		mov	r5, r1
 1611 0012 0446     		mov	r4, r0
 1612              	.LVL176:
1740:Middlewares/ST/STM32_SPWF0xSy/wifi_interface.c **** 
 1613              		.loc 1 1740 0
 1614 0014 FFF7FEFF 		bl	Reset_AT_CMD_Buffer
 1615              	.LVL177:
1742:Middlewares/ST/STM32_SPWF0xSy/wifi_interface.c ****   status = USART_Transmit_AT_Cmd(DataLength);
 1616              		.loc 1 1742 0
 1617 0018 2246     		mov	r2, r4
 1618 001a 2946     		mov	r1, r5
 1619 001c 0548     		ldr	r0, .L146
 1620 001e FFF7FEFF 		bl	memcpy
 1621              	.LVL178:
ARM GAS  D:\cygwin64\tmp\ccGmGipG.s 			page 64


1743:Middlewares/ST/STM32_SPWF0xSy/wifi_interface.c **** 
 1622              		.loc 1 1743 0
 1623 0022 A0B2     		uxth	r0, r4
 1624 0024 FFF7FEFF 		bl	USART_Transmit_AT_Cmd
 1625              	.LVL179:
 1626 0028 0446     		mov	r4, r0
 1627              	.LVL180:
1745:Middlewares/ST/STM32_SPWF0xSy/wifi_interface.c ****   return status;
 1628              		.loc 1 1745 0
 1629 002a 1D20     		movs	r0, #29
 1630 002c FFF7FEFF 		bl	HAL_NVIC_EnableIRQ
 1631              	.LVL181:
1746:Middlewares/ST/STM32_SPWF0xSy/wifi_interface.c **** }
 1632              		.loc 1 1746 0
 1633 0030 ECE7     		b	.L142
 1634              	.L147:
 1635 0032 00BF     		.align	2
 1636              	.L146:
 1637 0034 00000000 		.word	WiFi_AT_Cmd_Buff
 1638              		.cfi_endproc
 1639              	.LFE295:
 1641              		.section	.text.wifi_http_get,"ax",%progbits
 1642              		.align	1
 1643              		.global	wifi_http_get
 1644              		.syntax unified
 1645              		.thumb
 1646              		.thumb_func
 1647              		.fpu fpv4-sp-d16
 1649              	wifi_http_get:
 1650              	.LFB296:
1748:Middlewares/ST/STM32_SPWF0xSy/wifi_interface.c **** #endif
1749:Middlewares/ST/STM32_SPWF0xSy/wifi_interface.c **** 
1750:Middlewares/ST/STM32_SPWF0xSy/wifi_interface.c **** /**
1751:Middlewares/ST/STM32_SPWF0xSy/wifi_interface.c **** * @brief  wifi_http_get
1752:Middlewares/ST/STM32_SPWF0xSy/wifi_interface.c **** *         Issue an HTTP GET of the given path to the specified host
1753:Middlewares/ST/STM32_SPWF0xSy/wifi_interface.c **** * @param  hostname: Target host. DNS resolvable name or IP address.
1754:Middlewares/ST/STM32_SPWF0xSy/wifi_interface.c **** * @param  path : Document path
1755:Middlewares/ST/STM32_SPWF0xSy/wifi_interface.c **** * @param  port_number: port number to connect to
1756:Middlewares/ST/STM32_SPWF0xSy/wifi_interface.c **** * @retval WiFi_Status_t : return status of AT cmd response
1757:Middlewares/ST/STM32_SPWF0xSy/wifi_interface.c **** */
1758:Middlewares/ST/STM32_SPWF0xSy/wifi_interface.c **** 
1759:Middlewares/ST/STM32_SPWF0xSy/wifi_interface.c **** WiFi_Status_t wifi_http_get(uint8_t * hostname, uint8_t * path, uint32_t port_number)
1760:Middlewares/ST/STM32_SPWF0xSy/wifi_interface.c **** {
 1651              		.loc 1 1760 0
 1652              		.cfi_startproc
 1653              		@ args = 0, pretend = 0, frame = 0
 1654              		@ frame_needed = 0, uses_anonymous_args = 0
 1655              	.LVL182:
1761:Middlewares/ST/STM32_SPWF0xSy/wifi_interface.c ****   if(hostname == NULL || path == NULL)
 1656              		.loc 1 1761 0
 1657 0000 A0B1     		cbz	r0, .L152
1760:Middlewares/ST/STM32_SPWF0xSy/wifi_interface.c ****   if(hostname == NULL || path == NULL)
 1658              		.loc 1 1760 0 discriminator 1
 1659 0002 10B5     		push	{r4, lr}
 1660              	.LCFI28:
 1661              		.cfi_def_cfa_offset 8
 1662              		.cfi_offset 4, -8
ARM GAS  D:\cygwin64\tmp\ccGmGipG.s 			page 65


 1663              		.cfi_offset 14, -4
 1664 0004 0446     		mov	r4, r0
 1665              		.loc 1 1761 0 discriminator 1
 1666 0006 11B9     		cbnz	r1, .L150
1762:Middlewares/ST/STM32_SPWF0xSy/wifi_interface.c ****     return WiFi_MODULE_ERROR;
 1667              		.loc 1 1762 0
 1668 0008 0220     		movs	r0, #2
 1669              	.LVL183:
1763:Middlewares/ST/STM32_SPWF0xSy/wifi_interface.c ****   
1764:Middlewares/ST/STM32_SPWF0xSy/wifi_interface.c ****   WiFi_Status_t status = WiFi_MODULE_SUCCESS;
1765:Middlewares/ST/STM32_SPWF0xSy/wifi_interface.c **** 
1766:Middlewares/ST/STM32_SPWF0xSy/wifi_interface.c ****   while(IO_status_flag.sock_read_ongoing || IO_status_flag.WIND64_count!= 0) //wait till any pendin
1767:Middlewares/ST/STM32_SPWF0xSy/wifi_interface.c ****     {
1768:Middlewares/ST/STM32_SPWF0xSy/wifi_interface.c ****       __NOP(); //nothing to do
1769:Middlewares/ST/STM32_SPWF0xSy/wifi_interface.c ****     }
1770:Middlewares/ST/STM32_SPWF0xSy/wifi_interface.c **** 
1771:Middlewares/ST/STM32_SPWF0xSy/wifi_interface.c ****   // AT+S.HTTPGET=host.example.com,/index.html, port_number<cr>
1772:Middlewares/ST/STM32_SPWF0xSy/wifi_interface.c ****   //Queue the http-get command
1773:Middlewares/ST/STM32_SPWF0xSy/wifi_interface.c ****   Queue_Http_Event(hostname, path, port_number,0);
1774:Middlewares/ST/STM32_SPWF0xSy/wifi_interface.c **** 
1775:Middlewares/ST/STM32_SPWF0xSy/wifi_interface.c ****   //Make the user wait anyway
1776:Middlewares/ST/STM32_SPWF0xSy/wifi_interface.c ****   status = USART_Receive_AT_Resp( );
1777:Middlewares/ST/STM32_SPWF0xSy/wifi_interface.c **** 
1778:Middlewares/ST/STM32_SPWF0xSy/wifi_interface.c ****   return status; 
1779:Middlewares/ST/STM32_SPWF0xSy/wifi_interface.c **** }
 1670              		.loc 1 1779 0
 1671 000a 10BD     		pop	{r4, pc}
 1672              	.LVL184:
 1673              	.L151:
1768:Middlewares/ST/STM32_SPWF0xSy/wifi_interface.c ****     }
 1674              		.loc 1 1768 0
 1675              		.syntax unified
 1676              	@ 1768 "Middlewares/ST/STM32_SPWF0xSy/wifi_interface.c" 1
 1677 000c 00BF     		nop
 1678              	@ 0 "" 2
 1679              		.thumb
 1680              		.syntax unified
 1681              	.L150:
1766:Middlewares/ST/STM32_SPWF0xSy/wifi_interface.c ****     {
 1682              		.loc 1 1766 0
 1683 000e 084B     		ldr	r3, .L158
 1684 0010 1B78     		ldrb	r3, [r3]	@ zero_extendqisi2
 1685 0012 13F0010F 		tst	r3, #1
 1686 0016 F9D1     		bne	.L151
1766:Middlewares/ST/STM32_SPWF0xSy/wifi_interface.c ****     {
 1687              		.loc 1 1766 0 is_stmt 0 discriminator 1
 1688 0018 054B     		ldr	r3, .L158
 1689 001a 5B68     		ldr	r3, [r3, #4]
 1690 001c 002B     		cmp	r3, #0
 1691 001e F5D1     		bne	.L151
 1692 0020 2046     		mov	r0, r4
 1693              	.LVL185:
1773:Middlewares/ST/STM32_SPWF0xSy/wifi_interface.c **** 
 1694              		.loc 1 1773 0 is_stmt 1
 1695 0022 FFF7FEFF 		bl	Queue_Http_Event
 1696              	.LVL186:
1776:Middlewares/ST/STM32_SPWF0xSy/wifi_interface.c **** 
ARM GAS  D:\cygwin64\tmp\ccGmGipG.s 			page 66


 1697              		.loc 1 1776 0
 1698 0026 FFF7FEFF 		bl	USART_Receive_AT_Resp
 1699              	.LVL187:
1778:Middlewares/ST/STM32_SPWF0xSy/wifi_interface.c **** }
 1700              		.loc 1 1778 0
 1701 002a 10BD     		pop	{r4, pc}
 1702              	.LVL188:
 1703              	.L152:
 1704              	.LCFI29:
 1705              		.cfi_def_cfa_offset 0
 1706              		.cfi_restore 4
 1707              		.cfi_restore 14
1762:Middlewares/ST/STM32_SPWF0xSy/wifi_interface.c ****   
 1708              		.loc 1 1762 0
 1709 002c 0220     		movs	r0, #2
 1710              	.LVL189:
 1711 002e 7047     		bx	lr
 1712              	.L159:
 1713              		.align	2
 1714              	.L158:
 1715 0030 00000000 		.word	IO_status_flag
 1716              		.cfi_endproc
 1717              	.LFE296:
 1719              		.section	.text.wifi_http_post,"ax",%progbits
 1720              		.align	1
 1721              		.global	wifi_http_post
 1722              		.syntax unified
 1723              		.thumb
 1724              		.thumb_func
 1725              		.fpu fpv4-sp-d16
 1727              	wifi_http_post:
 1728              	.LFB297:
1780:Middlewares/ST/STM32_SPWF0xSy/wifi_interface.c **** 
1781:Middlewares/ST/STM32_SPWF0xSy/wifi_interface.c **** /**
1782:Middlewares/ST/STM32_SPWF0xSy/wifi_interface.c **** * @brief  wifi_http_post
