ARM GAS  D:\cygwin64\tmp\ccuGdUOt.s 			page 1


   1              		.cpu cortex-m4
   2              		.eabi_attribute 27, 1
   3              		.eabi_attribute 28, 1
   4              		.eabi_attribute 20, 1
   5              		.eabi_attribute 21, 1
   6              		.eabi_attribute 23, 3
   7              		.eabi_attribute 24, 1
   8              		.eabi_attribute 25, 1
   9              		.eabi_attribute 26, 1
  10              		.eabi_attribute 30, 1
  11              		.eabi_attribute 34, 1
  12              		.eabi_attribute 18, 4
  13              		.file	"wifi_module_uart_01.c"
  14              		.text
  15              	.Ltext0:
  16              		.cfi_sections	.debug_frame
  17              		.section	.text.SET_Power_State,"ax",%progbits
  18              		.align	1
  19              		.global	SET_Power_State
  20              		.syntax unified
  21              		.thumb
  22              		.thumb_func
  23              		.fpu fpv4-sp-d16
  25              	SET_Power_State:
  26              	.LFB275:
  27              		.file 1 "Middlewares/ST/STM32_SPWF0xSy/wifi_module_uart_01.c"
   1:Middlewares/ST/STM32_SPWF0xSy/wifi_module_uart_01.c **** /**
   2:Middlewares/ST/STM32_SPWF0xSy/wifi_module_uart_01.c ****  ******************************************************************************
   3:Middlewares/ST/STM32_SPWF0xSy/wifi_module_uart_01.c ****  * @file    wifi_module_uart_01.c
   4:Middlewares/ST/STM32_SPWF0xSy/wifi_module_uart_01.c ****  * @author  Central LAB
   5:Middlewares/ST/STM32_SPWF0xSy/wifi_module_uart_01.c ****  * @version V2.1.0
   6:Middlewares/ST/STM32_SPWF0xSy/wifi_module_uart_01.c ****  * @date    25-Nov-2016
   7:Middlewares/ST/STM32_SPWF0xSy/wifi_module_uart_01.c ****  * @brief   Enable Wi-Fi functionality using AT cmd set
   8:Middlewares/ST/STM32_SPWF0xSy/wifi_module_uart_01.c ****  ******************************************************************************
   9:Middlewares/ST/STM32_SPWF0xSy/wifi_module_uart_01.c ****  * @attention
  10:Middlewares/ST/STM32_SPWF0xSy/wifi_module_uart_01.c ****  *
  11:Middlewares/ST/STM32_SPWF0xSy/wifi_module_uart_01.c ****  * <h2><center>&copy; COPYRIGHT(c) 2015 STMicroelectronics</center></h2>
  12:Middlewares/ST/STM32_SPWF0xSy/wifi_module_uart_01.c ****  *
  13:Middlewares/ST/STM32_SPWF0xSy/wifi_module_uart_01.c ****  * Redistribution and use in source and binary forms, with or without modification,
  14:Middlewares/ST/STM32_SPWF0xSy/wifi_module_uart_01.c ****  * are permitted provided that the following conditions are met:
  15:Middlewares/ST/STM32_SPWF0xSy/wifi_module_uart_01.c ****  *   1. Redistributions of source code must retain the above copyright notice,
  16:Middlewares/ST/STM32_SPWF0xSy/wifi_module_uart_01.c ****  *      this list of conditions and the following disclaimer.
  17:Middlewares/ST/STM32_SPWF0xSy/wifi_module_uart_01.c ****  *   2. Redistributions in binary form must reproduce the above copyright notice,
  18:Middlewares/ST/STM32_SPWF0xSy/wifi_module_uart_01.c ****  *      this list of conditions and the following disclaimer in the documentation
  19:Middlewares/ST/STM32_SPWF0xSy/wifi_module_uart_01.c ****  *      and/or other materials provided with the distribution.
  20:Middlewares/ST/STM32_SPWF0xSy/wifi_module_uart_01.c ****  *   3. Neither the name of STMicroelectronics nor the names of its contributors
  21:Middlewares/ST/STM32_SPWF0xSy/wifi_module_uart_01.c ****  *      may be used to endorse or promote products derived from this software
  22:Middlewares/ST/STM32_SPWF0xSy/wifi_module_uart_01.c ****  *      without specific prior written permission.
  23:Middlewares/ST/STM32_SPWF0xSy/wifi_module_uart_01.c ****  *
  24:Middlewares/ST/STM32_SPWF0xSy/wifi_module_uart_01.c ****  * THIS SOFTWARE IS PROVIDED BY THE COPYRIGHT HOLDERS AND CONTRIBUTORS "AS IS"
  25:Middlewares/ST/STM32_SPWF0xSy/wifi_module_uart_01.c ****  * AND ANY EXPRESS OR IMPLIED WARRANTIES, INCLUDING, BUT NOT LIMITED TO, THE
  26:Middlewares/ST/STM32_SPWF0xSy/wifi_module_uart_01.c ****  * IMPLIED WARRANTIES OF MERCHANTABILITY AND FITNESS FOR A PARTICULAR PURPOSE ARE
  27:Middlewares/ST/STM32_SPWF0xSy/wifi_module_uart_01.c ****  * DISCLAIMED. IN NO EVENT SHALL THE COPYRIGHT HOLDER OR CONTRIBUTORS BE LIABLE
  28:Middlewares/ST/STM32_SPWF0xSy/wifi_module_uart_01.c ****  * FOR ANY DIRECT, INDIRECT, INCIDENTAL, SPECIAL, EXEMPLARY, OR CONSEQUENTIAL
  29:Middlewares/ST/STM32_SPWF0xSy/wifi_module_uart_01.c ****  * DAMAGES (INCLUDING, BUT NOT LIMITED TO, PROCUREMENT OF SUBSTITUTE GOODS OR
  30:Middlewares/ST/STM32_SPWF0xSy/wifi_module_uart_01.c ****  * SERVICES; LOSS OF USE, DATA, OR PROFITS; OR BUSINESS INTERRUPTION) HOWEVER
  31:Middlewares/ST/STM32_SPWF0xSy/wifi_module_uart_01.c ****  * CAUSED AND ON ANY THEORY OF LIABILITY, WHETHER IN CONTRACT, STRICT LIABILITY,
ARM GAS  D:\cygwin64\tmp\ccuGdUOt.s 			page 2


  32:Middlewares/ST/STM32_SPWF0xSy/wifi_module_uart_01.c ****  * OR TORT (INCLUDING NEGLIGENCE OR OTHERWISE) ARISING IN ANY WAY OUT OF THE USE
  33:Middlewares/ST/STM32_SPWF0xSy/wifi_module_uart_01.c ****  * OF THIS SOFTWARE, EVEN IF ADVISED OF THE POSSIBILITY OF SUCH DAMAGE.
  34:Middlewares/ST/STM32_SPWF0xSy/wifi_module_uart_01.c ****  *
  35:Middlewares/ST/STM32_SPWF0xSy/wifi_module_uart_01.c ****  ******************************************************************************
  36:Middlewares/ST/STM32_SPWF0xSy/wifi_module_uart_01.c ****  */
  37:Middlewares/ST/STM32_SPWF0xSy/wifi_module_uart_01.c **** /* Includes ------------------------------------------------------------------*/
  38:Middlewares/ST/STM32_SPWF0xSy/wifi_module_uart_01.c **** #include "wifi_module.h"
  39:Middlewares/ST/STM32_SPWF0xSy/wifi_module_uart_01.c **** #include "wifi_globals.h"
  40:Middlewares/ST/STM32_SPWF0xSy/wifi_module_uart_01.c **** 
  41:Middlewares/ST/STM32_SPWF0xSy/wifi_module_uart_01.c **** /** @addtogroup MIDDLEWARES
  42:Middlewares/ST/STM32_SPWF0xSy/wifi_module_uart_01.c **** * @{
  43:Middlewares/ST/STM32_SPWF0xSy/wifi_module_uart_01.c **** */
  44:Middlewares/ST/STM32_SPWF0xSy/wifi_module_uart_01.c **** 
  45:Middlewares/ST/STM32_SPWF0xSy/wifi_module_uart_01.c **** /** @defgroup  NUCLEO_WIFI_MODULE
  46:Middlewares/ST/STM32_SPWF0xSy/wifi_module_uart_01.c ****   * @brief Wi-Fi driver modules
  47:Middlewares/ST/STM32_SPWF0xSy/wifi_module_uart_01.c ****   * @{
  48:Middlewares/ST/STM32_SPWF0xSy/wifi_module_uart_01.c ****   */
  49:Middlewares/ST/STM32_SPWF0xSy/wifi_module_uart_01.c **** 
  50:Middlewares/ST/STM32_SPWF0xSy/wifi_module_uart_01.c **** /** @defgroup NUCLEO_WIFI_MODULE_Private_Defines
  51:Middlewares/ST/STM32_SPWF0xSy/wifi_module_uart_01.c ****   * @{
  52:Middlewares/ST/STM32_SPWF0xSy/wifi_module_uart_01.c ****   */
  53:Middlewares/ST/STM32_SPWF0xSy/wifi_module_uart_01.c **** 
  54:Middlewares/ST/STM32_SPWF0xSy/wifi_module_uart_01.c **** /**
  55:Middlewares/ST/STM32_SPWF0xSy/wifi_module_uart_01.c ****   * @}
  56:Middlewares/ST/STM32_SPWF0xSy/wifi_module_uart_01.c ****   */
  57:Middlewares/ST/STM32_SPWF0xSy/wifi_module_uart_01.c **** 
  58:Middlewares/ST/STM32_SPWF0xSy/wifi_module_uart_01.c **** /** @addtogroup NUCLEO_WIFI_MODULE_Private_Variables
  59:Middlewares/ST/STM32_SPWF0xSy/wifi_module_uart_01.c ****   * @{
  60:Middlewares/ST/STM32_SPWF0xSy/wifi_module_uart_01.c ****   */
  61:Middlewares/ST/STM32_SPWF0xSy/wifi_module_uart_01.c **** 
  62:Middlewares/ST/STM32_SPWF0xSy/wifi_module_uart_01.c **** 
  63:Middlewares/ST/STM32_SPWF0xSy/wifi_module_uart_01.c **** #if defined(SPWF01) && defined(CONSOLE_UART_ENABLED)
  64:Middlewares/ST/STM32_SPWF0xSy/wifi_module_uart_01.c **** 
  65:Middlewares/ST/STM32_SPWF0xSy/wifi_module_uart_01.c **** extern wifi_instances_t wifi_instances;
  66:Middlewares/ST/STM32_SPWF0xSy/wifi_module_uart_01.c **** 
  67:Middlewares/ST/STM32_SPWF0xSy/wifi_module_uart_01.c **** #ifdef SPWF01
  68:Middlewares/ST/STM32_SPWF0xSy/wifi_module_uart_01.c **** /**
  69:Middlewares/ST/STM32_SPWF0xSy/wifi_module_uart_01.c **** * @brief  SET_Power_State
  70:Middlewares/ST/STM32_SPWF0xSy/wifi_module_uart_01.c **** *         SET power mode of wifi module
  71:Middlewares/ST/STM32_SPWF0xSy/wifi_module_uart_01.c **** * @param  state : power mode of wi-fi module i.e active,sleep,standby,powersave
  72:Middlewares/ST/STM32_SPWF0xSy/wifi_module_uart_01.c **** * @retval WiFi_Status_t : status of AT cmd Request
  73:Middlewares/ST/STM32_SPWF0xSy/wifi_module_uart_01.c **** */
  74:Middlewares/ST/STM32_SPWF0xSy/wifi_module_uart_01.c **** WiFi_Status_t SET_Power_State(WiFi_Power_State_t state)
  75:Middlewares/ST/STM32_SPWF0xSy/wifi_module_uart_01.c **** {
  28              		.loc 1 75 0
  29              		.cfi_startproc
  30              		@ args = 0, pretend = 0, frame = 0
  31              		@ frame_needed = 0, uses_anonymous_args = 0
  32              	.LVL0:
  33 0000 38B5     		push	{r3, r4, r5, lr}
  34              	.LCFI0:
  35              		.cfi_def_cfa_offset 16
  36              		.cfi_offset 3, -16
  37              		.cfi_offset 4, -12
  38              		.cfi_offset 5, -8
  39              		.cfi_offset 14, -4
  40 0002 0546     		mov	r5, r0
ARM GAS  D:\cygwin64\tmp\ccuGdUOt.s 			page 3


  41              	.LVL1:
  76:Middlewares/ST/STM32_SPWF0xSy/wifi_module_uart_01.c ****   WiFi_Status_t status = WiFi_MODULE_SUCCESS;
  77:Middlewares/ST/STM32_SPWF0xSy/wifi_module_uart_01.c **** 
  78:Middlewares/ST/STM32_SPWF0xSy/wifi_module_uart_01.c **** #if DEBUG_PRINT  
  79:Middlewares/ST/STM32_SPWF0xSy/wifi_module_uart_01.c ****   printf("\r\n >>Soft Reset Wi-Fi module\r\n");
  80:Middlewares/ST/STM32_SPWF0xSy/wifi_module_uart_01.c **** #endif
  81:Middlewares/ST/STM32_SPWF0xSy/wifi_module_uart_01.c **** 
  82:Middlewares/ST/STM32_SPWF0xSy/wifi_module_uart_01.c ****   Reset_AT_CMD_Buffer();
  42              		.loc 1 82 0
  43 0004 FFF7FEFF 		bl	Reset_AT_CMD_Buffer
  44              	.LVL2:
  83:Middlewares/ST/STM32_SPWF0xSy/wifi_module_uart_01.c **** 
  84:Middlewares/ST/STM32_SPWF0xSy/wifi_module_uart_01.c ****   /* AT : send AT command */
  85:Middlewares/ST/STM32_SPWF0xSy/wifi_module_uart_01.c ****   sprintf((char*)WiFi_AT_Cmd_Buff,AT_SET_POWER_STATE,state);  
  45              		.loc 1 85 0
  46 0008 0E4C     		ldr	r4, .L7
  47 000a 2A46     		mov	r2, r5
  48 000c 0E49     		ldr	r1, .L7+4
  49 000e 2046     		mov	r0, r4
  50 0010 FFF7FEFF 		bl	sprintf
  51              	.LVL3:
  86:Middlewares/ST/STM32_SPWF0xSy/wifi_module_uart_01.c **** //  WiFi_WIND_State.WiFiReset = WIFI_FALSE;
  87:Middlewares/ST/STM32_SPWF0xSy/wifi_module_uart_01.c ****   IO_status_flag.WiFi_WIND_State = Undefine_state;
  52              		.loc 1 87 0
  53 0014 FF22     		movs	r2, #255
  54 0016 0D4B     		ldr	r3, .L7+8
  55 0018 9A75     		strb	r2, [r3, #22]
  88:Middlewares/ST/STM32_SPWF0xSy/wifi_module_uart_01.c ****   status = USART_Transmit_AT_Cmd(strlen((char*)WiFi_AT_Cmd_Buff));
  56              		.loc 1 88 0
  57 001a 2046     		mov	r0, r4
  58 001c FFF7FEFF 		bl	strlen
  59              	.LVL4:
  60 0020 80B2     		uxth	r0, r0
  61 0022 FFF7FEFF 		bl	USART_Transmit_AT_Cmd
  62              	.LVL5:
  89:Middlewares/ST/STM32_SPWF0xSy/wifi_module_uart_01.c ****   if(status != WiFi_MODULE_SUCCESS) 
  63              		.loc 1 89 0
  64 0026 0246     		mov	r2, r0
  65 0028 08B1     		cbz	r0, .L6
  66              	.L2:
  90:Middlewares/ST/STM32_SPWF0xSy/wifi_module_uart_01.c ****     return status;
  91:Middlewares/ST/STM32_SPWF0xSy/wifi_module_uart_01.c ****   memset((void*)&IO_status_flag.WiFi_WIND_State,0x00,sizeof(IO_status_flag.WiFi_WIND_State)); /*res
  92:Middlewares/ST/STM32_SPWF0xSy/wifi_module_uart_01.c ****   /* AT+CFUN=1 //Soft reset */
  93:Middlewares/ST/STM32_SPWF0xSy/wifi_module_uart_01.c ****   while(IO_status_flag.WiFi_WIND_State != WiFiHWStarted)
  94:Middlewares/ST/STM32_SPWF0xSy/wifi_module_uart_01.c ****   {
  95:Middlewares/ST/STM32_SPWF0xSy/wifi_module_uart_01.c ****     __NOP(); //nothing to do
  96:Middlewares/ST/STM32_SPWF0xSy/wifi_module_uart_01.c ****   }
  97:Middlewares/ST/STM32_SPWF0xSy/wifi_module_uart_01.c ****   return status;
  98:Middlewares/ST/STM32_SPWF0xSy/wifi_module_uart_01.c **** }
  67              		.loc 1 98 0
  68 002a 1046     		mov	r0, r2
  69              	.LVL6:
  70 002c 38BD     		pop	{r3, r4, r5, pc}
  71              	.LVL7:
  72              	.L6:
  91:Middlewares/ST/STM32_SPWF0xSy/wifi_module_uart_01.c ****   /* AT+CFUN=1 //Soft reset */
  73              		.loc 1 91 0
ARM GAS  D:\cygwin64\tmp\ccuGdUOt.s 			page 4


  74 002e 0021     		movs	r1, #0
  75 0030 074B     		ldr	r3, .L7+12
  76 0032 1970     		strb	r1, [r3]
  93:Middlewares/ST/STM32_SPWF0xSy/wifi_module_uart_01.c ****   {
  77              		.loc 1 93 0
  78 0034 00E0     		b	.L3
  79              	.L4:
  95:Middlewares/ST/STM32_SPWF0xSy/wifi_module_uart_01.c ****   }
  80              		.loc 1 95 0
  81              		.syntax unified
  82              	@ 95 "Middlewares/ST/STM32_SPWF0xSy/wifi_module_uart_01.c" 1
  83 0036 00BF     		nop
  84              	@ 0 "" 2
  85              		.thumb
  86              		.syntax unified
  87              	.L3:
  93:Middlewares/ST/STM32_SPWF0xSy/wifi_module_uart_01.c ****   {
  88              		.loc 1 93 0
  89 0038 044B     		ldr	r3, .L7+8
  90 003a 9B7D     		ldrb	r3, [r3, #22]	@ zero_extendqisi2
  91 003c DBB2     		uxtb	r3, r3
  92 003e 0E2B     		cmp	r3, #14
  93 0040 F9D1     		bne	.L4
  94 0042 F2E7     		b	.L2
  95              	.L8:
  96              		.align	2
  97              	.L7:
  98 0044 00000000 		.word	WiFi_AT_Cmd_Buff
  99 0048 00000000 		.word	.LC0
 100 004c 00000000 		.word	IO_status_flag
 101 0050 16000000 		.word	IO_status_flag+22
 102              		.cfi_endproc
 103              	.LFE275:
 105              		.section	.text.Process_Wind_Indication,"ax",%progbits
 106              		.align	1
 107              		.global	Process_Wind_Indication
 108              		.syntax unified
 109              		.thumb
 110              		.thumb_func
 111              		.fpu fpv4-sp-d16
 113              	Process_Wind_Indication:
 114              	.LFB277:
  99:Middlewares/ST/STM32_SPWF0xSy/wifi_module_uart_01.c **** #endif
 100:Middlewares/ST/STM32_SPWF0xSy/wifi_module_uart_01.c **** 
 101:Middlewares/ST/STM32_SPWF0xSy/wifi_module_uart_01.c **** /**
 102:Middlewares/ST/STM32_SPWF0xSy/wifi_module_uart_01.c **** * @brief  Process_Buffer
 103:Middlewares/ST/STM32_SPWF0xSy/wifi_module_uart_01.c **** *         Process and construct a Wind Line buffer
 104:Middlewares/ST/STM32_SPWF0xSy/wifi_module_uart_01.c **** * @param  ptr: pointer to one single byte
 105:Middlewares/ST/STM32_SPWF0xSy/wifi_module_uart_01.c **** * @retval None
 106:Middlewares/ST/STM32_SPWF0xSy/wifi_module_uart_01.c **** */
 107:Middlewares/ST/STM32_SPWF0xSy/wifi_module_uart_01.c **** 
 108:Middlewares/ST/STM32_SPWF0xSy/wifi_module_uart_01.c **** void Process_Buffer(uint8_t * ptr)
 109:Middlewares/ST/STM32_SPWF0xSy/wifi_module_uart_01.c **** {
 110:Middlewares/ST/STM32_SPWF0xSy/wifi_module_uart_01.c ****   static uint32_t Fillptr=0;
 111:Middlewares/ST/STM32_SPWF0xSy/wifi_module_uart_01.c ****   static uint8_t index, chan_value;
 112:Middlewares/ST/STM32_SPWF0xSy/wifi_module_uart_01.c ****   unsigned char rxdata = 0;
 113:Middlewares/ST/STM32_SPWF0xSy/wifi_module_uart_01.c ****   int rssi_value = 0;
ARM GAS  D:\cygwin64\tmp\ccuGdUOt.s 			page 5


 114:Middlewares/ST/STM32_SPWF0xSy/wifi_module_uart_01.c ****   char SocketId_No[2];
 115:Middlewares/ST/STM32_SPWF0xSy/wifi_module_uart_01.c ****   char databytes_No[4];
 116:Middlewares/ST/STM32_SPWF0xSy/wifi_module_uart_01.c ****   char * pStr;
 117:Middlewares/ST/STM32_SPWF0xSy/wifi_module_uart_01.c ****   static uint8_t HTTP_Runway_Buff[6];  //Used to store the last 6 bytes in between User Callbacks d
 118:Middlewares/ST/STM32_SPWF0xSy/wifi_module_uart_01.c ****   static uint8_t process_buffer[MAX_BUFFER_GLOBAL];
 119:Middlewares/ST/STM32_SPWF0xSy/wifi_module_uart_01.c **** 
 120:Middlewares/ST/STM32_SPWF0xSy/wifi_module_uart_01.c ****   rxdata =  *(ptr+0);  
 121:Middlewares/ST/STM32_SPWF0xSy/wifi_module_uart_01.c ****   //printf(&rxdata);    //check prints for debug...to be removed or kept in DEBUG statement
 122:Middlewares/ST/STM32_SPWF0xSy/wifi_module_uart_01.c ****   if(WiFi_Control_Variables.enable_receive_data_chunk == WIFI_FALSE && rxdata != '\0')
 123:Middlewares/ST/STM32_SPWF0xSy/wifi_module_uart_01.c ****     process_buffer[Fillptr++] = rxdata;
 124:Middlewares/ST/STM32_SPWF0xSy/wifi_module_uart_01.c ****    reset_event(&wifi_instances.wifi_event);
 125:Middlewares/ST/STM32_SPWF0xSy/wifi_module_uart_01.c **** 
 126:Middlewares/ST/STM32_SPWF0xSy/wifi_module_uart_01.c ****     if((process_buffer[Fillptr-2]==0xD) && (process_buffer[Fillptr-1]==0xA) 
 127:Middlewares/ST/STM32_SPWF0xSy/wifi_module_uart_01.c ****        && !WiFi_Control_Variables.enable_receive_http_response && !IO_status_flag.sock_read_ongoing
 128:Middlewares/ST/STM32_SPWF0xSy/wifi_module_uart_01.c ****       {
 129:Middlewares/ST/STM32_SPWF0xSy/wifi_module_uart_01.c ****           if((strstr((const char *)process_buffer,"WIND:")) != NULL)
 130:Middlewares/ST/STM32_SPWF0xSy/wifi_module_uart_01.c ****           {
 131:Middlewares/ST/STM32_SPWF0xSy/wifi_module_uart_01.c ****               //end of msg received. Will not receive any other msg till we process this.
 132:Middlewares/ST/STM32_SPWF0xSy/wifi_module_uart_01.c ****               Stop_Timer();
 133:Middlewares/ST/STM32_SPWF0xSy/wifi_module_uart_01.c ****               #if defined (USE_STM32L0XX_NUCLEO) || (USE_STM32F4XX_NUCLEO) || (USE_STM32L4XX_NUCLEO
 134:Middlewares/ST/STM32_SPWF0xSy/wifi_module_uart_01.c ****               __disable_irq();
 135:Middlewares/ST/STM32_SPWF0xSy/wifi_module_uart_01.c ****               #endif
 136:Middlewares/ST/STM32_SPWF0xSy/wifi_module_uart_01.c ****               Process_Wind_Indication(&process_buffer[0]);
 137:Middlewares/ST/STM32_SPWF0xSy/wifi_module_uart_01.c ****               #if defined (USE_STM32L0XX_NUCLEO) || (USE_STM32F4XX_NUCLEO) || (USE_STM32L4XX_NUCLEO
 138:Middlewares/ST/STM32_SPWF0xSy/wifi_module_uart_01.c ****               __enable_irq();
 139:Middlewares/ST/STM32_SPWF0xSy/wifi_module_uart_01.c ****               #endif
 140:Middlewares/ST/STM32_SPWF0xSy/wifi_module_uart_01.c ****               Start_Timer();
 141:Middlewares/ST/STM32_SPWF0xSy/wifi_module_uart_01.c **** 
 142:Middlewares/ST/STM32_SPWF0xSy/wifi_module_uart_01.c ****               if(!WiFi_Control_Variables.prevent_push_WIFI_event)
 143:Middlewares/ST/STM32_SPWF0xSy/wifi_module_uart_01.c ****                 {
 144:Middlewares/ST/STM32_SPWF0xSy/wifi_module_uart_01.c ****                     __disable_irq();
 145:Middlewares/ST/STM32_SPWF0xSy/wifi_module_uart_01.c ****                     push_eventbuffer_queue(&wifi_instances.event_buff, wifi_instances.wifi_event);
 146:Middlewares/ST/STM32_SPWF0xSy/wifi_module_uart_01.c ****                      __enable_irq();
 147:Middlewares/ST/STM32_SPWF0xSy/wifi_module_uart_01.c ****                     reset_event(&wifi_instances.wifi_event);
 148:Middlewares/ST/STM32_SPWF0xSy/wifi_module_uart_01.c ****                 }
 149:Middlewares/ST/STM32_SPWF0xSy/wifi_module_uart_01.c **** 
 150:Middlewares/ST/STM32_SPWF0xSy/wifi_module_uart_01.c ****               else if(!WiFi_Control_Variables.queue_wifi_wind_message)  //if we do not want to queu
 151:Middlewares/ST/STM32_SPWF0xSy/wifi_module_uart_01.c ****                 {
 152:Middlewares/ST/STM32_SPWF0xSy/wifi_module_uart_01.c ****                     reset_event(&wifi_instances.wifi_event);
 153:Middlewares/ST/STM32_SPWF0xSy/wifi_module_uart_01.c ****                     WiFi_Control_Variables.prevent_push_WIFI_event = WIFI_FALSE;
 154:Middlewares/ST/STM32_SPWF0xSy/wifi_module_uart_01.c ****                     WiFi_Control_Variables.queue_wifi_wind_message = WIFI_TRUE;
 155:Middlewares/ST/STM32_SPWF0xSy/wifi_module_uart_01.c ****                 }
 156:Middlewares/ST/STM32_SPWF0xSy/wifi_module_uart_01.c ****               if (!WiFi_Control_Variables.do_not_reset_push_WIFI_event) 
 157:Middlewares/ST/STM32_SPWF0xSy/wifi_module_uart_01.c ****                 WiFi_Control_Variables.prevent_push_WIFI_event = WIFI_FALSE;
 158:Middlewares/ST/STM32_SPWF0xSy/wifi_module_uart_01.c **** 
 159:Middlewares/ST/STM32_SPWF0xSy/wifi_module_uart_01.c ****               Fillptr=0;
 160:Middlewares/ST/STM32_SPWF0xSy/wifi_module_uart_01.c ****               if(WiFi_Control_Variables.enable_sock_read && WiFi_Control_Variables.Q_Contains_Messa
 161:Middlewares/ST/STM32_SPWF0xSy/wifi_module_uart_01.c ****                 WiFi_Control_Variables.Q_Contains_Message = WIFI_FALSE;
 162:Middlewares/ST/STM32_SPWF0xSy/wifi_module_uart_01.c ****               else
 163:Middlewares/ST/STM32_SPWF0xSy/wifi_module_uart_01.c ****                 return;
 164:Middlewares/ST/STM32_SPWF0xSy/wifi_module_uart_01.c ****           }
 165:Middlewares/ST/STM32_SPWF0xSy/wifi_module_uart_01.c **** 
 166:Middlewares/ST/STM32_SPWF0xSy/wifi_module_uart_01.c ****           else if((strstr((const char *)process_buffer,"\r\nOK\r\n")) != NULL)
 167:Middlewares/ST/STM32_SPWF0xSy/wifi_module_uart_01.c ****           {
 168:Middlewares/ST/STM32_SPWF0xSy/wifi_module_uart_01.c ****               /*Now Check to which AT Cmd response this OK belongs to so that correct parsing can b
 169:Middlewares/ST/STM32_SPWF0xSy/wifi_module_uart_01.c **** 
 170:Middlewares/ST/STM32_SPWF0xSy/wifi_module_uart_01.c ****               // SOCKON ID (Open a client socket)
ARM GAS  D:\cygwin64\tmp\ccuGdUOt.s 			page 6


 171:Middlewares/ST/STM32_SPWF0xSy/wifi_module_uart_01.c ****               if(((pStr=(strstr((const char *)process_buffer,"ID: "))) != NULL))      
 172:Middlewares/ST/STM32_SPWF0xSy/wifi_module_uart_01.c ****                 {
 173:Middlewares/ST/STM32_SPWF0xSy/wifi_module_uart_01.c ****                     SocketId_No[0]    = *(pStr + 4) ;
 174:Middlewares/ST/STM32_SPWF0xSy/wifi_module_uart_01.c ****                     SocketId_No[1]    = *(pStr + 5) ;
 175:Middlewares/ST/STM32_SPWF0xSy/wifi_module_uart_01.c ****                     wifi_instances.wifi_event.socket_id = (((SocketId_No[0] - '0') * 10 ) + (Socket
 176:Middlewares/ST/STM32_SPWF0xSy/wifi_module_uart_01.c ****                     wifi_instances.wifi_event.event     =  WIFI_SOCK_ID_EVENT;
 177:Middlewares/ST/STM32_SPWF0xSy/wifi_module_uart_01.c ****                     __disable_irq();
 178:Middlewares/ST/STM32_SPWF0xSy/wifi_module_uart_01.c ****                     push_eventbuffer_queue(&wifi_instances.event_buff, wifi_instances.wifi_event);
 179:Middlewares/ST/STM32_SPWF0xSy/wifi_module_uart_01.c ****                      __enable_irq();
 180:Middlewares/ST/STM32_SPWF0xSy/wifi_module_uart_01.c ****                     reset_event(&wifi_instances.wifi_event);
 181:Middlewares/ST/STM32_SPWF0xSy/wifi_module_uart_01.c ****                  }
 182:Middlewares/ST/STM32_SPWF0xSy/wifi_module_uart_01.c **** 
 183:Middlewares/ST/STM32_SPWF0xSy/wifi_module_uart_01.c ****                 // DATALEN from SOCKQ
 184:Middlewares/ST/STM32_SPWF0xSy/wifi_module_uart_01.c ****                else if((pStr=(strstr((const char *)process_buffer,"DATALEN: "))) != NULL)
 185:Middlewares/ST/STM32_SPWF0xSy/wifi_module_uart_01.c ****                  {
 186:Middlewares/ST/STM32_SPWF0xSy/wifi_module_uart_01.c ****                     //Find the DataLength and do a socket read
 187:Middlewares/ST/STM32_SPWF0xSy/wifi_module_uart_01.c ****                     databytes_No[0] = *(pStr + 9);
 188:Middlewares/ST/STM32_SPWF0xSy/wifi_module_uart_01.c ****                     databytes_No[1] = *(pStr + 10);
 189:Middlewares/ST/STM32_SPWF0xSy/wifi_module_uart_01.c ****                     databytes_No[2] = *(pStr + 11);
 190:Middlewares/ST/STM32_SPWF0xSy/wifi_module_uart_01.c ****                     databytes_No[3] = *(pStr + 12);
 191:Middlewares/ST/STM32_SPWF0xSy/wifi_module_uart_01.c **** 
 192:Middlewares/ST/STM32_SPWF0xSy/wifi_module_uart_01.c ****                     if( databytes_No[1] == '\r')
 193:Middlewares/ST/STM32_SPWF0xSy/wifi_module_uart_01.c ****                       {
 194:Middlewares/ST/STM32_SPWF0xSy/wifi_module_uart_01.c ****                         WiFi_Counter_Variables.Socket_Data_Length = databytes_No[0] - '0'; 
 195:Middlewares/ST/STM32_SPWF0xSy/wifi_module_uart_01.c ****                       }
 196:Middlewares/ST/STM32_SPWF0xSy/wifi_module_uart_01.c ****                     else if( databytes_No[2] == '\r')
 197:Middlewares/ST/STM32_SPWF0xSy/wifi_module_uart_01.c ****                       {
 198:Middlewares/ST/STM32_SPWF0xSy/wifi_module_uart_01.c ****                         WiFi_Counter_Variables.Socket_Data_Length = (((databytes_No[0] - '0') * 10 
 199:Middlewares/ST/STM32_SPWF0xSy/wifi_module_uart_01.c ****                       }
 200:Middlewares/ST/STM32_SPWF0xSy/wifi_module_uart_01.c ****                     else if( databytes_No[3] == '\r')
 201:Middlewares/ST/STM32_SPWF0xSy/wifi_module_uart_01.c ****                       {
 202:Middlewares/ST/STM32_SPWF0xSy/wifi_module_uart_01.c ****                         WiFi_Counter_Variables.Socket_Data_Length = (((databytes_No[0] - '0') * 100
 203:Middlewares/ST/STM32_SPWF0xSy/wifi_module_uart_01.c ****                       }
 204:Middlewares/ST/STM32_SPWF0xSy/wifi_module_uart_01.c ****                     else //it's a 4-digit number
 205:Middlewares/ST/STM32_SPWF0xSy/wifi_module_uart_01.c ****                       {
 206:Middlewares/ST/STM32_SPWF0xSy/wifi_module_uart_01.c ****                         WiFi_Counter_Variables.Socket_Data_Length  = ((databytes_No[0] - '0') * 100
 207:Middlewares/ST/STM32_SPWF0xSy/wifi_module_uart_01.c ****                       }
 208:Middlewares/ST/STM32_SPWF0xSy/wifi_module_uart_01.c ****                     if(WiFi_Counter_Variables.Socket_Data_Length != 0)
 209:Middlewares/ST/STM32_SPWF0xSy/wifi_module_uart_01.c ****                       {
 210:Middlewares/ST/STM32_SPWF0xSy/wifi_module_uart_01.c ****                         WiFi_Control_Variables.start_sock_read = WIFI_TRUE;
 211:Middlewares/ST/STM32_SPWF0xSy/wifi_module_uart_01.c ****                       }
 212:Middlewares/ST/STM32_SPWF0xSy/wifi_module_uart_01.c ****                     else if(WiFi_Counter_Variables.Socket_Data_Length == 0)  //no data remaining to
 213:Middlewares/ST/STM32_SPWF0xSy/wifi_module_uart_01.c ****                       {
 214:Middlewares/ST/STM32_SPWF0xSy/wifi_module_uart_01.c ****                         if(WiFi_Counter_Variables.socket_close_pending[WiFi_Counter_Variables.socko
 215:Middlewares/ST/STM32_SPWF0xSy/wifi_module_uart_01.c ****                           {
 216:Middlewares/ST/STM32_SPWF0xSy/wifi_module_uart_01.c ****                             // Q socket_close event for that socket for which sock_close command co
 217:Middlewares/ST/STM32_SPWF0xSy/wifi_module_uart_01.c ****                              if(open_sockets[WiFi_Counter_Variables.sockon_query_id])
 218:Middlewares/ST/STM32_SPWF0xSy/wifi_module_uart_01.c ****                               {
 219:Middlewares/ST/STM32_SPWF0xSy/wifi_module_uart_01.c ****                                 Queue_Client_Close_Event(WiFi_Counter_Variables.sockon_query_id, NE
 220:Middlewares/ST/STM32_SPWF0xSy/wifi_module_uart_01.c ****                               }
 221:Middlewares/ST/STM32_SPWF0xSy/wifi_module_uart_01.c ****                             WiFi_Counter_Variables.socket_close_pending[WiFi_Counter_Variables.sock
 222:Middlewares/ST/STM32_SPWF0xSy/wifi_module_uart_01.c ****                           }
 223:Middlewares/ST/STM32_SPWF0xSy/wifi_module_uart_01.c ****                         WiFi_Control_Variables.stop_event_dequeue = WIFI_FALSE;  //continue popping
 224:Middlewares/ST/STM32_SPWF0xSy/wifi_module_uart_01.c ****                       }
 225:Middlewares/ST/STM32_SPWF0xSy/wifi_module_uart_01.c ****                  }
 226:Middlewares/ST/STM32_SPWF0xSy/wifi_module_uart_01.c **** 
 227:Middlewares/ST/STM32_SPWF0xSy/wifi_module_uart_01.c ****                else if((pStr = (char *)(strstr((const char *)process_buffer," = "))) != NULL)
ARM GAS  D:\cygwin64\tmp\ccuGdUOt.s 			page 7


 228:Middlewares/ST/STM32_SPWF0xSy/wifi_module_uart_01.c ****                  {
 229:Middlewares/ST/STM32_SPWF0xSy/wifi_module_uart_01.c ****                     // AT command GCFG
 230:Middlewares/ST/STM32_SPWF0xSy/wifi_module_uart_01.c ****                     wifi_instances.wifi_event.event = WIFI_GCFG_EVENT;
 231:Middlewares/ST/STM32_SPWF0xSy/wifi_module_uart_01.c ****                     //we need to copy only the value in get_cfg_value variable
 232:Middlewares/ST/STM32_SPWF0xSy/wifi_module_uart_01.c ****                     memcpy(WiFi_Counter_Variables.get_cfg_value, pStr+3, (strlen(pStr)-11));
 233:Middlewares/ST/STM32_SPWF0xSy/wifi_module_uart_01.c ****                     __disable_irq();
 234:Middlewares/ST/STM32_SPWF0xSy/wifi_module_uart_01.c ****                     push_eventbuffer_queue(&wifi_instances.event_buff, wifi_instances.wifi_event);
 235:Middlewares/ST/STM32_SPWF0xSy/wifi_module_uart_01.c ****                      __enable_irq();
 236:Middlewares/ST/STM32_SPWF0xSy/wifi_module_uart_01.c ****                     reset_event(&wifi_instances.wifi_event);
 237:Middlewares/ST/STM32_SPWF0xSy/wifi_module_uart_01.c ****                  }
 238:Middlewares/ST/STM32_SPWF0xSy/wifi_module_uart_01.c **** 
 239:Middlewares/ST/STM32_SPWF0xSy/wifi_module_uart_01.c ****                else
 240:Middlewares/ST/STM32_SPWF0xSy/wifi_module_uart_01.c ****                  {
 241:Middlewares/ST/STM32_SPWF0xSy/wifi_module_uart_01.c ****                     //This is a standalone OK
 242:Middlewares/ST/STM32_SPWF0xSy/wifi_module_uart_01.c ****                     /*Cases possible
 243:Middlewares/ST/STM32_SPWF0xSy/wifi_module_uart_01.c ****                     - TLSCERT,TLSCERT2, TLSDOMAIN, SETTIME
 244:Middlewares/ST/STM32_SPWF0xSy/wifi_module_uart_01.c ****                     - S.SOCKW, SOCKR, S.SOCKC, S.SOCKD (open a server socket)
 245:Middlewares/ST/STM32_SPWF0xSy/wifi_module_uart_01.c ****                     - File Operations
 246:Middlewares/ST/STM32_SPWF0xSy/wifi_module_uart_01.c ****                     - S.GPIOC and S.GPIOW
 247:Middlewares/ST/STM32_SPWF0xSy/wifi_module_uart_01.c ****                     */
 248:Middlewares/ST/STM32_SPWF0xSy/wifi_module_uart_01.c ****                     //Push a simple OK Event, if this is an OK event required to be pushed to Q 
 249:Middlewares/ST/STM32_SPWF0xSy/wifi_module_uart_01.c ****                     if(IO_status_flag.prevent_push_OK_event)
 250:Middlewares/ST/STM32_SPWF0xSy/wifi_module_uart_01.c ****                       {
 251:Middlewares/ST/STM32_SPWF0xSy/wifi_module_uart_01.c ****                           //This OK is not to be handled, hence the pop action on OK completion to 
 252:Middlewares/ST/STM32_SPWF0xSy/wifi_module_uart_01.c ****                           if(IO_status_flag.client_socket_close_ongoing) //OK received is of the so
 253:Middlewares/ST/STM32_SPWF0xSy/wifi_module_uart_01.c ****                             {
 254:Middlewares/ST/STM32_SPWF0xSy/wifi_module_uart_01.c ****                                 if(WiFi_Counter_Variables.no_of_open_client_sockets > 0)
 255:Middlewares/ST/STM32_SPWF0xSy/wifi_module_uart_01.c ****                                   WiFi_Counter_Variables.no_of_open_client_sockets--;
 256:Middlewares/ST/STM32_SPWF0xSy/wifi_module_uart_01.c ****                                 IO_status_flag.prevent_push_OK_event                         = WIFI
 257:Middlewares/ST/STM32_SPWF0xSy/wifi_module_uart_01.c ****                                 open_sockets[WiFi_Counter_Variables.remote_socket_closed_id] = WIFI
 258:Middlewares/ST/STM32_SPWF0xSy/wifi_module_uart_01.c ****                                 //socket ID for which OK is received.
 259:Middlewares/ST/STM32_SPWF0xSy/wifi_module_uart_01.c ****                                 WiFi_Counter_Variables.closed_socket_id                      = WiFi
 260:Middlewares/ST/STM32_SPWF0xSy/wifi_module_uart_01.c ****                                 IO_status_flag.client_socket_close_ongoing                   = WIFI
 261:Middlewares/ST/STM32_SPWF0xSy/wifi_module_uart_01.c ****                                 IO_status_flag.client_socket_close_type                      = NET_
 262:Middlewares/ST/STM32_SPWF0xSy/wifi_module_uart_01.c **** 
 263:Middlewares/ST/STM32_SPWF0xSy/wifi_module_uart_01.c ****                                 //User Callback not required in case if sock_close is called by Use
 264:Middlewares/ST/STM32_SPWF0xSy/wifi_module_uart_01.c ****                                 if(WiFi_Control_Variables.enable_SockON_Server_Closed_Callback)
 265:Middlewares/ST/STM32_SPWF0xSy/wifi_module_uart_01.c ****                                   {
 266:Middlewares/ST/STM32_SPWF0xSy/wifi_module_uart_01.c ****                                     // User callback after successful socket Close
 267:Middlewares/ST/STM32_SPWF0xSy/wifi_module_uart_01.c ****                                     WiFi_Control_Variables.SockON_Server_Closed_Callback         = 
 268:Middlewares/ST/STM32_SPWF0xSy/wifi_module_uart_01.c ****                                   }
 269:Middlewares/ST/STM32_SPWF0xSy/wifi_module_uart_01.c ****                                 else
 270:Middlewares/ST/STM32_SPWF0xSy/wifi_module_uart_01.c ****                                     WiFi_Control_Variables.enable_SockON_Server_Closed_Callback  = 
 271:Middlewares/ST/STM32_SPWF0xSy/wifi_module_uart_01.c ****                                 WiFi_Control_Variables.stop_event_dequeue                        = 
 272:Middlewares/ST/STM32_SPWF0xSy/wifi_module_uart_01.c ****                             }
 273:Middlewares/ST/STM32_SPWF0xSy/wifi_module_uart_01.c ****                       }
 274:Middlewares/ST/STM32_SPWF0xSy/wifi_module_uart_01.c **** 
 275:Middlewares/ST/STM32_SPWF0xSy/wifi_module_uart_01.c ****                     else
 276:Middlewares/ST/STM32_SPWF0xSy/wifi_module_uart_01.c ****                       {
 277:Middlewares/ST/STM32_SPWF0xSy/wifi_module_uart_01.c ****                           wifi_instances.wifi_event.event = WIFI_OK_EVENT;
 278:Middlewares/ST/STM32_SPWF0xSy/wifi_module_uart_01.c ****                           __disable_irq();
 279:Middlewares/ST/STM32_SPWF0xSy/wifi_module_uart_01.c ****                           push_eventbuffer_queue(&wifi_instances.event_buff, wifi_instances.wifi_ev
 280:Middlewares/ST/STM32_SPWF0xSy/wifi_module_uart_01.c ****                            __enable_irq();
 281:Middlewares/ST/STM32_SPWF0xSy/wifi_module_uart_01.c ****                           reset_event(&wifi_instances.wifi_event);
 282:Middlewares/ST/STM32_SPWF0xSy/wifi_module_uart_01.c ****                       }
 283:Middlewares/ST/STM32_SPWF0xSy/wifi_module_uart_01.c ****                     IO_status_flag.prevent_push_OK_event = WIFI_FALSE;
 284:Middlewares/ST/STM32_SPWF0xSy/wifi_module_uart_01.c ****                  }
ARM GAS  D:\cygwin64\tmp\ccuGdUOt.s 			page 8


 285:Middlewares/ST/STM32_SPWF0xSy/wifi_module_uart_01.c ****               Fillptr=0;
 286:Middlewares/ST/STM32_SPWF0xSy/wifi_module_uart_01.c ****               memset(process_buffer, 0x00, MAX_BUFFER_GLOBAL);
 287:Middlewares/ST/STM32_SPWF0xSy/wifi_module_uart_01.c **** 
 288:Middlewares/ST/STM32_SPWF0xSy/wifi_module_uart_01.c ****               if(WiFi_Control_Variables.enable_sock_read && WiFi_Control_Variables.Q_Contains_Messa
 289:Middlewares/ST/STM32_SPWF0xSy/wifi_module_uart_01.c ****                 WiFi_Control_Variables.Q_Contains_Message = WIFI_FALSE;
 290:Middlewares/ST/STM32_SPWF0xSy/wifi_module_uart_01.c ****               else
 291:Middlewares/ST/STM32_SPWF0xSy/wifi_module_uart_01.c ****                 return;
 292:Middlewares/ST/STM32_SPWF0xSy/wifi_module_uart_01.c ****           }
 293:Middlewares/ST/STM32_SPWF0xSy/wifi_module_uart_01.c **** 
 294:Middlewares/ST/STM32_SPWF0xSy/wifi_module_uart_01.c ****          else if((((strstr((const char *)process_buffer,"ERROR"))) != NULL))
 295:Middlewares/ST/STM32_SPWF0xSy/wifi_module_uart_01.c ****           {
 296:Middlewares/ST/STM32_SPWF0xSy/wifi_module_uart_01.c ****               //This is an ERROR
 297:Middlewares/ST/STM32_SPWF0xSy/wifi_module_uart_01.c ****               //There can be only ONE outstanding AT command and hence this ERROR belongs to that
 298:Middlewares/ST/STM32_SPWF0xSy/wifi_module_uart_01.c ****               //HTTP -> ERROR: host not found
 299:Middlewares/ST/STM32_SPWF0xSy/wifi_module_uart_01.c ****               //@TBD: Check all Errors Possible here???
 300:Middlewares/ST/STM32_SPWF0xSy/wifi_module_uart_01.c ****               if((strstr((const char *)process_buffer,"\r\nERROR: Pending data\r\n")) != NULL) //if
 301:Middlewares/ST/STM32_SPWF0xSy/wifi_module_uart_01.c ****                 {
 302:Middlewares/ST/STM32_SPWF0xSy/wifi_module_uart_01.c ****                     printf("\r\nERROR: Socket could not be closed..PENDING DATA\r\n");
 303:Middlewares/ST/STM32_SPWF0xSy/wifi_module_uart_01.c ****                     //prevent the OK received after socket close command to be Q'ed
 304:Middlewares/ST/STM32_SPWF0xSy/wifi_module_uart_01.c ****                     IO_status_flag.prevent_push_OK_event        = WIFI_FALSE;     
 305:Middlewares/ST/STM32_SPWF0xSy/wifi_module_uart_01.c ****                     IO_status_flag.client_socket_close_ongoing  = WIFI_FALSE;
 306:Middlewares/ST/STM32_SPWF0xSy/wifi_module_uart_01.c ****                     
 307:Middlewares/ST/STM32_SPWF0xSy/wifi_module_uart_01.c ****                     //when error while user trying to close a socket, so now callback required when
 308:Middlewares/ST/STM32_SPWF0xSy/wifi_module_uart_01.c ****                     if(!WiFi_Control_Variables.enable_SockON_Server_Closed_Callback)
 309:Middlewares/ST/STM32_SPWF0xSy/wifi_module_uart_01.c ****                       {
 310:Middlewares/ST/STM32_SPWF0xSy/wifi_module_uart_01.c ****                         //enable the SockON_Server_Closed_Callback
 311:Middlewares/ST/STM32_SPWF0xSy/wifi_module_uart_01.c ****                         WiFi_Control_Variables.enable_SockON_Server_Closed_Callback = WIFI_TRUE;
 312:Middlewares/ST/STM32_SPWF0xSy/wifi_module_uart_01.c ****                       }
 313:Middlewares/ST/STM32_SPWF0xSy/wifi_module_uart_01.c ****                     //close the socket for which ERROR is received afterwards, after reading the da
 314:Middlewares/ST/STM32_SPWF0xSy/wifi_module_uart_01.c ****                     WiFi_Counter_Variables.socket_close_pending[WiFi_Counter_Variables.remote_socke
 315:Middlewares/ST/STM32_SPWF0xSy/wifi_module_uart_01.c ****                     WiFi_Control_Variables.stop_event_dequeue = WIFI_FALSE;
 316:Middlewares/ST/STM32_SPWF0xSy/wifi_module_uart_01.c ****                 }
 317:Middlewares/ST/STM32_SPWF0xSy/wifi_module_uart_01.c ****                 /* occur when there is no client and we are trying to switch to data/command mode *
 318:Middlewares/ST/STM32_SPWF0xSy/wifi_module_uart_01.c ****                else if(strstr((const char *)process_buffer,"\r\nERROR: Data mode not available\r\n"
 319:Middlewares/ST/STM32_SPWF0xSy/wifi_module_uart_01.c ****                        strstr((const char *)process_buffer,"\r\nERROR: Command mode not available\r
 320:Middlewares/ST/STM32_SPWF0xSy/wifi_module_uart_01.c ****                 {
 321:Middlewares/ST/STM32_SPWF0xSy/wifi_module_uart_01.c ****                      /* in case of wind 64: if error, then enable the deQueue and continue popping 
 322:Middlewares/ST/STM32_SPWF0xSy/wifi_module_uart_01.c ****                     if(WiFi_Control_Variables.data_pending_sockD)
 323:Middlewares/ST/STM32_SPWF0xSy/wifi_module_uart_01.c ****                       {
 324:Middlewares/ST/STM32_SPWF0xSy/wifi_module_uart_01.c ****                         WiFi_Control_Variables.data_pending_sockD = WIFI_FALSE;
 325:Middlewares/ST/STM32_SPWF0xSy/wifi_module_uart_01.c ****                         WiFi_Control_Variables.stop_event_dequeue = WIFI_FALSE;
 326:Middlewares/ST/STM32_SPWF0xSy/wifi_module_uart_01.c ****                         WiFi_Control_Variables.enable_sock_read   = WIFI_FALSE;
 327:Middlewares/ST/STM32_SPWF0xSy/wifi_module_uart_01.c ****                         WiFi_Control_Variables.enable_receive_data_chunk = WIFI_FALSE;
 328:Middlewares/ST/STM32_SPWF0xSy/wifi_module_uart_01.c ****                         WiFi_Counter_Variables.chunk_size         = 0;
 329:Middlewares/ST/STM32_SPWF0xSy/wifi_module_uart_01.c ****                         WiFi_Counter_Variables.message_size       = 0;
 330:Middlewares/ST/STM32_SPWF0xSy/wifi_module_uart_01.c ****                       }
 331:Middlewares/ST/STM32_SPWF0xSy/wifi_module_uart_01.c **** 
 332:Middlewares/ST/STM32_SPWF0xSy/wifi_module_uart_01.c ****                 }
 333:Middlewares/ST/STM32_SPWF0xSy/wifi_module_uart_01.c ****               else
 334:Middlewares/ST/STM32_SPWF0xSy/wifi_module_uart_01.c ****                 {
 335:Middlewares/ST/STM32_SPWF0xSy/wifi_module_uart_01.c ****                     if(strstr((const char *)process_buffer,"Illegal") != NULL)
 336:Middlewares/ST/STM32_SPWF0xSy/wifi_module_uart_01.c ****                     {
 337:Middlewares/ST/STM32_SPWF0xSy/wifi_module_uart_01.c ****                       printf("\r\n Error: Illegal socket ID \r\n");
 338:Middlewares/ST/STM32_SPWF0xSy/wifi_module_uart_01.c ****                     }
 339:Middlewares/ST/STM32_SPWF0xSy/wifi_module_uart_01.c ****                     wifi_instances.wifi_event.event = WIFI_ERROR_EVENT;
 340:Middlewares/ST/STM32_SPWF0xSy/wifi_module_uart_01.c ****                     __disable_irq();
 341:Middlewares/ST/STM32_SPWF0xSy/wifi_module_uart_01.c ****                     push_eventbuffer_queue(&wifi_instances.event_buff, wifi_instances.wifi_event);
ARM GAS  D:\cygwin64\tmp\ccuGdUOt.s 			page 9


 342:Middlewares/ST/STM32_SPWF0xSy/wifi_module_uart_01.c ****                      __enable_irq();
 343:Middlewares/ST/STM32_SPWF0xSy/wifi_module_uart_01.c ****                     reset_event(&wifi_instances.wifi_event);
 344:Middlewares/ST/STM32_SPWF0xSy/wifi_module_uart_01.c ****                     if(WiFi_Control_Variables.stop_event_dequeue)
 345:Middlewares/ST/STM32_SPWF0xSy/wifi_module_uart_01.c ****                       /*ERROR:Illegal Socket ID*/
 346:Middlewares/ST/STM32_SPWF0xSy/wifi_module_uart_01.c ****                       WiFi_Control_Variables.stop_event_dequeue = WIFI_FALSE;//continue popping eve
 347:Middlewares/ST/STM32_SPWF0xSy/wifi_module_uart_01.c ****                     if(WiFi_Control_Variables.enable_timeout_timer)
 348:Middlewares/ST/STM32_SPWF0xSy/wifi_module_uart_01.c ****                       {
 349:Middlewares/ST/STM32_SPWF0xSy/wifi_module_uart_01.c ****                         WiFi_Control_Variables.enable_timeout_timer = WIFI_FALSE;
 350:Middlewares/ST/STM32_SPWF0xSy/wifi_module_uart_01.c ****                         WiFi_Counter_Variables.timeout_tick = 0;
 351:Middlewares/ST/STM32_SPWF0xSy/wifi_module_uart_01.c ****                       }
 352:Middlewares/ST/STM32_SPWF0xSy/wifi_module_uart_01.c ****                 }
 353:Middlewares/ST/STM32_SPWF0xSy/wifi_module_uart_01.c ****               Fillptr=0;
 354:Middlewares/ST/STM32_SPWF0xSy/wifi_module_uart_01.c ****               memset(process_buffer, 0x00, MAX_BUFFER_GLOBAL);
 355:Middlewares/ST/STM32_SPWF0xSy/wifi_module_uart_01.c **** 
 356:Middlewares/ST/STM32_SPWF0xSy/wifi_module_uart_01.c ****               if(WiFi_Control_Variables.enable_sock_read && WiFi_Control_Variables.Q_Contains_Messa
 357:Middlewares/ST/STM32_SPWF0xSy/wifi_module_uart_01.c ****                 WiFi_Control_Variables.Q_Contains_Message = WIFI_FALSE;
 358:Middlewares/ST/STM32_SPWF0xSy/wifi_module_uart_01.c ****               else
 359:Middlewares/ST/STM32_SPWF0xSy/wifi_module_uart_01.c ****                 return;
 360:Middlewares/ST/STM32_SPWF0xSy/wifi_module_uart_01.c ****           }
 361:Middlewares/ST/STM32_SPWF0xSy/wifi_module_uart_01.c **** 
 362:Middlewares/ST/STM32_SPWF0xSy/wifi_module_uart_01.c ****          else if((((strstr((const char *)process_buffer,"GPIO "))) != NULL)) 
 363:Middlewares/ST/STM32_SPWF0xSy/wifi_module_uart_01.c ****           {
 364:Middlewares/ST/STM32_SPWF0xSy/wifi_module_uart_01.c ****               // Receive GPIO Read
 365:Middlewares/ST/STM32_SPWF0xSy/wifi_module_uart_01.c ****               pStr = (char *) strstr((const char *)process_buffer,"= 0,");                         
 366:Middlewares/ST/STM32_SPWF0xSy/wifi_module_uart_01.c ****               if(pStr != NULL)
 367:Middlewares/ST/STM32_SPWF0xSy/wifi_module_uart_01.c ****                 {
 368:Middlewares/ST/STM32_SPWF0xSy/wifi_module_uart_01.c ****                     WiFi_Counter_Variables.gpio_value = 0;
 369:Middlewares/ST/STM32_SPWF0xSy/wifi_module_uart_01.c ****                 } 
 370:Middlewares/ST/STM32_SPWF0xSy/wifi_module_uart_01.c ****               else 
 371:Middlewares/ST/STM32_SPWF0xSy/wifi_module_uart_01.c ****                 {
 372:Middlewares/ST/STM32_SPWF0xSy/wifi_module_uart_01.c ****                   WiFi_Counter_Variables.gpio_value = 1;   
 373:Middlewares/ST/STM32_SPWF0xSy/wifi_module_uart_01.c ****                 }
 374:Middlewares/ST/STM32_SPWF0xSy/wifi_module_uart_01.c ****               pStr = (char *) strstr((const char *)process_buffer,"out");                          
 375:Middlewares/ST/STM32_SPWF0xSy/wifi_module_uart_01.c ****               if(pStr != NULL)
 376:Middlewares/ST/STM32_SPWF0xSy/wifi_module_uart_01.c ****                 {
 377:Middlewares/ST/STM32_SPWF0xSy/wifi_module_uart_01.c ****                     WiFi_Counter_Variables.gpio_dir= 0;    //out
 378:Middlewares/ST/STM32_SPWF0xSy/wifi_module_uart_01.c ****                 }
 379:Middlewares/ST/STM32_SPWF0xSy/wifi_module_uart_01.c ****               else
 380:Middlewares/ST/STM32_SPWF0xSy/wifi_module_uart_01.c ****                 {
 381:Middlewares/ST/STM32_SPWF0xSy/wifi_module_uart_01.c ****                     WiFi_Counter_Variables.gpio_dir= 1;    //in
 382:Middlewares/ST/STM32_SPWF0xSy/wifi_module_uart_01.c ****                 }
 383:Middlewares/ST/STM32_SPWF0xSy/wifi_module_uart_01.c ****               //Push GPIO Read Event on Event_Queue
 384:Middlewares/ST/STM32_SPWF0xSy/wifi_module_uart_01.c ****               wifi_instances.wifi_event.event = WIFI_GPIO_EVENT;
 385:Middlewares/ST/STM32_SPWF0xSy/wifi_module_uart_01.c ****               __disable_irq();
 386:Middlewares/ST/STM32_SPWF0xSy/wifi_module_uart_01.c ****               push_eventbuffer_queue(&wifi_instances.event_buff, wifi_instances.wifi_event);
 387:Middlewares/ST/STM32_SPWF0xSy/wifi_module_uart_01.c ****                __enable_irq();
 388:Middlewares/ST/STM32_SPWF0xSy/wifi_module_uart_01.c ****               reset_event(&wifi_instances.wifi_event);
 389:Middlewares/ST/STM32_SPWF0xSy/wifi_module_uart_01.c ****               Fillptr=0;
 390:Middlewares/ST/STM32_SPWF0xSy/wifi_module_uart_01.c ****               memset(process_buffer, 0x00, MAX_BUFFER_GLOBAL);
 391:Middlewares/ST/STM32_SPWF0xSy/wifi_module_uart_01.c **** 
 392:Middlewares/ST/STM32_SPWF0xSy/wifi_module_uart_01.c ****               if(WiFi_Control_Variables.enable_sock_read && WiFi_Control_Variables.Q_Contains_Messa
 393:Middlewares/ST/STM32_SPWF0xSy/wifi_module_uart_01.c ****                 WiFi_Control_Variables.Q_Contains_Message = WIFI_FALSE;
 394:Middlewares/ST/STM32_SPWF0xSy/wifi_module_uart_01.c ****               else
 395:Middlewares/ST/STM32_SPWF0xSy/wifi_module_uart_01.c ****                 return;
 396:Middlewares/ST/STM32_SPWF0xSy/wifi_module_uart_01.c ****           }
 397:Middlewares/ST/STM32_SPWF0xSy/wifi_module_uart_01.c **** 
 398:Middlewares/ST/STM32_SPWF0xSy/wifi_module_uart_01.c ****          else
ARM GAS  D:\cygwin64\tmp\ccuGdUOt.s 			page 10


 399:Middlewares/ST/STM32_SPWF0xSy/wifi_module_uart_01.c ****            {
 400:Middlewares/ST/STM32_SPWF0xSy/wifi_module_uart_01.c ****              //the data of wind:55 has \r\n...\r\n or before the actual data arrival there is a mes
 401:Middlewares/ST/STM32_SPWF0xSy/wifi_module_uart_01.c ****              if(WiFi_Control_Variables.enable_sock_read && WiFi_Control_Variables.Q_Contains_Messag
 402:Middlewares/ST/STM32_SPWF0xSy/wifi_module_uart_01.c ****                 {
 403:Middlewares/ST/STM32_SPWF0xSy/wifi_module_uart_01.c ****                    /* data is D Q'ed in pop_buffer and we return from here(process_buffer()) withou
 404:Middlewares/ST/STM32_SPWF0xSy/wifi_module_uart_01.c ****                         To avoid this, rewinding is necessary. */
 405:Middlewares/ST/STM32_SPWF0xSy/wifi_module_uart_01.c ****                     if(WiFi_Counter_Variables.pop_buffer_size)
 406:Middlewares/ST/STM32_SPWF0xSy/wifi_module_uart_01.c ****                       {
 407:Middlewares/ST/STM32_SPWF0xSy/wifi_module_uart_01.c ****                         __disable_irq();
 408:Middlewares/ST/STM32_SPWF0xSy/wifi_module_uart_01.c ****                          rewind_buffer_queue(&wifi_instances.big_buff,WiFi_Counter_Variables.pop_bu
 409:Middlewares/ST/STM32_SPWF0xSy/wifi_module_uart_01.c ****                          __enable_irq();
 410:Middlewares/ST/STM32_SPWF0xSy/wifi_module_uart_01.c ****                          memset(ptr, 0x00, WiFi_Counter_Variables.pop_buffer_size);
 411:Middlewares/ST/STM32_SPWF0xSy/wifi_module_uart_01.c ****                       }
 412:Middlewares/ST/STM32_SPWF0xSy/wifi_module_uart_01.c ****                     //used for bypassing enable_receive_data_chunk part for the first time \r\n..\r
 413:Middlewares/ST/STM32_SPWF0xSy/wifi_module_uart_01.c ****                     WiFi_Control_Variables.enable_sock_data   = WIFI_TRUE;
 414:Middlewares/ST/STM32_SPWF0xSy/wifi_module_uart_01.c ****                     WiFi_Control_Variables.Q_Contains_Message = WIFI_FALSE;
 415:Middlewares/ST/STM32_SPWF0xSy/wifi_module_uart_01.c ****                     WiFi_Counter_Variables.pop_queue_length   = Fillptr;
 416:Middlewares/ST/STM32_SPWF0xSy/wifi_module_uart_01.c ****                 }
 417:Middlewares/ST/STM32_SPWF0xSy/wifi_module_uart_01.c ****              else if(WiFi_Control_Variables.parsing_wind_56_data == WIFI_TRUE)
 418:Middlewares/ST/STM32_SPWF0xSy/wifi_module_uart_01.c ****                 {
 419:Middlewares/ST/STM32_SPWF0xSy/wifi_module_uart_01.c ****                     memset(process_buffer,0x00,Fillptr);
 420:Middlewares/ST/STM32_SPWF0xSy/wifi_module_uart_01.c ****                     Fillptr = 0;
 421:Middlewares/ST/STM32_SPWF0xSy/wifi_module_uart_01.c ****                     WiFi_Control_Variables.parsing_wind_56_data = WIFI_FALSE;
 422:Middlewares/ST/STM32_SPWF0xSy/wifi_module_uart_01.c ****                 }
 423:Middlewares/ST/STM32_SPWF0xSy/wifi_module_uart_01.c **** 
 424:Middlewares/ST/STM32_SPWF0xSy/wifi_module_uart_01.c ****               //if in data mode, reset on \r\n
 425:Middlewares/ST/STM32_SPWF0xSy/wifi_module_uart_01.c ****               if(!IO_status_flag.sock_read_ongoing && IO_status_flag.data_mode)
 426:Middlewares/ST/STM32_SPWF0xSy/wifi_module_uart_01.c ****                 {
 427:Middlewares/ST/STM32_SPWF0xSy/wifi_module_uart_01.c ****                     Fillptr = 0;
 428:Middlewares/ST/STM32_SPWF0xSy/wifi_module_uart_01.c ****                     memset(process_buffer, 0x00, MAX_BUFFER_GLOBAL);
 429:Middlewares/ST/STM32_SPWF0xSy/wifi_module_uart_01.c ****                 }
 430:Middlewares/ST/STM32_SPWF0xSy/wifi_module_uart_01.c ****            }
 431:Middlewares/ST/STM32_SPWF0xSy/wifi_module_uart_01.c ****       }
 432:Middlewares/ST/STM32_SPWF0xSy/wifi_module_uart_01.c ****     
 433:Middlewares/ST/STM32_SPWF0xSy/wifi_module_uart_01.c ****     /* WIND 56 is of the form: +WIND:56:Insert message to client:<DATA that we send> */
 434:Middlewares/ST/STM32_SPWF0xSy/wifi_module_uart_01.c ****     else if(!WiFi_Control_Variables.parsing_wind_56_data && (strstr((const char *)process_buffer,"\
 435:Middlewares/ST/STM32_SPWF0xSy/wifi_module_uart_01.c ****       {
 436:Middlewares/ST/STM32_SPWF0xSy/wifi_module_uart_01.c ****         /* we've just 2 seconds to send data, 
 437:Middlewares/ST/STM32_SPWF0xSy/wifi_module_uart_01.c ****            directly return if +WIND:56:Insert message to client is not found */
 438:Middlewares/ST/STM32_SPWF0xSy/wifi_module_uart_01.c ****         if((strstr((const char *)process_buffer,"client:")) != NULL)
 439:Middlewares/ST/STM32_SPWF0xSy/wifi_module_uart_01.c ****         {
 440:Middlewares/ST/STM32_SPWF0xSy/wifi_module_uart_01.c ****           #if DEBUG_PRINT
 441:Middlewares/ST/STM32_SPWF0xSy/wifi_module_uart_01.c ****             printf((const char*)process_buffer);
 442:Middlewares/ST/STM32_SPWF0xSy/wifi_module_uart_01.c ****           #endif
 443:Middlewares/ST/STM32_SPWF0xSy/wifi_module_uart_01.c ****           /* Disable TIMx */
 444:Middlewares/ST/STM32_SPWF0xSy/wifi_module_uart_01.c ****           HAL_NVIC_DisableIRQ(TIMx_IRQn);
 445:Middlewares/ST/STM32_SPWF0xSy/wifi_module_uart_01.c ****           ind_wifi_inputssi_callback();
 446:Middlewares/ST/STM32_SPWF0xSy/wifi_module_uart_01.c ****           WiFi_Control_Variables.parsing_wind_56_data = WIFI_TRUE;
 447:Middlewares/ST/STM32_SPWF0xSy/wifi_module_uart_01.c ****           memset(process_buffer,0x00,Fillptr);
 448:Middlewares/ST/STM32_SPWF0xSy/wifi_module_uart_01.c ****           Fillptr=0;
 449:Middlewares/ST/STM32_SPWF0xSy/wifi_module_uart_01.c ****           return;
 450:Middlewares/ST/STM32_SPWF0xSy/wifi_module_uart_01.c ****         }
 451:Middlewares/ST/STM32_SPWF0xSy/wifi_module_uart_01.c ****         else
 452:Middlewares/ST/STM32_SPWF0xSy/wifi_module_uart_01.c ****           return;
 453:Middlewares/ST/STM32_SPWF0xSy/wifi_module_uart_01.c ****       }
 454:Middlewares/ST/STM32_SPWF0xSy/wifi_module_uart_01.c **** 
 455:Middlewares/ST/STM32_SPWF0xSy/wifi_module_uart_01.c ****     else if (WiFi_Control_Variables.Ok_terminated_data_request_pending)   //HTTP Response Check
ARM GAS  D:\cygwin64\tmp\ccuGdUOt.s 			page 11


 456:Middlewares/ST/STM32_SPWF0xSy/wifi_module_uart_01.c ****       {
 457:Middlewares/ST/STM32_SPWF0xSy/wifi_module_uart_01.c ****            if((strstr((const char *)&process_buffer[0],"200 OK\r")) != NULL || (strstr((const char 
 458:Middlewares/ST/STM32_SPWF0xSy/wifi_module_uart_01.c ****                   || (strstr((const char *)&process_buffer[0],"400 Bad Request\r")) != NULL || (str
 459:Middlewares/ST/STM32_SPWF0xSy/wifi_module_uart_01.c ****                   || (strstr((const char *)&process_buffer[0],"401 Unauthorized\r")) != NULL || (st
 460:Middlewares/ST/STM32_SPWF0xSy/wifi_module_uart_01.c ****                   || (strstr((const char *)&process_buffer[0],"404 Not Found\r")) != NULL || (strst
 461:Middlewares/ST/STM32_SPWF0xSy/wifi_module_uart_01.c ****                   || (strstr((const char *)&process_buffer[0],"500 Internal Server Error\r")) != NU
 462:Middlewares/ST/STM32_SPWF0xSy/wifi_module_uart_01.c ****                   || (strstr((const char *)&process_buffer[0],"504 Gateway Timeout\r")) != NULL)
 463:Middlewares/ST/STM32_SPWF0xSy/wifi_module_uart_01.c ****             {
 464:Middlewares/ST/STM32_SPWF0xSy/wifi_module_uart_01.c ****                 WiFi_Control_Variables.enable_receive_http_response = WIFI_TRUE;
 465:Middlewares/ST/STM32_SPWF0xSy/wifi_module_uart_01.c ****                 WiFi_Control_Variables.enable_receive_data_chunk    = WIFI_TRUE;
 466:Middlewares/ST/STM32_SPWF0xSy/wifi_module_uart_01.c ****                 WiFi_Control_Variables.Ok_terminated_data_request_pending = WIFI_FALSE;
 467:Middlewares/ST/STM32_SPWF0xSy/wifi_module_uart_01.c ****                 WiFi_Counter_Variables.last_process_buffer_index = 5;
 468:Middlewares/ST/STM32_SPWF0xSy/wifi_module_uart_01.c ****                 WiFi_Control_Variables.enable_timeout_timer      = WIFI_FALSE; //stop the timeout t
 469:Middlewares/ST/STM32_SPWF0xSy/wifi_module_uart_01.c ****                 WiFi_Counter_Variables.timeout_tick              = 0;
 470:Middlewares/ST/STM32_SPWF0xSy/wifi_module_uart_01.c ****                 return;
 471:Middlewares/ST/STM32_SPWF0xSy/wifi_module_uart_01.c ****             }
 472:Middlewares/ST/STM32_SPWF0xSy/wifi_module_uart_01.c ****       }
 473:Middlewares/ST/STM32_SPWF0xSy/wifi_module_uart_01.c **** 
 474:Middlewares/ST/STM32_SPWF0xSy/wifi_module_uart_01.c ****     else if ((process_buffer[Fillptr-1]==0x09) && (process_buffer[Fillptr-2]==':') && (process_buff
 475:Middlewares/ST/STM32_SPWF0xSy/wifi_module_uart_01.c ****       {
 476:Middlewares/ST/STM32_SPWF0xSy/wifi_module_uart_01.c ****           WiFi_Control_Variables.enable_receive_wifi_scan_response = WIFI_TRUE;
 477:Middlewares/ST/STM32_SPWF0xSy/wifi_module_uart_01.c ****       }
 478:Middlewares/ST/STM32_SPWF0xSy/wifi_module_uart_01.c ****     else if(WiFi_Control_Variables.in_standby_mode)
 479:Middlewares/ST/STM32_SPWF0xSy/wifi_module_uart_01.c ****       {
 480:Middlewares/ST/STM32_SPWF0xSy/wifi_module_uart_01.c ****         /* Eliminate the NULL values received after WIND:67:Going into Standby */
 481:Middlewares/ST/STM32_SPWF0xSy/wifi_module_uart_01.c ****         if(process_buffer[Fillptr-1] == '\0')
 482:Middlewares/ST/STM32_SPWF0xSy/wifi_module_uart_01.c ****            Fillptr = 0;
 483:Middlewares/ST/STM32_SPWF0xSy/wifi_module_uart_01.c ****       }
 484:Middlewares/ST/STM32_SPWF0xSy/wifi_module_uart_01.c ****     else if(Fillptr >= MAX_BUFFER_GLOBAL-1)
 485:Middlewares/ST/STM32_SPWF0xSy/wifi_module_uart_01.c ****       {
 486:Middlewares/ST/STM32_SPWF0xSy/wifi_module_uart_01.c ****         #if DEBUG_PRINT
 487:Middlewares/ST/STM32_SPWF0xSy/wifi_module_uart_01.c ****         printf("\rJust Looping with unhandled data!\r\n");
 488:Middlewares/ST/STM32_SPWF0xSy/wifi_module_uart_01.c ****         #endif          
 489:Middlewares/ST/STM32_SPWF0xSy/wifi_module_uart_01.c ****         Fillptr=0;          
 490:Middlewares/ST/STM32_SPWF0xSy/wifi_module_uart_01.c ****         memset(process_buffer, 0x00, MAX_BUFFER_GLOBAL); 
 491:Middlewares/ST/STM32_SPWF0xSy/wifi_module_uart_01.c ****       }
 492:Middlewares/ST/STM32_SPWF0xSy/wifi_module_uart_01.c ****     
 493:Middlewares/ST/STM32_SPWF0xSy/wifi_module_uart_01.c ****         //Check Process Buffer for any pending message
 494:Middlewares/ST/STM32_SPWF0xSy/wifi_module_uart_01.c ****         if(WiFi_Control_Variables.enable_receive_data_chunk && !WiFi_Control_Variables.enable_sock_
 495:Middlewares/ST/STM32_SPWF0xSy/wifi_module_uart_01.c ****           {
 496:Middlewares/ST/STM32_SPWF0xSy/wifi_module_uart_01.c ****             WiFi_Counter_Variables.pop_queue_length = WiFi_Counter_Variables.pop_buffer_size;
 497:Middlewares/ST/STM32_SPWF0xSy/wifi_module_uart_01.c ****             if(Fillptr + WiFi_Counter_Variables.pop_queue_length > MAX_BUFFER_GLOBAL-1)
 498:Middlewares/ST/STM32_SPWF0xSy/wifi_module_uart_01.c ****             {
 499:Middlewares/ST/STM32_SPWF0xSy/wifi_module_uart_01.c ****                uint32_t length = (Fillptr + WiFi_Counter_Variables.pop_queue_length) - (MAX_BUFFER_
 500:Middlewares/ST/STM32_SPWF0xSy/wifi_module_uart_01.c ****               __disable_irq();
 501:Middlewares/ST/STM32_SPWF0xSy/wifi_module_uart_01.c ****                rewind_buffer_queue(&wifi_instances.big_buff,length);
 502:Middlewares/ST/STM32_SPWF0xSy/wifi_module_uart_01.c ****                __enable_irq();
 503:Middlewares/ST/STM32_SPWF0xSy/wifi_module_uart_01.c ****                memset(ptr+((MAX_BUFFER_GLOBAL-1) - Fillptr), 0x00, length);
 504:Middlewares/ST/STM32_SPWF0xSy/wifi_module_uart_01.c ****                WiFi_Counter_Variables.pop_queue_length = (MAX_BUFFER_GLOBAL-1) - Fillptr;
 505:Middlewares/ST/STM32_SPWF0xSy/wifi_module_uart_01.c ****             }
 506:Middlewares/ST/STM32_SPWF0xSy/wifi_module_uart_01.c ****             memcpy(process_buffer+Fillptr,(char const *)pop_buffer, WiFi_Counter_Variables.pop_queu
 507:Middlewares/ST/STM32_SPWF0xSy/wifi_module_uart_01.c ****             Fillptr = Fillptr + WiFi_Counter_Variables.pop_queue_length;
 508:Middlewares/ST/STM32_SPWF0xSy/wifi_module_uart_01.c ****             
 509:Middlewares/ST/STM32_SPWF0xSy/wifi_module_uart_01.c ****              // do nothing in this case as we do not know what data is coming next.
 510:Middlewares/ST/STM32_SPWF0xSy/wifi_module_uart_01.c ****             if(Fillptr == 1 && process_buffer[0]=='\r')
 511:Middlewares/ST/STM32_SPWF0xSy/wifi_module_uart_01.c ****               return;
 512:Middlewares/ST/STM32_SPWF0xSy/wifi_module_uart_01.c **** 
ARM GAS  D:\cygwin64\tmp\ccuGdUOt.s 			page 12


 513:Middlewares/ST/STM32_SPWF0xSy/wifi_module_uart_01.c ****             if((strstr((const char *)process_buffer,"ERROR: ")) != NULL)
 514:Middlewares/ST/STM32_SPWF0xSy/wifi_module_uart_01.c ****             {
 515:Middlewares/ST/STM32_SPWF0xSy/wifi_module_uart_01.c ****                  WiFi_Control_Variables.Q_Contains_Message = WIFI_FALSE;
 516:Middlewares/ST/STM32_SPWF0xSy/wifi_module_uart_01.c ****                  WiFi_Control_Variables.message_pending = WIFI_FALSE;
 517:Middlewares/ST/STM32_SPWF0xSy/wifi_module_uart_01.c ****             }
 518:Middlewares/ST/STM32_SPWF0xSy/wifi_module_uart_01.c ****             else if(!IO_status_flag.sock_read_ongoing && !WiFi_Control_Variables.enable_receive_htt
 519:Middlewares/ST/STM32_SPWF0xSy/wifi_module_uart_01.c ****             {
 520:Middlewares/ST/STM32_SPWF0xSy/wifi_module_uart_01.c ****                 if(process_buffer[0]!='\0') 
 521:Middlewares/ST/STM32_SPWF0xSy/wifi_module_uart_01.c ****                 {
 522:Middlewares/ST/STM32_SPWF0xSy/wifi_module_uart_01.c ****                   // in case of space " " SockON_Data_Length = 2 as only \r\n, so No Q_contains_mes
 523:Middlewares/ST/STM32_SPWF0xSy/wifi_module_uart_01.c ****                   if(((process_buffer[0]==0xD) && (process_buffer[1]==0xA)) && WiFi_Counter_Variabl
 524:Middlewares/ST/STM32_SPWF0xSy/wifi_module_uart_01.c ****                   {
 525:Middlewares/ST/STM32_SPWF0xSy/wifi_module_uart_01.c ****                     WiFi_Control_Variables.message_pending = WIFI_TRUE;
 526:Middlewares/ST/STM32_SPWF0xSy/wifi_module_uart_01.c ****                     if((pStr = (strstr((const char *)process_buffer+2,"\r\n"))) != NULL) 
 527:Middlewares/ST/STM32_SPWF0xSy/wifi_module_uart_01.c ****                     {
 528:Middlewares/ST/STM32_SPWF0xSy/wifi_module_uart_01.c ****                           // process buffer has complete message
 529:Middlewares/ST/STM32_SPWF0xSy/wifi_module_uart_01.c ****                           int wind_length = ((uint8_t *)pStr - (uint8_t *)process_buffer)+2;
 530:Middlewares/ST/STM32_SPWF0xSy/wifi_module_uart_01.c ****                           if(strstr((const char *)process_buffer+2,"DATALEN:")) 
 531:Middlewares/ST/STM32_SPWF0xSy/wifi_module_uart_01.c ****                           {
 532:Middlewares/ST/STM32_SPWF0xSy/wifi_module_uart_01.c ****                                 pStr = strstr((const char *)process_buffer + wind_length,"\r\nOK\r\
 533:Middlewares/ST/STM32_SPWF0xSy/wifi_module_uart_01.c ****                                 if(pStr!=NULL)
 534:Middlewares/ST/STM32_SPWF0xSy/wifi_module_uart_01.c ****                                 {
 535:Middlewares/ST/STM32_SPWF0xSy/wifi_module_uart_01.c ****                                     wind_length = ((uint8_t *)pStr-(uint8_t *)process_buffer)+6;
 536:Middlewares/ST/STM32_SPWF0xSy/wifi_module_uart_01.c ****                                 }
 537:Middlewares/ST/STM32_SPWF0xSy/wifi_module_uart_01.c ****                           }
 538:Middlewares/ST/STM32_SPWF0xSy/wifi_module_uart_01.c **** 
 539:Middlewares/ST/STM32_SPWF0xSy/wifi_module_uart_01.c ****                           if(Fillptr - wind_length)  //rewind only if extra bytes present in proces
 540:Middlewares/ST/STM32_SPWF0xSy/wifi_module_uart_01.c ****                           {
 541:Middlewares/ST/STM32_SPWF0xSy/wifi_module_uart_01.c ****                                 __disable_irq();
 542:Middlewares/ST/STM32_SPWF0xSy/wifi_module_uart_01.c ****                               rewind_buffer_queue(&wifi_instances.big_buff, Fillptr - wind_length);
 543:Middlewares/ST/STM32_SPWF0xSy/wifi_module_uart_01.c ****                               __enable_irq();
 544:Middlewares/ST/STM32_SPWF0xSy/wifi_module_uart_01.c ****                               memset(process_buffer + wind_length,0x00,Fillptr - wind_length);
 545:Middlewares/ST/STM32_SPWF0xSy/wifi_module_uart_01.c ****                               Fillptr = wind_length;
 546:Middlewares/ST/STM32_SPWF0xSy/wifi_module_uart_01.c ****                           }
 547:Middlewares/ST/STM32_SPWF0xSy/wifi_module_uart_01.c ****                           WiFi_Control_Variables.message_pending = WIFI_FALSE;
 548:Middlewares/ST/STM32_SPWF0xSy/wifi_module_uart_01.c ****                       }
 549:Middlewares/ST/STM32_SPWF0xSy/wifi_module_uart_01.c ****                       WiFi_Control_Variables.Q_Contains_Message = WIFI_TRUE;
 550:Middlewares/ST/STM32_SPWF0xSy/wifi_module_uart_01.c ****                     
 551:Middlewares/ST/STM32_SPWF0xSy/wifi_module_uart_01.c ****                       //if in /r/n.../r/n the data between a pair of /r/n is more than 511
 552:Middlewares/ST/STM32_SPWF0xSy/wifi_module_uart_01.c ****                       if(Fillptr == 511 && WiFi_Control_Variables.message_pending)
 553:Middlewares/ST/STM32_SPWF0xSy/wifi_module_uart_01.c ****                         {
 554:Middlewares/ST/STM32_SPWF0xSy/wifi_module_uart_01.c ****                             WiFi_Control_Variables.message_pending    = WIFI_FALSE;
 555:Middlewares/ST/STM32_SPWF0xSy/wifi_module_uart_01.c ****                             WiFi_Control_Variables.Q_Contains_Message = WIFI_FALSE;
 556:Middlewares/ST/STM32_SPWF0xSy/wifi_module_uart_01.c ****                             WiFi_Counter_Variables.pop_queue_length   = 511;
 557:Middlewares/ST/STM32_SPWF0xSy/wifi_module_uart_01.c ****                         }
 558:Middlewares/ST/STM32_SPWF0xSy/wifi_module_uart_01.c ****                     }
 559:Middlewares/ST/STM32_SPWF0xSy/wifi_module_uart_01.c ****                 }
 560:Middlewares/ST/STM32_SPWF0xSy/wifi_module_uart_01.c ****             }
 561:Middlewares/ST/STM32_SPWF0xSy/wifi_module_uart_01.c ****           }
 562:Middlewares/ST/STM32_SPWF0xSy/wifi_module_uart_01.c **** 
 563:Middlewares/ST/STM32_SPWF0xSy/wifi_module_uart_01.c ****         /******************************************************************************************
 564:Middlewares/ST/STM32_SPWF0xSy/wifi_module_uart_01.c ****          *                                                                                         
 565:Middlewares/ST/STM32_SPWF0xSy/wifi_module_uart_01.c ****          *                          Socket Read Is Enabled.                                       *
 566:Middlewares/ST/STM32_SPWF0xSy/wifi_module_uart_01.c ****          *                                                                                         
 567:Middlewares/ST/STM32_SPWF0xSy/wifi_module_uart_01.c ****          ******************************************************************************************
 568:Middlewares/ST/STM32_SPWF0xSy/wifi_module_uart_01.c ****         
 569:Middlewares/ST/STM32_SPWF0xSy/wifi_module_uart_01.c ****         
ARM GAS  D:\cygwin64\tmp\ccuGdUOt.s 			page 13


 570:Middlewares/ST/STM32_SPWF0xSy/wifi_module_uart_01.c ****         if(!WiFi_Control_Variables.Q_Contains_Message && WiFi_Control_Variables.enable_sock_read)  
 571:Middlewares/ST/STM32_SPWF0xSy/wifi_module_uart_01.c ****         {
 572:Middlewares/ST/STM32_SPWF0xSy/wifi_module_uart_01.c ****             IO_status_flag.sock_read_ongoing = WIFI_TRUE;
 573:Middlewares/ST/STM32_SPWF0xSy/wifi_module_uart_01.c ****             WiFi_Counter_Variables.sock_total_count = WiFi_Counter_Variables.sock_total_count + WiF
 574:Middlewares/ST/STM32_SPWF0xSy/wifi_module_uart_01.c ****             
 575:Middlewares/ST/STM32_SPWF0xSy/wifi_module_uart_01.c ****             /* Check for "ERROR: Not enough data in buffer " */
 576:Middlewares/ST/STM32_SPWF0xSy/wifi_module_uart_01.c ****             pStr = (char *) strstr((const char *)&process_buffer + WiFi_Counter_Variables.last_proc
 577:Middlewares/ST/STM32_SPWF0xSy/wifi_module_uart_01.c ****             if (pStr != NULL)
 578:Middlewares/ST/STM32_SPWF0xSy/wifi_module_uart_01.c ****               {
 579:Middlewares/ST/STM32_SPWF0xSy/wifi_module_uart_01.c ****                   if((process_buffer[Fillptr-2]==0xD) && (process_buffer[Fillptr-1]==0xA)) //check 
 580:Middlewares/ST/STM32_SPWF0xSy/wifi_module_uart_01.c ****                     {
 581:Middlewares/ST/STM32_SPWF0xSy/wifi_module_uart_01.c ****                       if((pStr = (char *)strstr((const char *)&process_buffer,"\r\nERROR: Too many 
 582:Middlewares/ST/STM32_SPWF0xSy/wifi_module_uart_01.c ****                         {
 583:Middlewares/ST/STM32_SPWF0xSy/wifi_module_uart_01.c ****                            #if DEBUG_PRINT
 584:Middlewares/ST/STM32_SPWF0xSy/wifi_module_uart_01.c ****                              printf("\r\nERROR: TOO MANY SOCKETS \r\n");
 585:Middlewares/ST/STM32_SPWF0xSy/wifi_module_uart_01.c ****                            #endif
 586:Middlewares/ST/STM32_SPWF0xSy/wifi_module_uart_01.c **** 
 587:Middlewares/ST/STM32_SPWF0xSy/wifi_module_uart_01.c ****                             if(*(pStr+27)!='\0')
 588:Middlewares/ST/STM32_SPWF0xSy/wifi_module_uart_01.c ****                               {
 589:Middlewares/ST/STM32_SPWF0xSy/wifi_module_uart_01.c ****                                   int len = (uint8_t *)pStr - (uint8_t *)process_buffer;
 590:Middlewares/ST/STM32_SPWF0xSy/wifi_module_uart_01.c ****                                   int extra_bytes = Fillptr - (len+27);
 591:Middlewares/ST/STM32_SPWF0xSy/wifi_module_uart_01.c ****                                   __disable_irq();
 592:Middlewares/ST/STM32_SPWF0xSy/wifi_module_uart_01.c ****                                   rewind_buffer_queue(&wifi_instances.big_buff, extra_bytes);
 593:Middlewares/ST/STM32_SPWF0xSy/wifi_module_uart_01.c ****                                   __enable_irq();
 594:Middlewares/ST/STM32_SPWF0xSy/wifi_module_uart_01.c ****                               }
 595:Middlewares/ST/STM32_SPWF0xSy/wifi_module_uart_01.c ****                             IO_status_flag.AT_Response_Received = WIFI_TRUE;
 596:Middlewares/ST/STM32_SPWF0xSy/wifi_module_uart_01.c ****                             WiFi_Counter_Variables.AT_RESPONSE = WiFi_AT_CMD_RESP_ERROR;
 597:Middlewares/ST/STM32_SPWF0xSy/wifi_module_uart_01.c ****                         }
 598:Middlewares/ST/STM32_SPWF0xSy/wifi_module_uart_01.c ****                       else if((pStr = (char *)strstr((const char *)&process_buffer,"\r\nERROR: Pend
 599:Middlewares/ST/STM32_SPWF0xSy/wifi_module_uart_01.c ****                         {
 600:Middlewares/ST/STM32_SPWF0xSy/wifi_module_uart_01.c ****                            #if DEBUG_PRINT
 601:Middlewares/ST/STM32_SPWF0xSy/wifi_module_uart_01.c ****                              printf("\r\nERROR: PENDING DATA \r\n");
 602:Middlewares/ST/STM32_SPWF0xSy/wifi_module_uart_01.c ****                            #endif
 603:Middlewares/ST/STM32_SPWF0xSy/wifi_module_uart_01.c **** 
 604:Middlewares/ST/STM32_SPWF0xSy/wifi_module_uart_01.c ****                             if(*(pStr+23)!='\0')
 605:Middlewares/ST/STM32_SPWF0xSy/wifi_module_uart_01.c ****                               {
 606:Middlewares/ST/STM32_SPWF0xSy/wifi_module_uart_01.c ****                                   int len = (uint8_t *)pStr - (uint8_t *)process_buffer;
 607:Middlewares/ST/STM32_SPWF0xSy/wifi_module_uart_01.c ****                                   int extra_bytes = Fillptr - (len+23);
 608:Middlewares/ST/STM32_SPWF0xSy/wifi_module_uart_01.c ****                                   __disable_irq();
 609:Middlewares/ST/STM32_SPWF0xSy/wifi_module_uart_01.c ****                                   rewind_buffer_queue(&wifi_instances.big_buff, extra_bytes);
 610:Middlewares/ST/STM32_SPWF0xSy/wifi_module_uart_01.c ****                                   __enable_irq();
 611:Middlewares/ST/STM32_SPWF0xSy/wifi_module_uart_01.c ****                               }
 612:Middlewares/ST/STM32_SPWF0xSy/wifi_module_uart_01.c ****                             WiFi_Counter_Variables.socket_close_pending[WiFi_Counter_Variables.remo
 613:Middlewares/ST/STM32_SPWF0xSy/wifi_module_uart_01.c ****                         }
 614:Middlewares/ST/STM32_SPWF0xSy/wifi_module_uart_01.c ****                       
 615:Middlewares/ST/STM32_SPWF0xSy/wifi_module_uart_01.c ****                       else if((pStr = (char *)strstr((const char *)&process_buffer,"\r\nERROR: Sock
 616:Middlewares/ST/STM32_SPWF0xSy/wifi_module_uart_01.c ****                         {
 617:Middlewares/ST/STM32_SPWF0xSy/wifi_module_uart_01.c ****                             #if DEBUG_PRINT
 618:Middlewares/ST/STM32_SPWF0xSy/wifi_module_uart_01.c ****                              printf("\r\nERROR: Socket error\r\n");
 619:Middlewares/ST/STM32_SPWF0xSy/wifi_module_uart_01.c ****                             #endif
 620:Middlewares/ST/STM32_SPWF0xSy/wifi_module_uart_01.c **** 
 621:Middlewares/ST/STM32_SPWF0xSy/wifi_module_uart_01.c ****                            if(*(pStr+23)!='\0')
 622:Middlewares/ST/STM32_SPWF0xSy/wifi_module_uart_01.c ****                             {
 623:Middlewares/ST/STM32_SPWF0xSy/wifi_module_uart_01.c ****                                 int len = (uint8_t *)pStr - (uint8_t *)process_buffer;
 624:Middlewares/ST/STM32_SPWF0xSy/wifi_module_uart_01.c ****                                 int extra_bytes = Fillptr - (len+23);
 625:Middlewares/ST/STM32_SPWF0xSy/wifi_module_uart_01.c ****                                 __disable_irq();
 626:Middlewares/ST/STM32_SPWF0xSy/wifi_module_uart_01.c ****                                 rewind_buffer_queue(&wifi_instances.big_buff, extra_bytes);
ARM GAS  D:\cygwin64\tmp\ccuGdUOt.s 			page 14


 627:Middlewares/ST/STM32_SPWF0xSy/wifi_module_uart_01.c ****                                 __enable_irq();
 628:Middlewares/ST/STM32_SPWF0xSy/wifi_module_uart_01.c ****                             }
 629:Middlewares/ST/STM32_SPWF0xSy/wifi_module_uart_01.c ****                         }
 630:Middlewares/ST/STM32_SPWF0xSy/wifi_module_uart_01.c **** 
 631:Middlewares/ST/STM32_SPWF0xSy/wifi_module_uart_01.c ****                       #if DEBUG_PRINT
 632:Middlewares/ST/STM32_SPWF0xSy/wifi_module_uart_01.c ****                         printf("\rERROR DURING SOCK READ\r\n");
 633:Middlewares/ST/STM32_SPWF0xSy/wifi_module_uart_01.c ****                       #endif
 634:Middlewares/ST/STM32_SPWF0xSy/wifi_module_uart_01.c ****                       WiFi_Counter_Variables.sock_total_count = 0;
 635:Middlewares/ST/STM32_SPWF0xSy/wifi_module_uart_01.c ****                       WiFi_Counter_Variables.Socket_Data_Length = 0;
 636:Middlewares/ST/STM32_SPWF0xSy/wifi_module_uart_01.c ****                       WiFi_Counter_Variables.SockON_Data_Length = 0;
 637:Middlewares/ST/STM32_SPWF0xSy/wifi_module_uart_01.c ****                       WiFi_Counter_Variables.last_process_buffer_index = 5;
 638:Middlewares/ST/STM32_SPWF0xSy/wifi_module_uart_01.c ****                       WiFi_Control_Variables.enable_sock_read = WIFI_FALSE;
 639:Middlewares/ST/STM32_SPWF0xSy/wifi_module_uart_01.c ****                       WiFi_Control_Variables.stop_event_dequeue = WIFI_FALSE;
 640:Middlewares/ST/STM32_SPWF0xSy/wifi_module_uart_01.c ****                       WiFi_Control_Variables.enable_receive_data_chunk = WIFI_FALSE;
 641:Middlewares/ST/STM32_SPWF0xSy/wifi_module_uart_01.c ****                       IO_status_flag.WIND64_count=0;
 642:Middlewares/ST/STM32_SPWF0xSy/wifi_module_uart_01.c ****                       IO_status_flag.sock_read_ongoing = WIFI_FALSE;
 643:Middlewares/ST/STM32_SPWF0xSy/wifi_module_uart_01.c ****                       if(WiFi_Control_Variables.data_pending_sockD)
 644:Middlewares/ST/STM32_SPWF0xSy/wifi_module_uart_01.c ****                         {
 645:Middlewares/ST/STM32_SPWF0xSy/wifi_module_uart_01.c ****                           WiFi_Control_Variables.data_pending_sockD = WIFI_FALSE;
 646:Middlewares/ST/STM32_SPWF0xSy/wifi_module_uart_01.c ****                           WiFi_Counter_Variables.number_of_bytes=0;
 647:Middlewares/ST/STM32_SPWF0xSy/wifi_module_uart_01.c ****                           WiFi_Control_Variables.switch_by_default_to_command_mode=WIFI_TRUE;
 648:Middlewares/ST/STM32_SPWF0xSy/wifi_module_uart_01.c ****                           WiFi_switch_to_command_mode(); //switch by default
 649:Middlewares/ST/STM32_SPWF0xSy/wifi_module_uart_01.c ****                         }
 650:Middlewares/ST/STM32_SPWF0xSy/wifi_module_uart_01.c **** 
 651:Middlewares/ST/STM32_SPWF0xSy/wifi_module_uart_01.c ****                       memset(process_buffer, 0x00, Fillptr);
 652:Middlewares/ST/STM32_SPWF0xSy/wifi_module_uart_01.c ****                       Fillptr=0;
 653:Middlewares/ST/STM32_SPWF0xSy/wifi_module_uart_01.c ****                       return;
 654:Middlewares/ST/STM32_SPWF0xSy/wifi_module_uart_01.c ****                    }
 655:Middlewares/ST/STM32_SPWF0xSy/wifi_module_uart_01.c ****               }
 656:Middlewares/ST/STM32_SPWF0xSy/wifi_module_uart_01.c ****             
 657:Middlewares/ST/STM32_SPWF0xSy/wifi_module_uart_01.c ****             //In case of "ERROR" we wait till \r\n is received, till that do not update last_proces
 658:Middlewares/ST/STM32_SPWF0xSy/wifi_module_uart_01.c ****             if(Fillptr > 5 && pStr == NULL) 
 659:Middlewares/ST/STM32_SPWF0xSy/wifi_module_uart_01.c ****               WiFi_Counter_Variables.last_process_buffer_index = Fillptr;
 660:Middlewares/ST/STM32_SPWF0xSy/wifi_module_uart_01.c **** 
 661:Middlewares/ST/STM32_SPWF0xSy/wifi_module_uart_01.c ****             /*now check if end of msg received*/
 662:Middlewares/ST/STM32_SPWF0xSy/wifi_module_uart_01.c ****             if(WiFi_Counter_Variables.sock_total_count >= WiFi_Counter_Variables.SockON_Data_Length
 663:Middlewares/ST/STM32_SPWF0xSy/wifi_module_uart_01.c ****               {
 664:Middlewares/ST/STM32_SPWF0xSy/wifi_module_uart_01.c ****                 #if DEBUG_PRINT
 665:Middlewares/ST/STM32_SPWF0xSy/wifi_module_uart_01.c ****                  printf("\nReached SockON_Data_Length \r\n");
 666:Middlewares/ST/STM32_SPWF0xSy/wifi_module_uart_01.c ****                 #endif
 667:Middlewares/ST/STM32_SPWF0xSy/wifi_module_uart_01.c **** 
 668:Middlewares/ST/STM32_SPWF0xSy/wifi_module_uart_01.c ****                  //rewind the buffer, if some extra bytes along with required data
 669:Middlewares/ST/STM32_SPWF0xSy/wifi_module_uart_01.c ****                 if(WiFi_Counter_Variables.sock_total_count > WiFi_Counter_Variables.SockON_Data_Len
 670:Middlewares/ST/STM32_SPWF0xSy/wifi_module_uart_01.c ****                   {
 671:Middlewares/ST/STM32_SPWF0xSy/wifi_module_uart_01.c ****                     int databytes = WiFi_Counter_Variables.sock_total_count - WiFi_Counter_Variable
 672:Middlewares/ST/STM32_SPWF0xSy/wifi_module_uart_01.c ****                     
 673:Middlewares/ST/STM32_SPWF0xSy/wifi_module_uart_01.c ****                     __disable_irq();
 674:Middlewares/ST/STM32_SPWF0xSy/wifi_module_uart_01.c ****                     rewind_buffer_queue(&wifi_instances.big_buff, databytes);
 675:Middlewares/ST/STM32_SPWF0xSy/wifi_module_uart_01.c ****                     __enable_irq();
 676:Middlewares/ST/STM32_SPWF0xSy/wifi_module_uart_01.c **** 
 677:Middlewares/ST/STM32_SPWF0xSy/wifi_module_uart_01.c ****                     memset(process_buffer+(Fillptr - databytes), 0x00, databytes);
 678:Middlewares/ST/STM32_SPWF0xSy/wifi_module_uart_01.c ****                     Fillptr = Fillptr - databytes;
 679:Middlewares/ST/STM32_SPWF0xSy/wifi_module_uart_01.c ****                   }
 680:Middlewares/ST/STM32_SPWF0xSy/wifi_module_uart_01.c ****                 WiFi_Counter_Variables.chunk_size = Fillptr;
 681:Middlewares/ST/STM32_SPWF0xSy/wifi_module_uart_01.c ****                 WiFi_Counter_Variables.message_size = WiFi_Counter_Variables.SockON_Data_Length;
 682:Middlewares/ST/STM32_SPWF0xSy/wifi_module_uart_01.c ****                 memcpy(UserDataBuff, process_buffer, Fillptr);
 683:Middlewares/ST/STM32_SPWF0xSy/wifi_module_uart_01.c ****                 Fillptr = 0;
ARM GAS  D:\cygwin64\tmp\ccuGdUOt.s 			page 15


 684:Middlewares/ST/STM32_SPWF0xSy/wifi_module_uart_01.c ****                 WiFi_Counter_Variables.sock_total_count = 0;
 685:Middlewares/ST/STM32_SPWF0xSy/wifi_module_uart_01.c ****                 WiFi_Counter_Variables.Socket_Data_Length = 0;
 686:Middlewares/ST/STM32_SPWF0xSy/wifi_module_uart_01.c ****                 WiFi_Counter_Variables.SockON_Data_Length = 0;
 687:Middlewares/ST/STM32_SPWF0xSy/wifi_module_uart_01.c ****                 WiFi_Counter_Variables.pop_queue_length = 0;
 688:Middlewares/ST/STM32_SPWF0xSy/wifi_module_uart_01.c ****                 WiFi_Counter_Variables.last_process_buffer_index = 5;
 689:Middlewares/ST/STM32_SPWF0xSy/wifi_module_uart_01.c ****                 WiFi_Control_Variables.Q_Contains_Message = WIFI_FALSE;
 690:Middlewares/ST/STM32_SPWF0xSy/wifi_module_uart_01.c ****                 WiFi_Control_Variables.enable_receive_data_chunk = WIFI_FALSE;
 691:Middlewares/ST/STM32_SPWF0xSy/wifi_module_uart_01.c ****                 WiFi_Counter_Variables.sockdon_id_user = -1;
 692:Middlewares/ST/STM32_SPWF0xSy/wifi_module_uart_01.c **** 
 693:Middlewares/ST/STM32_SPWF0xSy/wifi_module_uart_01.c ****                 if(WiFi_Control_Variables.data_pending_sockD)
 694:Middlewares/ST/STM32_SPWF0xSy/wifi_module_uart_01.c ****                   {
 695:Middlewares/ST/STM32_SPWF0xSy/wifi_module_uart_01.c ****                     WiFi_Counter_Variables.number_of_bytes=0;
 696:Middlewares/ST/STM32_SPWF0xSy/wifi_module_uart_01.c ****                     WiFi_Counter_Variables.sockon_id_user = 0;
 697:Middlewares/ST/STM32_SPWF0xSy/wifi_module_uart_01.c ****                     if(IO_status_flag.WIND64_count>0)
 698:Middlewares/ST/STM32_SPWF0xSy/wifi_module_uart_01.c ****                         IO_status_flag.WIND64_count--;                         //decrease the numbe
 699:Middlewares/ST/STM32_SPWF0xSy/wifi_module_uart_01.c ****                     if(IO_status_flag.WIND64_count==0) 
 700:Middlewares/ST/STM32_SPWF0xSy/wifi_module_uart_01.c ****                       {
 701:Middlewares/ST/STM32_SPWF0xSy/wifi_module_uart_01.c ****                         WiFi_Control_Variables.switch_by_default_to_command_mode=WIFI_TRUE;
 702:Middlewares/ST/STM32_SPWF0xSy/wifi_module_uart_01.c ****                         WiFi_switch_to_command_mode();              //switch by default
 703:Middlewares/ST/STM32_SPWF0xSy/wifi_module_uart_01.c ****                       }
 704:Middlewares/ST/STM32_SPWF0xSy/wifi_module_uart_01.c ****                     WiFi_Control_Variables.enable_query = WIFI_FALSE;
 705:Middlewares/ST/STM32_SPWF0xSy/wifi_module_uart_01.c ****                   }
 706:Middlewares/ST/STM32_SPWF0xSy/wifi_module_uart_01.c ****                 else
 707:Middlewares/ST/STM32_SPWF0xSy/wifi_module_uart_01.c ****                   {
 708:Middlewares/ST/STM32_SPWF0xSy/wifi_module_uart_01.c ****                     //do we have more data?
 709:Middlewares/ST/STM32_SPWF0xSy/wifi_module_uart_01.c ****                     WiFi_Control_Variables.enable_query = WIFI_TRUE;
 710:Middlewares/ST/STM32_SPWF0xSy/wifi_module_uart_01.c ****                     WiFi_Counter_Variables.sockon_id_user = WiFi_Counter_Variables.sockon_query_id;
 711:Middlewares/ST/STM32_SPWF0xSy/wifi_module_uart_01.c ****                     /*@TODO: Do not need to prevent OK push in case of server socket*/
 712:Middlewares/ST/STM32_SPWF0xSy/wifi_module_uart_01.c ****                     IO_status_flag.prevent_push_OK_event = WIFI_TRUE; //prevent the qeueuing of the
 713:Middlewares/ST/STM32_SPWF0xSy/wifi_module_uart_01.c ****                   }
 714:Middlewares/ST/STM32_SPWF0xSy/wifi_module_uart_01.c **** 
 715:Middlewares/ST/STM32_SPWF0xSy/wifi_module_uart_01.c ****                 WiFi_Control_Variables.enable_sock_read = WIFI_FALSE;
 716:Middlewares/ST/STM32_SPWF0xSy/wifi_module_uart_01.c ****                 IO_status_flag.sock_read_ongoing = WIFI_FALSE;
 717:Middlewares/ST/STM32_SPWF0xSy/wifi_module_uart_01.c ****                 Stop_Dequeue();                           //Stop dequeue till user callback returns
 718:Middlewares/ST/STM32_SPWF0xSy/wifi_module_uart_01.c **** 
 719:Middlewares/ST/STM32_SPWF0xSy/wifi_module_uart_01.c ****                 if(WiFi_Control_Variables.data_pending_sockD)
 720:Middlewares/ST/STM32_SPWF0xSy/wifi_module_uart_01.c ****                   {
 721:Middlewares/ST/STM32_SPWF0xSy/wifi_module_uart_01.c ****                     WiFi_Control_Variables.Pending_SockD_Callback = WIFI_TRUE;
 722:Middlewares/ST/STM32_SPWF0xSy/wifi_module_uart_01.c ****                     WiFi_Control_Variables.stop_event_dequeue = WIFI_FALSE;
 723:Middlewares/ST/STM32_SPWF0xSy/wifi_module_uart_01.c ****                     WiFi_Control_Variables.data_pending_sockD = WIFI_FALSE;
 724:Middlewares/ST/STM32_SPWF0xSy/wifi_module_uart_01.c ****                   }
 725:Middlewares/ST/STM32_SPWF0xSy/wifi_module_uart_01.c ****                 else
 726:Middlewares/ST/STM32_SPWF0xSy/wifi_module_uart_01.c ****                   {
 727:Middlewares/ST/STM32_SPWF0xSy/wifi_module_uart_01.c ****                     WiFi_Control_Variables.Pending_SockON_Callback = WIFI_TRUE;   //set this to cal
 728:Middlewares/ST/STM32_SPWF0xSy/wifi_module_uart_01.c ****                   }
 729:Middlewares/ST/STM32_SPWF0xSy/wifi_module_uart_01.c ****                 memset(process_buffer, 0x00, MAX_BUFFER_GLOBAL);
 730:Middlewares/ST/STM32_SPWF0xSy/wifi_module_uart_01.c ****                 return;
 731:Middlewares/ST/STM32_SPWF0xSy/wifi_module_uart_01.c ****               }
 732:Middlewares/ST/STM32_SPWF0xSy/wifi_module_uart_01.c **** 
 733:Middlewares/ST/STM32_SPWF0xSy/wifi_module_uart_01.c ****             //if Process_buffer is completely filled, callback to user with User Buffer pointer
 734:Middlewares/ST/STM32_SPWF0xSy/wifi_module_uart_01.c ****             if(Fillptr >= MAX_BUFFER_GLOBAL-1)
 735:Middlewares/ST/STM32_SPWF0xSy/wifi_module_uart_01.c ****               {
 736:Middlewares/ST/STM32_SPWF0xSy/wifi_module_uart_01.c ****                 WiFi_Counter_Variables.last_process_buffer_index = 5;
 737:Middlewares/ST/STM32_SPWF0xSy/wifi_module_uart_01.c ****                 WiFi_Counter_Variables.message_size = WiFi_Counter_Variables.SockON_Data_Length;
 738:Middlewares/ST/STM32_SPWF0xSy/wifi_module_uart_01.c ****                 WiFi_Counter_Variables.chunk_size = MAX_BUFFER_GLOBAL-1;
 739:Middlewares/ST/STM32_SPWF0xSy/wifi_module_uart_01.c ****                 memcpy(UserDataBuff, process_buffer, Fillptr);
 740:Middlewares/ST/STM32_SPWF0xSy/wifi_module_uart_01.c ****                 Fillptr = 0;
ARM GAS  D:\cygwin64\tmp\ccuGdUOt.s 			page 16


 741:Middlewares/ST/STM32_SPWF0xSy/wifi_module_uart_01.c ****                 WiFi_Counter_Variables.last_process_buffer_index = 5;
 742:Middlewares/ST/STM32_SPWF0xSy/wifi_module_uart_01.c ****                 WiFi_Counter_Variables.sockdon_id_user = -1;
 743:Middlewares/ST/STM32_SPWF0xSy/wifi_module_uart_01.c ****                 Stop_Dequeue();
 744:Middlewares/ST/STM32_SPWF0xSy/wifi_module_uart_01.c ****                 memset(process_buffer, 0x00, MAX_BUFFER_GLOBAL);
 745:Middlewares/ST/STM32_SPWF0xSy/wifi_module_uart_01.c ****                 if(WiFi_Control_Variables.data_pending_sockD)
 746:Middlewares/ST/STM32_SPWF0xSy/wifi_module_uart_01.c ****                   {
 747:Middlewares/ST/STM32_SPWF0xSy/wifi_module_uart_01.c ****                     WiFi_Counter_Variables.sockon_id_user = 0;
 748:Middlewares/ST/STM32_SPWF0xSy/wifi_module_uart_01.c ****                     WiFi_Control_Variables.Pending_SockD_Callback = WIFI_TRUE; //callback to user w
 749:Middlewares/ST/STM32_SPWF0xSy/wifi_module_uart_01.c ****                   }
 750:Middlewares/ST/STM32_SPWF0xSy/wifi_module_uart_01.c ****                 else
 751:Middlewares/ST/STM32_SPWF0xSy/wifi_module_uart_01.c ****                   {
 752:Middlewares/ST/STM32_SPWF0xSy/wifi_module_uart_01.c ****                     WiFi_Counter_Variables.sockon_id_user = WiFi_Counter_Variables.sockon_query_id;
 753:Middlewares/ST/STM32_SPWF0xSy/wifi_module_uart_01.c ****                     WiFi_Control_Variables.Pending_SockON_Callback = WIFI_TRUE; //set this to callb
 754:Middlewares/ST/STM32_SPWF0xSy/wifi_module_uart_01.c ****                   }
 755:Middlewares/ST/STM32_SPWF0xSy/wifi_module_uart_01.c ****               }
 756:Middlewares/ST/STM32_SPWF0xSy/wifi_module_uart_01.c ****             return;
 757:Middlewares/ST/STM32_SPWF0xSy/wifi_module_uart_01.c ****         }
 758:Middlewares/ST/STM32_SPWF0xSy/wifi_module_uart_01.c **** 
 759:Middlewares/ST/STM32_SPWF0xSy/wifi_module_uart_01.c ****          /*****************************************************************************************
 760:Middlewares/ST/STM32_SPWF0xSy/wifi_module_uart_01.c ****          *                                                                                         
 761:Middlewares/ST/STM32_SPWF0xSy/wifi_module_uart_01.c ****          *                          HTTP Response Is Enabled.                                     *
 762:Middlewares/ST/STM32_SPWF0xSy/wifi_module_uart_01.c ****          *                                                                                         
 763:Middlewares/ST/STM32_SPWF0xSy/wifi_module_uart_01.c ****          ******************************************************************************************
 764:Middlewares/ST/STM32_SPWF0xSy/wifi_module_uart_01.c **** 
 765:Middlewares/ST/STM32_SPWF0xSy/wifi_module_uart_01.c ****         if (WiFi_Control_Variables.enable_receive_http_response) // http response enabled
 766:Middlewares/ST/STM32_SPWF0xSy/wifi_module_uart_01.c ****         {
 767:Middlewares/ST/STM32_SPWF0xSy/wifi_module_uart_01.c ****             IO_status_flag.sock_read_ongoing = WIFI_TRUE;
 768:Middlewares/ST/STM32_SPWF0xSy/wifi_module_uart_01.c ****             if((pStr = (strstr((const char *)process_buffer + WiFi_Counter_Variables.last_process_b
 769:Middlewares/ST/STM32_SPWF0xSy/wifi_module_uart_01.c ****               {
 770:Middlewares/ST/STM32_SPWF0xSy/wifi_module_uart_01.c ****                   #if DEBUG_PRINT
 771:Middlewares/ST/STM32_SPWF0xSy/wifi_module_uart_01.c ****                     printf("\r\nOK\r\n");         //http response completed
 772:Middlewares/ST/STM32_SPWF0xSy/wifi_module_uart_01.c ****                   #endif
 773:Middlewares/ST/STM32_SPWF0xSy/wifi_module_uart_01.c **** 
 774:Middlewares/ST/STM32_SPWF0xSy/wifi_module_uart_01.c ****                   if(*(pStr+7) != '\0') //extra data apart from the required HTTP Response
 775:Middlewares/ST/STM32_SPWF0xSy/wifi_module_uart_01.c ****                     {
 776:Middlewares/ST/STM32_SPWF0xSy/wifi_module_uart_01.c ****                         int len = (uint8_t *)pStr - (uint8_t *)process_buffer;
 777:Middlewares/ST/STM32_SPWF0xSy/wifi_module_uart_01.c ****                         int extra_bytes = Fillptr - (len+6);
 778:Middlewares/ST/STM32_SPWF0xSy/wifi_module_uart_01.c ****                         __disable_irq();
 779:Middlewares/ST/STM32_SPWF0xSy/wifi_module_uart_01.c ****                         rewind_buffer_queue(&wifi_instances.big_buff, extra_bytes);
 780:Middlewares/ST/STM32_SPWF0xSy/wifi_module_uart_01.c ****                         __enable_irq();
 781:Middlewares/ST/STM32_SPWF0xSy/wifi_module_uart_01.c ****                         
 782:Middlewares/ST/STM32_SPWF0xSy/wifi_module_uart_01.c ****                         memset(process_buffer+len+7, 0x00, extra_bytes);
 783:Middlewares/ST/STM32_SPWF0xSy/wifi_module_uart_01.c ****                         Fillptr = Fillptr - extra_bytes;
 784:Middlewares/ST/STM32_SPWF0xSy/wifi_module_uart_01.c ****                     }
 785:Middlewares/ST/STM32_SPWF0xSy/wifi_module_uart_01.c ****                   
 786:Middlewares/ST/STM32_SPWF0xSy/wifi_module_uart_01.c ****                   WiFi_Counter_Variables.chunk_size = Fillptr;
 787:Middlewares/ST/STM32_SPWF0xSy/wifi_module_uart_01.c ****                   memcpy(UserDataBuff, process_buffer, Fillptr);
 788:Middlewares/ST/STM32_SPWF0xSy/wifi_module_uart_01.c ****                   WiFi_Counter_Variables.UserDataBuff_index = Fillptr;
 789:Middlewares/ST/STM32_SPWF0xSy/wifi_module_uart_01.c ****                   IO_status_flag.AT_Response_Received = WIFI_TRUE;
 790:Middlewares/ST/STM32_SPWF0xSy/wifi_module_uart_01.c ****                   WiFi_Control_Variables.enable_receive_data_chunk = WIFI_FALSE;
 791:Middlewares/ST/STM32_SPWF0xSy/wifi_module_uart_01.c ****                   WiFi_Control_Variables.enable_receive_http_response = WIFI_FALSE;
 792:Middlewares/ST/STM32_SPWF0xSy/wifi_module_uart_01.c ****                   Stop_Dequeue();
 793:Middlewares/ST/STM32_SPWF0xSy/wifi_module_uart_01.c ****                   WiFi_Counter_Variables.AT_RESPONSE = WiFi_MODULE_SUCCESS;
 794:Middlewares/ST/STM32_SPWF0xSy/wifi_module_uart_01.c ****                   IO_status_flag.sock_read_ongoing = WIFI_FALSE;
 795:Middlewares/ST/STM32_SPWF0xSy/wifi_module_uart_01.c ****                   WiFi_Control_Variables.Q_Contains_Message = WIFI_FALSE;
 796:Middlewares/ST/STM32_SPWF0xSy/wifi_module_uart_01.c ****                   WiFi_Control_Variables.stop_event_dequeue = WIFI_FALSE;
 797:Middlewares/ST/STM32_SPWF0xSy/wifi_module_uart_01.c ****                   WiFi_Counter_Variables.last_process_buffer_index = 5;
ARM GAS  D:\cygwin64\tmp\ccuGdUOt.s 			page 17


 798:Middlewares/ST/STM32_SPWF0xSy/wifi_module_uart_01.c ****                   memset(process_buffer, 0x00, Fillptr);
 799:Middlewares/ST/STM32_SPWF0xSy/wifi_module_uart_01.c ****                   Fillptr=0;
 800:Middlewares/ST/STM32_SPWF0xSy/wifi_module_uart_01.c **** 
 801:Middlewares/ST/STM32_SPWF0xSy/wifi_module_uart_01.c ****                   if(WiFi_Control_Variables.enable_receive_file_response)
 802:Middlewares/ST/STM32_SPWF0xSy/wifi_module_uart_01.c ****                     WiFi_Control_Variables.FILE_Data_available = WIFI_TRUE;
 803:Middlewares/ST/STM32_SPWF0xSy/wifi_module_uart_01.c ****                   else
 804:Middlewares/ST/STM32_SPWF0xSy/wifi_module_uart_01.c ****                     WiFi_Control_Variables.HTTP_Data_available=WIFI_TRUE;
 805:Middlewares/ST/STM32_SPWF0xSy/wifi_module_uart_01.c ****               }
 806:Middlewares/ST/STM32_SPWF0xSy/wifi_module_uart_01.c **** 
 807:Middlewares/ST/STM32_SPWF0xSy/wifi_module_uart_01.c ****             else if(( pStr = (strstr((const char *)process_buffer + WiFi_Counter_Variables.last_pro
 808:Middlewares/ST/STM32_SPWF0xSy/wifi_module_uart_01.c ****               {
 809:Middlewares/ST/STM32_SPWF0xSy/wifi_module_uart_01.c ****                   /* wait for complete error message */
 810:Middlewares/ST/STM32_SPWF0xSy/wifi_module_uart_01.c ****                    WiFi_Control_Variables.enable_receive_data_chunk = WIFI_FALSE;
 811:Middlewares/ST/STM32_SPWF0xSy/wifi_module_uart_01.c ****                   if((process_buffer[Fillptr-2]==0xD) && (process_buffer[Fillptr-1]==0xA))
 812:Middlewares/ST/STM32_SPWF0xSy/wifi_module_uart_01.c ****                   {
 813:Middlewares/ST/STM32_SPWF0xSy/wifi_module_uart_01.c ****                       #if DEBUG_PRINT
 814:Middlewares/ST/STM32_SPWF0xSy/wifi_module_uart_01.c ****                       printf("\r\nERROR\r\n");
 815:Middlewares/ST/STM32_SPWF0xSy/wifi_module_uart_01.c ****                       #endif
 816:Middlewares/ST/STM32_SPWF0xSy/wifi_module_uart_01.c ****                       IO_status_flag.AT_Response_Received = WIFI_TRUE;
 817:Middlewares/ST/STM32_SPWF0xSy/wifi_module_uart_01.c ****                       WiFi_Counter_Variables.AT_RESPONSE = WiFi_AT_CMD_RESP_ERROR;
 818:Middlewares/ST/STM32_SPWF0xSy/wifi_module_uart_01.c ****                       IO_status_flag.sock_read_ongoing = WIFI_FALSE;
 819:Middlewares/ST/STM32_SPWF0xSy/wifi_module_uart_01.c ****                       WiFi_Control_Variables.enable_receive_data_chunk = WIFI_FALSE;
 820:Middlewares/ST/STM32_SPWF0xSy/wifi_module_uart_01.c ****                       WiFi_Control_Variables.Q_Contains_Message = WIFI_FALSE;
 821:Middlewares/ST/STM32_SPWF0xSy/wifi_module_uart_01.c ****                       Fillptr=0;
 822:Middlewares/ST/STM32_SPWF0xSy/wifi_module_uart_01.c ****                       WiFi_Counter_Variables.last_process_buffer_index = 5;
 823:Middlewares/ST/STM32_SPWF0xSy/wifi_module_uart_01.c ****                       WiFi_Control_Variables.enable_receive_http_response = WIFI_FALSE;
 824:Middlewares/ST/STM32_SPWF0xSy/wifi_module_uart_01.c ****                       WiFi_Control_Variables.stop_event_dequeue = WIFI_FALSE;
 825:Middlewares/ST/STM32_SPWF0xSy/wifi_module_uart_01.c ****                       memset(process_buffer, 0x00, MAX_BUFFER_GLOBAL);
 826:Middlewares/ST/STM32_SPWF0xSy/wifi_module_uart_01.c **** 
 827:Middlewares/ST/STM32_SPWF0xSy/wifi_module_uart_01.c ****                       if(WiFi_Control_Variables.enable_receive_file_response)
 828:Middlewares/ST/STM32_SPWF0xSy/wifi_module_uart_01.c ****                         WiFi_Control_Variables.FILE_Data_available = WIFI_FALSE;
 829:Middlewares/ST/STM32_SPWF0xSy/wifi_module_uart_01.c ****                       else
 830:Middlewares/ST/STM32_SPWF0xSy/wifi_module_uart_01.c ****                         WiFi_Control_Variables.HTTP_Data_available=WIFI_FALSE;
 831:Middlewares/ST/STM32_SPWF0xSy/wifi_module_uart_01.c ****                   }
 832:Middlewares/ST/STM32_SPWF0xSy/wifi_module_uart_01.c ****               }
 833:Middlewares/ST/STM32_SPWF0xSy/wifi_module_uart_01.c **** 
 834:Middlewares/ST/STM32_SPWF0xSy/wifi_module_uart_01.c ****             if((Fillptr > 5) & (pStr == NULL))
 835:Middlewares/ST/STM32_SPWF0xSy/wifi_module_uart_01.c ****                   WiFi_Counter_Variables.last_process_buffer_index = Fillptr;
 836:Middlewares/ST/STM32_SPWF0xSy/wifi_module_uart_01.c **** 
 837:Middlewares/ST/STM32_SPWF0xSy/wifi_module_uart_01.c ****             if(Fillptr == MAX_BUFFER_GLOBAL-1 )
 838:Middlewares/ST/STM32_SPWF0xSy/wifi_module_uart_01.c ****               {
 839:Middlewares/ST/STM32_SPWF0xSy/wifi_module_uart_01.c ****                   memcpy(UserDataBuff, process_buffer, Fillptr);
 840:Middlewares/ST/STM32_SPWF0xSy/wifi_module_uart_01.c ****                   memcpy(&HTTP_Runway_Buff, &UserDataBuff[505], 6); //for storing the last 6 bytes 
 841:Middlewares/ST/STM32_SPWF0xSy/wifi_module_uart_01.c ****                   memset(&UserDataBuff[505], 0x00, 6);
 842:Middlewares/ST/STM32_SPWF0xSy/wifi_module_uart_01.c ****                   memset(process_buffer, 0x00, MAX_BUFFER_GLOBAL);
 843:Middlewares/ST/STM32_SPWF0xSy/wifi_module_uart_01.c ****                   memcpy(&process_buffer, &HTTP_Runway_Buff, 6);
 844:Middlewares/ST/STM32_SPWF0xSy/wifi_module_uart_01.c ****                   memset(HTTP_Runway_Buff, 0x00, 6);
 845:Middlewares/ST/STM32_SPWF0xSy/wifi_module_uart_01.c ****                   Fillptr = 6;
 846:Middlewares/ST/STM32_SPWF0xSy/wifi_module_uart_01.c ****                   WiFi_Counter_Variables.last_process_buffer_index = 5;
 847:Middlewares/ST/STM32_SPWF0xSy/wifi_module_uart_01.c ****                   WiFi_Counter_Variables.UserDataBuff_index = 505;
 848:Middlewares/ST/STM32_SPWF0xSy/wifi_module_uart_01.c ****                   Stop_Dequeue();
 849:Middlewares/ST/STM32_SPWF0xSy/wifi_module_uart_01.c **** 
 850:Middlewares/ST/STM32_SPWF0xSy/wifi_module_uart_01.c ****                   if(WiFi_Control_Variables.enable_receive_file_response)
 851:Middlewares/ST/STM32_SPWF0xSy/wifi_module_uart_01.c ****                     WiFi_Control_Variables.FILE_Data_available = WIFI_TRUE;
 852:Middlewares/ST/STM32_SPWF0xSy/wifi_module_uart_01.c ****                   else
 853:Middlewares/ST/STM32_SPWF0xSy/wifi_module_uart_01.c ****                     WiFi_Control_Variables.HTTP_Data_available = WIFI_TRUE;
 854:Middlewares/ST/STM32_SPWF0xSy/wifi_module_uart_01.c ****               }
ARM GAS  D:\cygwin64\tmp\ccuGdUOt.s 			page 18


 855:Middlewares/ST/STM32_SPWF0xSy/wifi_module_uart_01.c ****             return;
 856:Middlewares/ST/STM32_SPWF0xSy/wifi_module_uart_01.c ****         }
 857:Middlewares/ST/STM32_SPWF0xSy/wifi_module_uart_01.c ****     
 858:Middlewares/ST/STM32_SPWF0xSy/wifi_module_uart_01.c ****      /*********************************************************************************************
 859:Middlewares/ST/STM32_SPWF0xSy/wifi_module_uart_01.c ****       *                                                                                           *
 860:Middlewares/ST/STM32_SPWF0xSy/wifi_module_uart_01.c ****       *                             WiFi Scan Is Enabled.                                       *
 861:Middlewares/ST/STM32_SPWF0xSy/wifi_module_uart_01.c ****       *                                                                                           *
 862:Middlewares/ST/STM32_SPWF0xSy/wifi_module_uart_01.c ****       ********************************************************************************************/
 863:Middlewares/ST/STM32_SPWF0xSy/wifi_module_uart_01.c ****     
 864:Middlewares/ST/STM32_SPWF0xSy/wifi_module_uart_01.c ****     if((!WiFi_Control_Variables.Q_Contains_Message) && WiFi_Control_Variables.enable_receive_wifi_s
 865:Middlewares/ST/STM32_SPWF0xSy/wifi_module_uart_01.c ****       {
 866:Middlewares/ST/STM32_SPWF0xSy/wifi_module_uart_01.c ****             /*now check if end of msg received*/
 867:Middlewares/ST/STM32_SPWF0xSy/wifi_module_uart_01.c ****             if((process_buffer[Fillptr-2]==0xD) && (process_buffer[Fillptr-1]==0xA))
 868:Middlewares/ST/STM32_SPWF0xSy/wifi_module_uart_01.c ****               {
 869:Middlewares/ST/STM32_SPWF0xSy/wifi_module_uart_01.c ****                 #if DEBUG_PRINT
 870:Middlewares/ST/STM32_SPWF0xSy/wifi_module_uart_01.c ****                   printf((char const *)process_buffer);
 871:Middlewares/ST/STM32_SPWF0xSy/wifi_module_uart_01.c ****                 #endif
 872:Middlewares/ST/STM32_SPWF0xSy/wifi_module_uart_01.c ****                 fflush(stdout);
 873:Middlewares/ST/STM32_SPWF0xSy/wifi_module_uart_01.c ****                 
 874:Middlewares/ST/STM32_SPWF0xSy/wifi_module_uart_01.c ****                 if(WiFi_Counter_Variables.scanned_ssids < WiFi_Counter_Variables.user_scan_number)
 875:Middlewares/ST/STM32_SPWF0xSy/wifi_module_uart_01.c ****                   {
 876:Middlewares/ST/STM32_SPWF0xSy/wifi_module_uart_01.c ****                       pStr = (char *) strstr((const char *)&process_buffer,"CHAN:");            
 877:Middlewares/ST/STM32_SPWF0xSy/wifi_module_uart_01.c ****                       if(pStr != NULL)
 878:Middlewares/ST/STM32_SPWF0xSy/wifi_module_uart_01.c ****                           {
 879:Middlewares/ST/STM32_SPWF0xSy/wifi_module_uart_01.c ****                               databytes_No[0] = *(pStr + 6) ;
 880:Middlewares/ST/STM32_SPWF0xSy/wifi_module_uart_01.c ****                               databytes_No[1] = *(pStr + 7) ;
 881:Middlewares/ST/STM32_SPWF0xSy/wifi_module_uart_01.c ****                     
 882:Middlewares/ST/STM32_SPWF0xSy/wifi_module_uart_01.c ****                               chan_value = (((databytes_No[0] - '0') * 10 ) + (databytes_No[1] - '0
 883:Middlewares/ST/STM32_SPWF0xSy/wifi_module_uart_01.c ****                           }
 884:Middlewares/ST/STM32_SPWF0xSy/wifi_module_uart_01.c **** 
 885:Middlewares/ST/STM32_SPWF0xSy/wifi_module_uart_01.c ****                       wifi_scanned_list[WiFi_Counter_Variables.scanned_ssids].channel_num = chan_va
 886:Middlewares/ST/STM32_SPWF0xSy/wifi_module_uart_01.c **** 
 887:Middlewares/ST/STM32_SPWF0xSy/wifi_module_uart_01.c ****                       pStr = (char *) strstr((const char *)&process_buffer,"RSSI:");            
 888:Middlewares/ST/STM32_SPWF0xSy/wifi_module_uart_01.c ****                       if(pStr != NULL)
 889:Middlewares/ST/STM32_SPWF0xSy/wifi_module_uart_01.c ****                           {
 890:Middlewares/ST/STM32_SPWF0xSy/wifi_module_uart_01.c ****                               databytes_No[0] = *(pStr + 7) ;
 891:Middlewares/ST/STM32_SPWF0xSy/wifi_module_uart_01.c ****                               databytes_No[1] = *(pStr + 8) ;
 892:Middlewares/ST/STM32_SPWF0xSy/wifi_module_uart_01.c ****                     
 893:Middlewares/ST/STM32_SPWF0xSy/wifi_module_uart_01.c ****                               rssi_value = (((databytes_No[0] - '0') * 10 ) + (databytes_No[1] - '0
 894:Middlewares/ST/STM32_SPWF0xSy/wifi_module_uart_01.c ****                           }
 895:Middlewares/ST/STM32_SPWF0xSy/wifi_module_uart_01.c **** 
 896:Middlewares/ST/STM32_SPWF0xSy/wifi_module_uart_01.c ****                       wifi_scanned_list[WiFi_Counter_Variables.scanned_ssids].rssi = -(rssi_value);
 897:Middlewares/ST/STM32_SPWF0xSy/wifi_module_uart_01.c **** 
 898:Middlewares/ST/STM32_SPWF0xSy/wifi_module_uart_01.c ****                       pStr = (char *) strstr((const char *)&process_buffer,"SSID:");
 899:Middlewares/ST/STM32_SPWF0xSy/wifi_module_uart_01.c ****                       if(pStr != NULL)
 900:Middlewares/ST/STM32_SPWF0xSy/wifi_module_uart_01.c ****                           {
 901:Middlewares/ST/STM32_SPWF0xSy/wifi_module_uart_01.c ****                               index = 7;
 902:Middlewares/ST/STM32_SPWF0xSy/wifi_module_uart_01.c ****                               while(*(pStr + index) != 0x27)
 903:Middlewares/ST/STM32_SPWF0xSy/wifi_module_uart_01.c ****                                   {
 904:Middlewares/ST/STM32_SPWF0xSy/wifi_module_uart_01.c ****                                       wifi_scanned_list[WiFi_Counter_Variables.scanned_ssids].ssid[
 905:Middlewares/ST/STM32_SPWF0xSy/wifi_module_uart_01.c ****                                       index++;
 906:Middlewares/ST/STM32_SPWF0xSy/wifi_module_uart_01.c ****                                       if(index==35) break; //max ssid lenght is 30 characters
 907:Middlewares/ST/STM32_SPWF0xSy/wifi_module_uart_01.c ****                                   }                                
 908:Middlewares/ST/STM32_SPWF0xSy/wifi_module_uart_01.c ****                           }
 909:Middlewares/ST/STM32_SPWF0xSy/wifi_module_uart_01.c **** 
 910:Middlewares/ST/STM32_SPWF0xSy/wifi_module_uart_01.c ****                       pStr = (char *) strstr((const char *)&process_buffer,"WPA ");            
 911:Middlewares/ST/STM32_SPWF0xSy/wifi_module_uart_01.c ****                       if(pStr != NULL)
ARM GAS  D:\cygwin64\tmp\ccuGdUOt.s 			page 19


 912:Middlewares/ST/STM32_SPWF0xSy/wifi_module_uart_01.c ****                           {
 913:Middlewares/ST/STM32_SPWF0xSy/wifi_module_uart_01.c ****                               wifi_scanned_list[WiFi_Counter_Variables.scanned_ssids].sec_type.wpa 
 914:Middlewares/ST/STM32_SPWF0xSy/wifi_module_uart_01.c ****                           } else
 915:Middlewares/ST/STM32_SPWF0xSy/wifi_module_uart_01.c ****                               wifi_scanned_list[WiFi_Counter_Variables.scanned_ssids].sec_type.wpa 
 916:Middlewares/ST/STM32_SPWF0xSy/wifi_module_uart_01.c ****                       
 917:Middlewares/ST/STM32_SPWF0xSy/wifi_module_uart_01.c ****                       pStr = (char *) strstr((const char *)&process_buffer,"WPA2 ");            
 918:Middlewares/ST/STM32_SPWF0xSy/wifi_module_uart_01.c ****                       if(pStr != NULL)
 919:Middlewares/ST/STM32_SPWF0xSy/wifi_module_uart_01.c ****                           {
 920:Middlewares/ST/STM32_SPWF0xSy/wifi_module_uart_01.c ****                               wifi_scanned_list[WiFi_Counter_Variables.scanned_ssids].sec_type.wpa2
 921:Middlewares/ST/STM32_SPWF0xSy/wifi_module_uart_01.c ****                           } else
 922:Middlewares/ST/STM32_SPWF0xSy/wifi_module_uart_01.c ****                               wifi_scanned_list[WiFi_Counter_Variables.scanned_ssids].sec_type.wpa2
 923:Middlewares/ST/STM32_SPWF0xSy/wifi_module_uart_01.c ****                       
 924:Middlewares/ST/STM32_SPWF0xSy/wifi_module_uart_01.c ****                       pStr = (char *) strstr((const char *)&process_buffer,"WPS ");            
 925:Middlewares/ST/STM32_SPWF0xSy/wifi_module_uart_01.c ****                       if(pStr != NULL)
 926:Middlewares/ST/STM32_SPWF0xSy/wifi_module_uart_01.c ****                           {
 927:Middlewares/ST/STM32_SPWF0xSy/wifi_module_uart_01.c ****                               wifi_scanned_list[WiFi_Counter_Variables.scanned_ssids].sec_type.wps 
 928:Middlewares/ST/STM32_SPWF0xSy/wifi_module_uart_01.c ****                           } else
 929:Middlewares/ST/STM32_SPWF0xSy/wifi_module_uart_01.c ****                               wifi_scanned_list[WiFi_Counter_Variables.scanned_ssids].sec_type.wps 
 930:Middlewares/ST/STM32_SPWF0xSy/wifi_module_uart_01.c **** 
 931:Middlewares/ST/STM32_SPWF0xSy/wifi_module_uart_01.c ****                       WiFi_Counter_Variables.scanned_ssids++;//increment total_networks
 932:Middlewares/ST/STM32_SPWF0xSy/wifi_module_uart_01.c ****                   }
 933:Middlewares/ST/STM32_SPWF0xSy/wifi_module_uart_01.c **** 
 934:Middlewares/ST/STM32_SPWF0xSy/wifi_module_uart_01.c ****                 //end of one line from SCAN result       
 935:Middlewares/ST/STM32_SPWF0xSy/wifi_module_uart_01.c ****                 pStr = (char *) strstr((const char *)&process_buffer,"ERROR");
 936:Middlewares/ST/STM32_SPWF0xSy/wifi_module_uart_01.c ****                 if(pStr != NULL)
 937:Middlewares/ST/STM32_SPWF0xSy/wifi_module_uart_01.c ****                   {
 938:Middlewares/ST/STM32_SPWF0xSy/wifi_module_uart_01.c ****                       #if DEBUG_PRINT
 939:Middlewares/ST/STM32_SPWF0xSy/wifi_module_uart_01.c ****                         printf("ERROR Scan Failed"); 
 940:Middlewares/ST/STM32_SPWF0xSy/wifi_module_uart_01.c ****                       #endif
 941:Middlewares/ST/STM32_SPWF0xSy/wifi_module_uart_01.c ****                       memset(process_buffer, 0x00, MAX_BUFFER_GLOBAL);
 942:Middlewares/ST/STM32_SPWF0xSy/wifi_module_uart_01.c ****                       Fillptr=0;
 943:Middlewares/ST/STM32_SPWF0xSy/wifi_module_uart_01.c ****                       IO_status_flag.AT_Response_Received = WIFI_TRUE;
 944:Middlewares/ST/STM32_SPWF0xSy/wifi_module_uart_01.c ****                       WiFi_Control_Variables.enable_receive_wifi_scan_response = WIFI_FALSE;
 945:Middlewares/ST/STM32_SPWF0xSy/wifi_module_uart_01.c ****                       WiFi_Control_Variables.Scan_Ongoing = WIFI_FALSE; //Enable next scan
 946:Middlewares/ST/STM32_SPWF0xSy/wifi_module_uart_01.c ****                       WiFi_Counter_Variables.AT_RESPONSE = WiFi_AT_CMD_RESP_ERROR;     
 947:Middlewares/ST/STM32_SPWF0xSy/wifi_module_uart_01.c ****                       return;
 948:Middlewares/ST/STM32_SPWF0xSy/wifi_module_uart_01.c ****                   }
 949:Middlewares/ST/STM32_SPWF0xSy/wifi_module_uart_01.c **** 
 950:Middlewares/ST/STM32_SPWF0xSy/wifi_module_uart_01.c ****                 #if DEBUG_PRINT
 951:Middlewares/ST/STM32_SPWF0xSy/wifi_module_uart_01.c ****                 printf((const char*)process_buffer);
 952:Middlewares/ST/STM32_SPWF0xSy/wifi_module_uart_01.c ****                 #endif
 953:Middlewares/ST/STM32_SPWF0xSy/wifi_module_uart_01.c **** 
 954:Middlewares/ST/STM32_SPWF0xSy/wifi_module_uart_01.c ****                 if(((strstr((const char *)process_buffer,"OK\r\n"))) != NULL /*|| scanned_ssids==10
 955:Middlewares/ST/STM32_SPWF0xSy/wifi_module_uart_01.c ****                   {
 956:Middlewares/ST/STM32_SPWF0xSy/wifi_module_uart_01.c ****                       //print and go for next line
 957:Middlewares/ST/STM32_SPWF0xSy/wifi_module_uart_01.c ****                       //If Any part of scan line contains "OK" this will exit!!
 958:Middlewares/ST/STM32_SPWF0xSy/wifi_module_uart_01.c ****                       #if DEBUG_PRINT
 959:Middlewares/ST/STM32_SPWF0xSy/wifi_module_uart_01.c ****                         printf("\nOK\r\n");   
 960:Middlewares/ST/STM32_SPWF0xSy/wifi_module_uart_01.c ****                       #endif
 961:Middlewares/ST/STM32_SPWF0xSy/wifi_module_uart_01.c ****                       WiFi_Control_Variables.Scan_Ongoing = WIFI_FALSE; //Enable next scan         
 962:Middlewares/ST/STM32_SPWF0xSy/wifi_module_uart_01.c ****                       WiFi_Counter_Variables.scanned_ssids=0;                       
 963:Middlewares/ST/STM32_SPWF0xSy/wifi_module_uart_01.c ****                       Fillptr=0;
 964:Middlewares/ST/STM32_SPWF0xSy/wifi_module_uart_01.c ****                       IO_status_flag.AT_Response_Received = WIFI_TRUE;
 965:Middlewares/ST/STM32_SPWF0xSy/wifi_module_uart_01.c ****                       WiFi_Control_Variables.enable_receive_wifi_scan_response = WIFI_FALSE;
 966:Middlewares/ST/STM32_SPWF0xSy/wifi_module_uart_01.c ****                       WiFi_Counter_Variables.AT_RESPONSE = WiFi_MODULE_SUCCESS;
 967:Middlewares/ST/STM32_SPWF0xSy/wifi_module_uart_01.c ****                       memset(process_buffer, 0x00, MAX_BUFFER_GLOBAL);    
 968:Middlewares/ST/STM32_SPWF0xSy/wifi_module_uart_01.c ****                       return;
ARM GAS  D:\cygwin64\tmp\ccuGdUOt.s 			page 20


 969:Middlewares/ST/STM32_SPWF0xSy/wifi_module_uart_01.c ****                   }
 970:Middlewares/ST/STM32_SPWF0xSy/wifi_module_uart_01.c **** 
 971:Middlewares/ST/STM32_SPWF0xSy/wifi_module_uart_01.c ****                 Fillptr=0;
 972:Middlewares/ST/STM32_SPWF0xSy/wifi_module_uart_01.c ****                 memset(process_buffer, 0x00, MAX_BUFFER_GLOBAL);          
 973:Middlewares/ST/STM32_SPWF0xSy/wifi_module_uart_01.c ****               }
 974:Middlewares/ST/STM32_SPWF0xSy/wifi_module_uart_01.c **** 
 975:Middlewares/ST/STM32_SPWF0xSy/wifi_module_uart_01.c ****             if(Fillptr>=MAX_BUFFER_GLOBAL-1)
 976:Middlewares/ST/STM32_SPWF0xSy/wifi_module_uart_01.c ****               {
 977:Middlewares/ST/STM32_SPWF0xSy/wifi_module_uart_01.c ****                 #if DEBUG_PRINT
 978:Middlewares/ST/STM32_SPWF0xSy/wifi_module_uart_01.c ****                 printf("\rHTTP: process_buffer Max Buffer Size reached\r\n");
 979:Middlewares/ST/STM32_SPWF0xSy/wifi_module_uart_01.c ****                 #endif          
 980:Middlewares/ST/STM32_SPWF0xSy/wifi_module_uart_01.c ****                 Fillptr=0;          
 981:Middlewares/ST/STM32_SPWF0xSy/wifi_module_uart_01.c ****                 memset(process_buffer, 0x00, MAX_BUFFER_GLOBAL); 
 982:Middlewares/ST/STM32_SPWF0xSy/wifi_module_uart_01.c ****               }
 983:Middlewares/ST/STM32_SPWF0xSy/wifi_module_uart_01.c ****       }
 984:Middlewares/ST/STM32_SPWF0xSy/wifi_module_uart_01.c **** 
 985:Middlewares/ST/STM32_SPWF0xSy/wifi_module_uart_01.c ****     
 986:Middlewares/ST/STM32_SPWF0xSy/wifi_module_uart_01.c ****      /*********************************************************************************************
 987:Middlewares/ST/STM32_SPWF0xSy/wifi_module_uart_01.c ****       *                                                                                           *
 988:Middlewares/ST/STM32_SPWF0xSy/wifi_module_uart_01.c ****       *                             FW Update Is Enabled.                                         *
 989:Middlewares/ST/STM32_SPWF0xSy/wifi_module_uart_01.c ****       *                                                                                           *
 990:Middlewares/ST/STM32_SPWF0xSy/wifi_module_uart_01.c ****       ********************************************************************************************/
 991:Middlewares/ST/STM32_SPWF0xSy/wifi_module_uart_01.c ****     
 992:Middlewares/ST/STM32_SPWF0xSy/wifi_module_uart_01.c ****     if((!WiFi_Control_Variables.Q_Contains_Message) && WiFi_Control_Variables.enable_fw_update_read
 993:Middlewares/ST/STM32_SPWF0xSy/wifi_module_uart_01.c ****       {
 994:Middlewares/ST/STM32_SPWF0xSy/wifi_module_uart_01.c ****             #ifdef DEBUG_PRINT
 995:Middlewares/ST/STM32_SPWF0xSy/wifi_module_uart_01.c ****             printf("*");     //print * till finish    
 996:Middlewares/ST/STM32_SPWF0xSy/wifi_module_uart_01.c ****             #endif
 997:Middlewares/ST/STM32_SPWF0xSy/wifi_module_uart_01.c **** 
 998:Middlewares/ST/STM32_SPWF0xSy/wifi_module_uart_01.c ****             if((pStr = (char *) strstr((const char *)process_buffer,"Complete!")) != NULL)
 999:Middlewares/ST/STM32_SPWF0xSy/wifi_module_uart_01.c ****               {
1000:Middlewares/ST/STM32_SPWF0xSy/wifi_module_uart_01.c ****                 /* wait for complete message */
1001:Middlewares/ST/STM32_SPWF0xSy/wifi_module_uart_01.c ****                 WiFi_Control_Variables.enable_receive_data_chunk = WIFI_FALSE;
1002:Middlewares/ST/STM32_SPWF0xSy/wifi_module_uart_01.c ****                 if((process_buffer[Fillptr-2]==0xD) && (process_buffer[Fillptr-1]==0xA))
1003:Middlewares/ST/STM32_SPWF0xSy/wifi_module_uart_01.c ****                 {
1004:Middlewares/ST/STM32_SPWF0xSy/wifi_module_uart_01.c ****                   #ifdef DEBUG_PRINT
1005:Middlewares/ST/STM32_SPWF0xSy/wifi_module_uart_01.c ****                   printf("\r\nUpdate complete\r\n");
1006:Middlewares/ST/STM32_SPWF0xSy/wifi_module_uart_01.c ****                   #endif
1007:Middlewares/ST/STM32_SPWF0xSy/wifi_module_uart_01.c **** //                  IO_status_flag.AT_Response_Received = WIFI_TRUE;
1008:Middlewares/ST/STM32_SPWF0xSy/wifi_module_uart_01.c **** //                  WiFi_Counter_Variables.AT_RESPONSE = WiFi_MODULE_SUCCESS;
1009:Middlewares/ST/STM32_SPWF0xSy/wifi_module_uart_01.c ****                   WiFi_Control_Variables.enable_fw_update_read = WIFI_FALSE;
1010:Middlewares/ST/STM32_SPWF0xSy/wifi_module_uart_01.c ****                   Fillptr=0;
1011:Middlewares/ST/STM32_SPWF0xSy/wifi_module_uart_01.c ****                   memset(process_buffer, 0x00, MAX_BUFFER_GLOBAL);
1012:Middlewares/ST/STM32_SPWF0xSy/wifi_module_uart_01.c ****                 }
1013:Middlewares/ST/STM32_SPWF0xSy/wifi_module_uart_01.c ****               }
1014:Middlewares/ST/STM32_SPWF0xSy/wifi_module_uart_01.c ****             if(Fillptr == MAX_BUFFER_GLOBAL-1)
1015:Middlewares/ST/STM32_SPWF0xSy/wifi_module_uart_01.c ****               {
1016:Middlewares/ST/STM32_SPWF0xSy/wifi_module_uart_01.c ****                 Fillptr=0;
1017:Middlewares/ST/STM32_SPWF0xSy/wifi_module_uart_01.c ****                 memset(process_buffer, 0x00, MAX_BUFFER_GLOBAL);
1018:Middlewares/ST/STM32_SPWF0xSy/wifi_module_uart_01.c ****               }
1019:Middlewares/ST/STM32_SPWF0xSy/wifi_module_uart_01.c ****             //No change of state till we get "+WIND:17:F/W update complete!"
1020:Middlewares/ST/STM32_SPWF0xSy/wifi_module_uart_01.c ****       }    
1021:Middlewares/ST/STM32_SPWF0xSy/wifi_module_uart_01.c **** 
1022:Middlewares/ST/STM32_SPWF0xSy/wifi_module_uart_01.c **** }
1023:Middlewares/ST/STM32_SPWF0xSy/wifi_module_uart_01.c **** 
1024:Middlewares/ST/STM32_SPWF0xSy/wifi_module_uart_01.c **** 
1025:Middlewares/ST/STM32_SPWF0xSy/wifi_module_uart_01.c **** 
ARM GAS  D:\cygwin64\tmp\ccuGdUOt.s 			page 21


1026:Middlewares/ST/STM32_SPWF0xSy/wifi_module_uart_01.c **** /**
1027:Middlewares/ST/STM32_SPWF0xSy/wifi_module_uart_01.c **** * @brief  Process_Wind_Indication_Cmd
1028:Middlewares/ST/STM32_SPWF0xSy/wifi_module_uart_01.c **** *         Process Wind indication before queueing
1029:Middlewares/ST/STM32_SPWF0xSy/wifi_module_uart_01.c **** * @param  process_buff_ptr: pointer of WiFi indication buffer
1030:Middlewares/ST/STM32_SPWF0xSy/wifi_module_uart_01.c **** * @retval None
1031:Middlewares/ST/STM32_SPWF0xSy/wifi_module_uart_01.c **** */
1032:Middlewares/ST/STM32_SPWF0xSy/wifi_module_uart_01.c **** 
1033:Middlewares/ST/STM32_SPWF0xSy/wifi_module_uart_01.c **** void Process_Wind_Indication(uint8_t *process_buff_ptr)
1034:Middlewares/ST/STM32_SPWF0xSy/wifi_module_uart_01.c **** {
 115              		.loc 1 1034 0
 116              		.cfi_startproc
 117              		@ args = 0, pretend = 0, frame = 8
 118              		@ frame_needed = 0, uses_anonymous_args = 0
 119              	.LVL8:
1035:Middlewares/ST/STM32_SPWF0xSy/wifi_module_uart_01.c ****   char * process_buffer_ptr = (char*)process_buff_ptr; //stores the starting address of process_buf
1036:Middlewares/ST/STM32_SPWF0xSy/wifi_module_uart_01.c ****   char * ptr_offset = (char*)process_buff_ptr;
1037:Middlewares/ST/STM32_SPWF0xSy/wifi_module_uart_01.c ****   char Indication_No[2];
1038:Middlewares/ST/STM32_SPWF0xSy/wifi_module_uart_01.c ****   char databytes_No[4];
1039:Middlewares/ST/STM32_SPWF0xSy/wifi_module_uart_01.c ****   #if DEBUG_PRINT
1040:Middlewares/ST/STM32_SPWF0xSy/wifi_module_uart_01.c ****   printf((const char*)process_buff_ptr);
1041:Middlewares/ST/STM32_SPWF0xSy/wifi_module_uart_01.c ****   #endif
1042:Middlewares/ST/STM32_SPWF0xSy/wifi_module_uart_01.c ****   int i;
1043:Middlewares/ST/STM32_SPWF0xSy/wifi_module_uart_01.c **** 
1044:Middlewares/ST/STM32_SPWF0xSy/wifi_module_uart_01.c ****   WiFi_Indication_t Wind_No = Undefine_Indication;
1045:Middlewares/ST/STM32_SPWF0xSy/wifi_module_uart_01.c **** 
1046:Middlewares/ST/STM32_SPWF0xSy/wifi_module_uart_01.c ****   if(ptr_offset != NULL)
 120              		.loc 1 1046 0
 121 0000 0028     		cmp	r0, #0
 122 0002 00F0F081 		beq	.L46
1034:Middlewares/ST/STM32_SPWF0xSy/wifi_module_uart_01.c ****   char * process_buffer_ptr = (char*)process_buff_ptr; //stores the starting address of process_buf
 123              		.loc 1 1034 0
 124 0006 30B5     		push	{r4, r5, lr}
 125              	.LCFI1:
 126              		.cfi_def_cfa_offset 12
 127              		.cfi_offset 4, -12
 128              		.cfi_offset 5, -8
 129              		.cfi_offset 14, -4
 130 0008 83B0     		sub	sp, sp, #12
 131              	.LCFI2:
 132              		.cfi_def_cfa_offset 24
 133 000a 0446     		mov	r4, r0
1047:Middlewares/ST/STM32_SPWF0xSy/wifi_module_uart_01.c ****     {
1048:Middlewares/ST/STM32_SPWF0xSy/wifi_module_uart_01.c ****       ptr_offset = (char *) strstr((const char *)process_buffer_ptr,"WIND:");
 134              		.loc 1 1048 0
 135 000c A149     		ldr	r1, .L58
 136 000e FFF7FEFF 		bl	strstr
 137              	.LVL9:
1049:Middlewares/ST/STM32_SPWF0xSy/wifi_module_uart_01.c **** 
1050:Middlewares/ST/STM32_SPWF0xSy/wifi_module_uart_01.c ****       if(ptr_offset != NULL)
 138              		.loc 1 1050 0
 139 0012 0146     		mov	r1, r0
 140 0014 0028     		cmp	r0, #0
 141 0016 72D0     		beq	.L9
1051:Middlewares/ST/STM32_SPWF0xSy/wifi_module_uart_01.c ****         {
1052:Middlewares/ST/STM32_SPWF0xSy/wifi_module_uart_01.c ****             Indication_No[0] = *(ptr_offset + 5);
 142              		.loc 1 1052 0
 143 0018 4379     		ldrb	r3, [r0, #5]	@ zero_extendqisi2
ARM GAS  D:\cygwin64\tmp\ccuGdUOt.s 			page 22


1053:Middlewares/ST/STM32_SPWF0xSy/wifi_module_uart_01.c ****             Indication_No[1] = *(ptr_offset + 6);
 144              		.loc 1 1053 0
 145 001a 8279     		ldrb	r2, [r0, #6]	@ zero_extendqisi2
1054:Middlewares/ST/STM32_SPWF0xSy/wifi_module_uart_01.c **** 
1055:Middlewares/ST/STM32_SPWF0xSy/wifi_module_uart_01.c ****             if( Indication_No[1] == ':')
 146              		.loc 1 1055 0
 147 001c 3A2A     		cmp	r2, #58
 148 001e 5AD0     		beq	.L49
1056:Middlewares/ST/STM32_SPWF0xSy/wifi_module_uart_01.c ****               {
1057:Middlewares/ST/STM32_SPWF0xSy/wifi_module_uart_01.c ****                 /* Convert char to integer */
1058:Middlewares/ST/STM32_SPWF0xSy/wifi_module_uart_01.c ****                 Wind_No = (WiFi_Indication_t)(Indication_No[0] - '0'); 
1059:Middlewares/ST/STM32_SPWF0xSy/wifi_module_uart_01.c ****               }
1060:Middlewares/ST/STM32_SPWF0xSy/wifi_module_uart_01.c ****             else
1061:Middlewares/ST/STM32_SPWF0xSy/wifi_module_uart_01.c ****               {
1062:Middlewares/ST/STM32_SPWF0xSy/wifi_module_uart_01.c ****                 /* Convert char to integer */
1063:Middlewares/ST/STM32_SPWF0xSy/wifi_module_uart_01.c ****                 Wind_No = (WiFi_Indication_t)(((Indication_No[0] - '0') * 10 ) + (Indication_No[1] 
 149              		.loc 1 1063 0
 150 0020 303B     		subs	r3, r3, #48
 151 0022 03EB8303 		add	r3, r3, r3, lsl #2
 152 0026 02EB4303 		add	r3, r2, r3, lsl #1
 153 002a 303B     		subs	r3, r3, #48
 154              	.LVL10:
 155              	.L12:
1064:Middlewares/ST/STM32_SPWF0xSy/wifi_module_uart_01.c ****               }
1065:Middlewares/ST/STM32_SPWF0xSy/wifi_module_uart_01.c **** 
1066:Middlewares/ST/STM32_SPWF0xSy/wifi_module_uart_01.c ****             wifi_instances.wifi_event.wind = Wind_No;
 156              		.loc 1 1066 0
 157 002c 9A4A     		ldr	r2, .L58+4
 158 002e 82F82030 		strb	r3, [r2, #32]
1067:Middlewares/ST/STM32_SPWF0xSy/wifi_module_uart_01.c ****             wifi_instances.wifi_event.event = WIFI_WIND_EVENT;
 159              		.loc 1 1067 0
 160 0032 0120     		movs	r0, #1
 161              	.LVL11:
 162 0034 82F82600 		strb	r0, [r2, #38]
1068:Middlewares/ST/STM32_SPWF0xSy/wifi_module_uart_01.c **** 
1069:Middlewares/ST/STM32_SPWF0xSy/wifi_module_uart_01.c ****             switch (Wind_No)
 163              		.loc 1 1069 0
 164 0038 4A2B     		cmp	r3, #74
 165 003a 5AD8     		bhi	.L13
 166 003c DFE813F0 		tbh	[pc, r3, lsl #1]
 167              	.L15:
 168 0040 BD01     		.2byte	(.L14-.L15)/2
 169 0042 BD01     		.2byte	(.L14-.L15)/2
 170 0044 BD01     		.2byte	(.L14-.L15)/2
 171 0046 BD01     		.2byte	(.L14-.L15)/2
 172 0048 5900     		.2byte	(.L13-.L15)/2
 173 004a 5900     		.2byte	(.L13-.L15)/2
 174 004c BD01     		.2byte	(.L14-.L15)/2
 175 004e BD01     		.2byte	(.L14-.L15)/2
 176 0050 5900     		.2byte	(.L13-.L15)/2
 177 0052 5900     		.2byte	(.L13-.L15)/2
 178 0054 C701     		.2byte	(.L16-.L15)/2
 179 0056 5900     		.2byte	(.L13-.L15)/2
 180 0058 5900     		.2byte	(.L13-.L15)/2
 181 005a BD01     		.2byte	(.L14-.L15)/2
 182 005c BD01     		.2byte	(.L14-.L15)/2
 183 005e 5900     		.2byte	(.L13-.L15)/2
ARM GAS  D:\cygwin64\tmp\ccuGdUOt.s 			page 23


 184 0060 BD01     		.2byte	(.L14-.L15)/2
 185 0062 BD01     		.2byte	(.L14-.L15)/2
 186 0064 BD01     		.2byte	(.L14-.L15)/2
 187 0066 BD01     		.2byte	(.L14-.L15)/2
 188 0068 5900     		.2byte	(.L13-.L15)/2
 189 006a BD01     		.2byte	(.L14-.L15)/2
 190 006c 5900     		.2byte	(.L13-.L15)/2
 191 006e 5900     		.2byte	(.L13-.L15)/2
 192 0070 5900     		.2byte	(.L13-.L15)/2
 193 0072 BD01     		.2byte	(.L14-.L15)/2
 194 0074 5900     		.2byte	(.L13-.L15)/2
 195 0076 5900     		.2byte	(.L13-.L15)/2
 196 0078 6801     		.2byte	(.L17-.L15)/2
 197 007a 5900     		.2byte	(.L13-.L15)/2
 198 007c BD01     		.2byte	(.L14-.L15)/2
 199 007e 5900     		.2byte	(.L13-.L15)/2
 200 0080 5900     		.2byte	(.L13-.L15)/2
 201 0082 BD01     		.2byte	(.L14-.L15)/2
 202 0084 BD01     		.2byte	(.L14-.L15)/2
 203 0086 5900     		.2byte	(.L13-.L15)/2
 204 0088 5900     		.2byte	(.L13-.L15)/2
 205 008a BD01     		.2byte	(.L14-.L15)/2
 206 008c 5900     		.2byte	(.L13-.L15)/2
 207 008e BD01     		.2byte	(.L14-.L15)/2
 208 0090 5900     		.2byte	(.L13-.L15)/2
 209 0092 5900     		.2byte	(.L13-.L15)/2
 210 0094 5900     		.2byte	(.L13-.L15)/2
 211 0096 5900     		.2byte	(.L13-.L15)/2
 212 0098 5900     		.2byte	(.L13-.L15)/2
 213 009a BD01     		.2byte	(.L14-.L15)/2
 214 009c BD01     		.2byte	(.L14-.L15)/2
 215 009e 5900     		.2byte	(.L13-.L15)/2
 216 00a0 5900     		.2byte	(.L13-.L15)/2
 217 00a2 BD01     		.2byte	(.L14-.L15)/2
 218 00a4 BD01     		.2byte	(.L14-.L15)/2
 219 00a6 BD01     		.2byte	(.L14-.L15)/2
 220 00a8 BD01     		.2byte	(.L14-.L15)/2
 221 00aa BD01     		.2byte	(.L14-.L15)/2
 222 00ac BD01     		.2byte	(.L14-.L15)/2
 223 00ae 4D00     		.2byte	(.L18-.L15)/2
 224 00b0 5900     		.2byte	(.L13-.L15)/2
 225 00b2 9C01     		.2byte	(.L19-.L15)/2
 226 00b4 6100     		.2byte	(.L20-.L15)/2
 227 00b6 1401     		.2byte	(.L21-.L15)/2
 228 00b8 3801     		.2byte	(.L22-.L15)/2
 229 00ba 9001     		.2byte	(.L23-.L15)/2
 230 00bc 9001     		.2byte	(.L23-.L15)/2
 231 00be 5900     		.2byte	(.L13-.L15)/2
 232 00c0 6A00     		.2byte	(.L24-.L15)/2
 233 00c2 5900     		.2byte	(.L13-.L15)/2
 234 00c4 BD01     		.2byte	(.L14-.L15)/2
 235 00c6 A901     		.2byte	(.L25-.L15)/2
 236 00c8 B301     		.2byte	(.L26-.L15)/2
 237 00ca 5900     		.2byte	(.L13-.L15)/2
 238 00cc 5900     		.2byte	(.L13-.L15)/2
 239 00ce 5900     		.2byte	(.L13-.L15)/2
 240 00d0 7C01     		.2byte	(.L27-.L15)/2
ARM GAS  D:\cygwin64\tmp\ccuGdUOt.s 			page 24


 241 00d2 5900     		.2byte	(.L13-.L15)/2
 242 00d4 BD01     		.2byte	(.L14-.L15)/2
 243              	.LVL12:
 244              		.p2align 1
 245              	.L49:
1058:Middlewares/ST/STM32_SPWF0xSy/wifi_module_uart_01.c ****               }
 246              		.loc 1 1058 0
 247 00d6 303B     		subs	r3, r3, #48
 248              	.LVL13:
 249 00d8 A8E7     		b	.L12
 250              	.LVL14:
 251              	.L18:
1070:Middlewares/ST/STM32_SPWF0xSy/wifi_module_uart_01.c ****             {
1071:Middlewares/ST/STM32_SPWF0xSy/wifi_module_uart_01.c ****                 case SockON_Data_Pending: /*WIND:55*/
1072:Middlewares/ST/STM32_SPWF0xSy/wifi_module_uart_01.c ****                     /*+WIND:55:Pending Data:%d:%d*/   
1073:Middlewares/ST/STM32_SPWF0xSy/wifi_module_uart_01.c ****                     ptr_offset = (char *) strstr((const char *)process_buffer_ptr,"Data:");
 252              		.loc 1 1073 0
 253 00da 7049     		ldr	r1, .L58+8
 254              	.LVL15:
 255 00dc 2046     		mov	r0, r4
 256 00de FFF7FEFF 		bl	strstr
 257              	.LVL16:
1074:Middlewares/ST/STM32_SPWF0xSy/wifi_module_uart_01.c **** 
1075:Middlewares/ST/STM32_SPWF0xSy/wifi_module_uart_01.c ****                     /*Need to find out which socket ID has data pending*/
1076:Middlewares/ST/STM32_SPWF0xSy/wifi_module_uart_01.c ****                     databytes_No[0] = *(ptr_offset + 5);
 258              		.loc 1 1076 0
 259 00e2 4179     		ldrb	r1, [r0, #5]	@ zero_extendqisi2
1077:Middlewares/ST/STM32_SPWF0xSy/wifi_module_uart_01.c **** 
1078:Middlewares/ST/STM32_SPWF0xSy/wifi_module_uart_01.c ****                     wifi_instances.wifi_event.socket_id = (databytes_No[0] - '0'); //Max number of 
 260              		.loc 1 1078 0
 261 00e4 6C4B     		ldr	r3, .L58+4
 262 00e6 93F82120 		ldrb	r2, [r3, #33]	@ zero_extendqisi2
 263 00ea 61F30302 		bfi	r2, r1, #0, #4
 264 00ee 83F82120 		strb	r2, [r3, #33]
 265              	.LVL17:
 266              	.L13:
1079:Middlewares/ST/STM32_SPWF0xSy/wifi_module_uart_01.c ****                     break;
1080:Middlewares/ST/STM32_SPWF0xSy/wifi_module_uart_01.c **** 
1081:Middlewares/ST/STM32_SPWF0xSy/wifi_module_uart_01.c ****                 case SockON_Server_Socket_Closed:
1082:Middlewares/ST/STM32_SPWF0xSy/wifi_module_uart_01.c ****                     //Find the id of the socket closed
1083:Middlewares/ST/STM32_SPWF0xSy/wifi_module_uart_01.c ****                     databytes_No[0] = *(ptr_offset + 22) ;
1084:Middlewares/ST/STM32_SPWF0xSy/wifi_module_uart_01.c ****                     wifi_instances.wifi_event.socket_id = databytes_No[0] - '0'; //Max number of so
1085:Middlewares/ST/STM32_SPWF0xSy/wifi_module_uart_01.c ****                     break;      
1086:Middlewares/ST/STM32_SPWF0xSy/wifi_module_uart_01.c **** 
1087:Middlewares/ST/STM32_SPWF0xSy/wifi_module_uart_01.c ****                 case SockD_Pending_Data:
1088:Middlewares/ST/STM32_SPWF0xSy/wifi_module_uart_01.c ****                     if(WiFi_Control_Variables.prevent_push_WIFI_event) 
1089:Middlewares/ST/STM32_SPWF0xSy/wifi_module_uart_01.c ****                       {
1090:Middlewares/ST/STM32_SPWF0xSy/wifi_module_uart_01.c ****                         #ifdef DEBUG_PRINT
1091:Middlewares/ST/STM32_SPWF0xSy/wifi_module_uart_01.c ****                         printf(">>IG\r\n");
1092:Middlewares/ST/STM32_SPWF0xSy/wifi_module_uart_01.c ****                         #endif
1093:Middlewares/ST/STM32_SPWF0xSy/wifi_module_uart_01.c ****                         return; ///exit if push is prevented
1094:Middlewares/ST/STM32_SPWF0xSy/wifi_module_uart_01.c ****                       }
1095:Middlewares/ST/STM32_SPWF0xSy/wifi_module_uart_01.c **** 
1096:Middlewares/ST/STM32_SPWF0xSy/wifi_module_uart_01.c ****                     /* @TODO: Do something to delay the de-Q of pending packets so that any further
1097:Middlewares/ST/STM32_SPWF0xSy/wifi_module_uart_01.c ****                               pending WIND64 packets are allowed to arrive and get Q-ed */
1098:Middlewares/ST/STM32_SPWF0xSy/wifi_module_uart_01.c **** 
1099:Middlewares/ST/STM32_SPWF0xSy/wifi_module_uart_01.c ****                     if(WiFi_Control_Variables.event_deQ_x_wind64)      //which means there is alrea
ARM GAS  D:\cygwin64\tmp\ccuGdUOt.s 			page 25


1100:Middlewares/ST/STM32_SPWF0xSy/wifi_module_uart_01.c ****                       {
1101:Middlewares/ST/STM32_SPWF0xSy/wifi_module_uart_01.c ****                         WiFi_Counter_Variables.wind64_DQ_wait=0;         //reset the timer
1102:Middlewares/ST/STM32_SPWF0xSy/wifi_module_uart_01.c ****                       }
1103:Middlewares/ST/STM32_SPWF0xSy/wifi_module_uart_01.c ****                     else
1104:Middlewares/ST/STM32_SPWF0xSy/wifi_module_uart_01.c ****                       {
1105:Middlewares/ST/STM32_SPWF0xSy/wifi_module_uart_01.c ****                         WiFi_Control_Variables.stop_event_dequeue = WIFI_TRUE;//Stop the event de-Q
1106:Middlewares/ST/STM32_SPWF0xSy/wifi_module_uart_01.c ****                         WiFi_Control_Variables.event_deQ_x_wind64 = WIFI_TRUE;//Set the flag
1107:Middlewares/ST/STM32_SPWF0xSy/wifi_module_uart_01.c ****                       }
1108:Middlewares/ST/STM32_SPWF0xSy/wifi_module_uart_01.c **** 
1109:Middlewares/ST/STM32_SPWF0xSy/wifi_module_uart_01.c ****                     //Start Reading data from Client Here.    
1110:Middlewares/ST/STM32_SPWF0xSy/wifi_module_uart_01.c ****                     // +WIND:64:Sockd Pending Data:1:130:130
1111:Middlewares/ST/STM32_SPWF0xSy/wifi_module_uart_01.c ****                     ptr_offset = (char *) strstr((const char *)process_buffer_ptr,"Data:");
1112:Middlewares/ST/STM32_SPWF0xSy/wifi_module_uart_01.c ****                     if(ptr_offset != NULL)
1113:Middlewares/ST/STM32_SPWF0xSy/wifi_module_uart_01.c ****                       {
1114:Middlewares/ST/STM32_SPWF0xSy/wifi_module_uart_01.c ****                         //Store the packet number
1115:Middlewares/ST/STM32_SPWF0xSy/wifi_module_uart_01.c ****                         databytes_No[0] = *(ptr_offset + 5) ;
1116:Middlewares/ST/STM32_SPWF0xSy/wifi_module_uart_01.c ****                         wifi_instances.wifi_event.wind64_pending_packet_no = databytes_No[0] - '0';
1117:Middlewares/ST/STM32_SPWF0xSy/wifi_module_uart_01.c **** 
1118:Middlewares/ST/STM32_SPWF0xSy/wifi_module_uart_01.c ****                         //And now find the data length
1119:Middlewares/ST/STM32_SPWF0xSy/wifi_module_uart_01.c ****                         databytes_No[0] = *(ptr_offset + 8) ;//points to number just after 2nd colo
1120:Middlewares/ST/STM32_SPWF0xSy/wifi_module_uart_01.c ****                         databytes_No[1] = *(ptr_offset + 9) ;
1121:Middlewares/ST/STM32_SPWF0xSy/wifi_module_uart_01.c ****                         databytes_No[2] = *(ptr_offset + 10) ;
1122:Middlewares/ST/STM32_SPWF0xSy/wifi_module_uart_01.c ****                         databytes_No[3] = *(ptr_offset + 11) ;
1123:Middlewares/ST/STM32_SPWF0xSy/wifi_module_uart_01.c ****               
1124:Middlewares/ST/STM32_SPWF0xSy/wifi_module_uart_01.c ****                         if( databytes_No[0] == ':')//then it is a 1 digit number
1125:Middlewares/ST/STM32_SPWF0xSy/wifi_module_uart_01.c ****                           {
1126:Middlewares/ST/STM32_SPWF0xSy/wifi_module_uart_01.c ****                             databytes_No[0] = *(ptr_offset + 7) ;
1127:Middlewares/ST/STM32_SPWF0xSy/wifi_module_uart_01.c ****                             databytes_No[1] = *(ptr_offset + 8) ;
1128:Middlewares/ST/STM32_SPWF0xSy/wifi_module_uart_01.c ****                           }
1129:Middlewares/ST/STM32_SPWF0xSy/wifi_module_uart_01.c ****                         else if(databytes_No[1] == ':')//two digit number
1130:Middlewares/ST/STM32_SPWF0xSy/wifi_module_uart_01.c ****                           {
1131:Middlewares/ST/STM32_SPWF0xSy/wifi_module_uart_01.c ****                             databytes_No[0] = *(ptr_offset + 7) ;
1132:Middlewares/ST/STM32_SPWF0xSy/wifi_module_uart_01.c ****                             databytes_No[1] = *(ptr_offset + 8) ;
1133:Middlewares/ST/STM32_SPWF0xSy/wifi_module_uart_01.c ****                             databytes_No[2] = *(ptr_offset + 9) ;
1134:Middlewares/ST/STM32_SPWF0xSy/wifi_module_uart_01.c ****                           }
1135:Middlewares/ST/STM32_SPWF0xSy/wifi_module_uart_01.c ****                         else if(databytes_No[2] == ':')//three digit number
1136:Middlewares/ST/STM32_SPWF0xSy/wifi_module_uart_01.c ****                           {
1137:Middlewares/ST/STM32_SPWF0xSy/wifi_module_uart_01.c ****                             databytes_No[0] = *(ptr_offset + 7) ;
1138:Middlewares/ST/STM32_SPWF0xSy/wifi_module_uart_01.c ****                             databytes_No[1] = *(ptr_offset + 8) ;
1139:Middlewares/ST/STM32_SPWF0xSy/wifi_module_uart_01.c ****                             databytes_No[2] = *(ptr_offset + 9) ;
1140:Middlewares/ST/STM32_SPWF0xSy/wifi_module_uart_01.c ****                             databytes_No[3] = *(ptr_offset + 10) ;
1141:Middlewares/ST/STM32_SPWF0xSy/wifi_module_uart_01.c ****                           }
1142:Middlewares/ST/STM32_SPWF0xSy/wifi_module_uart_01.c ****                         else if(databytes_No[3] == ':')//four digit number
1143:Middlewares/ST/STM32_SPWF0xSy/wifi_module_uart_01.c ****                           {
1144:Middlewares/ST/STM32_SPWF0xSy/wifi_module_uart_01.c ****                             databytes_No[0] = *(ptr_offset + 7) ;
1145:Middlewares/ST/STM32_SPWF0xSy/wifi_module_uart_01.c ****                             databytes_No[1] = *(ptr_offset + 8) ;
1146:Middlewares/ST/STM32_SPWF0xSy/wifi_module_uart_01.c ****                             databytes_No[2] = *(ptr_offset + 9) ;
1147:Middlewares/ST/STM32_SPWF0xSy/wifi_module_uart_01.c ****                             databytes_No[3] = *(ptr_offset + 10) ;
1148:Middlewares/ST/STM32_SPWF0xSy/wifi_module_uart_01.c ****                           }
1149:Middlewares/ST/STM32_SPWF0xSy/wifi_module_uart_01.c **** 
1150:Middlewares/ST/STM32_SPWF0xSy/wifi_module_uart_01.c ****                         if( databytes_No[1] == ':')
1151:Middlewares/ST/STM32_SPWF0xSy/wifi_module_uart_01.c ****                           {
1152:Middlewares/ST/STM32_SPWF0xSy/wifi_module_uart_01.c ****                             wifi_instances.wifi_event.data_length = databytes_No[0] - '0'; 
1153:Middlewares/ST/STM32_SPWF0xSy/wifi_module_uart_01.c ****                           }
1154:Middlewares/ST/STM32_SPWF0xSy/wifi_module_uart_01.c ****                         else if( databytes_No[2] == ':')
1155:Middlewares/ST/STM32_SPWF0xSy/wifi_module_uart_01.c ****                           {
1156:Middlewares/ST/STM32_SPWF0xSy/wifi_module_uart_01.c ****                             wifi_instances.wifi_event.data_length = (((databytes_No[0] - '0') * 10 
ARM GAS  D:\cygwin64\tmp\ccuGdUOt.s 			page 26


1157:Middlewares/ST/STM32_SPWF0xSy/wifi_module_uart_01.c ****                           }
1158:Middlewares/ST/STM32_SPWF0xSy/wifi_module_uart_01.c ****                         else if( databytes_No[3] == ':')
1159:Middlewares/ST/STM32_SPWF0xSy/wifi_module_uart_01.c ****                           {
1160:Middlewares/ST/STM32_SPWF0xSy/wifi_module_uart_01.c ****                             wifi_instances.wifi_event.data_length = (((databytes_No[0] - '0') * 100
1161:Middlewares/ST/STM32_SPWF0xSy/wifi_module_uart_01.c ****                           }
1162:Middlewares/ST/STM32_SPWF0xSy/wifi_module_uart_01.c ****                         else //it's a 4-digit number
1163:Middlewares/ST/STM32_SPWF0xSy/wifi_module_uart_01.c ****                           {
1164:Middlewares/ST/STM32_SPWF0xSy/wifi_module_uart_01.c ****                             wifi_instances.wifi_event.data_length = (((databytes_No[0] - '0') * 100
1165:Middlewares/ST/STM32_SPWF0xSy/wifi_module_uart_01.c ****                           }            
1166:Middlewares/ST/STM32_SPWF0xSy/wifi_module_uart_01.c **** 
1167:Middlewares/ST/STM32_SPWF0xSy/wifi_module_uart_01.c ****                         /*WIND:64 came after pop of previous event and switch to data mode was issu
1168:Middlewares/ST/STM32_SPWF0xSy/wifi_module_uart_01.c ****                         IO_status_flag.WIND64_count++;           //Count of the number of queued WI
1169:Middlewares/ST/STM32_SPWF0xSy/wifi_module_uart_01.c ****                       }
1170:Middlewares/ST/STM32_SPWF0xSy/wifi_module_uart_01.c ****                     break;
1171:Middlewares/ST/STM32_SPWF0xSy/wifi_module_uart_01.c **** 
1172:Middlewares/ST/STM32_SPWF0xSy/wifi_module_uart_01.c ****                 case In_Command_Mode:
1173:Middlewares/ST/STM32_SPWF0xSy/wifi_module_uart_01.c ****                     IO_status_flag.command_mode= WIFI_TRUE;
1174:Middlewares/ST/STM32_SPWF0xSy/wifi_module_uart_01.c ****                     IO_status_flag.data_mode= WIFI_FALSE;
1175:Middlewares/ST/STM32_SPWF0xSy/wifi_module_uart_01.c ****                     IO_status_flag.WIND64_count=0;     //reset the WIND64 count since the previous 
1176:Middlewares/ST/STM32_SPWF0xSy/wifi_module_uart_01.c ****                     WiFi_Control_Variables.queue_wifi_wind_message = WIFI_FALSE;
1177:Middlewares/ST/STM32_SPWF0xSy/wifi_module_uart_01.c ****                     WiFi_Control_Variables.prevent_push_WIFI_event = WIFI_TRUE;
1178:Middlewares/ST/STM32_SPWF0xSy/wifi_module_uart_01.c ****                     break;
1179:Middlewares/ST/STM32_SPWF0xSy/wifi_module_uart_01.c **** 
1180:Middlewares/ST/STM32_SPWF0xSy/wifi_module_uart_01.c ****                 case In_Data_Mode:
1181:Middlewares/ST/STM32_SPWF0xSy/wifi_module_uart_01.c ****                     IO_status_flag.command_mode = WIFI_FALSE;
1182:Middlewares/ST/STM32_SPWF0xSy/wifi_module_uart_01.c ****                     IO_status_flag.data_mode = WIFI_TRUE;
1183:Middlewares/ST/STM32_SPWF0xSy/wifi_module_uart_01.c ****                     WiFi_Control_Variables.queue_wifi_wind_message = WIFI_FALSE;
1184:Middlewares/ST/STM32_SPWF0xSy/wifi_module_uart_01.c ****                     WiFi_Control_Variables.prevent_push_WIFI_event = WIFI_TRUE;
1185:Middlewares/ST/STM32_SPWF0xSy/wifi_module_uart_01.c **** 
1186:Middlewares/ST/STM32_SPWF0xSy/wifi_module_uart_01.c ****                     if(WiFi_Control_Variables.switch_by_default_to_command_mode == WIFI_TRUE)
1187:Middlewares/ST/STM32_SPWF0xSy/wifi_module_uart_01.c ****                       {
1188:Middlewares/ST/STM32_SPWF0xSy/wifi_module_uart_01.c ****                         if(!IO_status_flag.command_mode)
1189:Middlewares/ST/STM32_SPWF0xSy/wifi_module_uart_01.c ****                           {
1190:Middlewares/ST/STM32_SPWF0xSy/wifi_module_uart_01.c ****                             WiFi_switch_to_command_mode();//switch by default
1191:Middlewares/ST/STM32_SPWF0xSy/wifi_module_uart_01.c ****                           }    
1192:Middlewares/ST/STM32_SPWF0xSy/wifi_module_uart_01.c ****                       }
1193:Middlewares/ST/STM32_SPWF0xSy/wifi_module_uart_01.c ****                     if(WiFi_Control_Variables.data_pending_sockD == WIFI_TRUE)
1194:Middlewares/ST/STM32_SPWF0xSy/wifi_module_uart_01.c ****                       {
1195:Middlewares/ST/STM32_SPWF0xSy/wifi_module_uart_01.c ****                          WiFi_Counter_Variables.last_process_buffer_index =5;
1196:Middlewares/ST/STM32_SPWF0xSy/wifi_module_uart_01.c ****                          WiFi_Control_Variables.enable_receive_data_chunk = WIFI_TRUE;       // rea
1197:Middlewares/ST/STM32_SPWF0xSy/wifi_module_uart_01.c ****                          WiFi_Control_Variables.enable_sock_read = WIFI_TRUE;//now data will start 
1198:Middlewares/ST/STM32_SPWF0xSy/wifi_module_uart_01.c ****                         //Set the data-length to read
1199:Middlewares/ST/STM32_SPWF0xSy/wifi_module_uart_01.c ****                         WiFi_Counter_Variables.SockON_Data_Length = WiFi_Counter_Variables.number_o
1200:Middlewares/ST/STM32_SPWF0xSy/wifi_module_uart_01.c ****                       }
1201:Middlewares/ST/STM32_SPWF0xSy/wifi_module_uart_01.c ****                     break;
1202:Middlewares/ST/STM32_SPWF0xSy/wifi_module_uart_01.c **** 
1203:Middlewares/ST/STM32_SPWF0xSy/wifi_module_uart_01.c ****                 case WiFi__MiniAP_Associated:
1204:Middlewares/ST/STM32_SPWF0xSy/wifi_module_uart_01.c ****                     //Find out which client joined by parsing the WIND //+WIND:28
1205:Middlewares/ST/STM32_SPWF0xSy/wifi_module_uart_01.c ****                     ptr_offset = (char *) strstr((const char *)process_buffer_ptr,"+WIND:28");
1206:Middlewares/ST/STM32_SPWF0xSy/wifi_module_uart_01.c ****                     for(i=17;i<=33;i++)
1207:Middlewares/ST/STM32_SPWF0xSy/wifi_module_uart_01.c ****                     WiFi_Counter_Variables.client_MAC_address[i-17] = *(ptr_offset + i) ;    
1208:Middlewares/ST/STM32_SPWF0xSy/wifi_module_uart_01.c ****                     IO_status_flag.WiFi_WIND_State = WiFiAPClientJoined;
1209:Middlewares/ST/STM32_SPWF0xSy/wifi_module_uart_01.c ****                     break;
1210:Middlewares/ST/STM32_SPWF0xSy/wifi_module_uart_01.c **** 
1211:Middlewares/ST/STM32_SPWF0xSy/wifi_module_uart_01.c ****                 case WiFi_MiniAP_Disassociated:
1212:Middlewares/ST/STM32_SPWF0xSy/wifi_module_uart_01.c ****                     //Find out which client left by parsing the WIND //+WIND:72
1213:Middlewares/ST/STM32_SPWF0xSy/wifi_module_uart_01.c ****                     ptr_offset = (char *) strstr((const char *)process_buffer_ptr,"+WIND:72");
ARM GAS  D:\cygwin64\tmp\ccuGdUOt.s 			page 27


1214:Middlewares/ST/STM32_SPWF0xSy/wifi_module_uart_01.c ****                     for(i=17;i<=33;i++)
1215:Middlewares/ST/STM32_SPWF0xSy/wifi_module_uart_01.c ****                     WiFi_Counter_Variables.client_MAC_address[i-17] = *(ptr_offset + i) ;
1216:Middlewares/ST/STM32_SPWF0xSy/wifi_module_uart_01.c ****                     IO_status_flag.WiFi_WIND_State = WiFiAPClientLeft;
1217:Middlewares/ST/STM32_SPWF0xSy/wifi_module_uart_01.c ****                     break;
1218:Middlewares/ST/STM32_SPWF0xSy/wifi_module_uart_01.c ****                     
1219:Middlewares/ST/STM32_SPWF0xSy/wifi_module_uart_01.c ****                 case Incoming_socket_client:
1220:Middlewares/ST/STM32_SPWF0xSy/wifi_module_uart_01.c ****                 case Outgoing_socket_client:
1221:Middlewares/ST/STM32_SPWF0xSy/wifi_module_uart_01.c ****                     if(WiFi_Control_Variables.prevent_push_WIFI_event)
1222:Middlewares/ST/STM32_SPWF0xSy/wifi_module_uart_01.c ****                       WiFi_Control_Variables.prevent_push_WIFI_event = WIFI_FALSE;
1223:Middlewares/ST/STM32_SPWF0xSy/wifi_module_uart_01.c ****                      break;
1224:Middlewares/ST/STM32_SPWF0xSy/wifi_module_uart_01.c **** 
1225:Middlewares/ST/STM32_SPWF0xSy/wifi_module_uart_01.c ****                 case Remote_Configuration:
1226:Middlewares/ST/STM32_SPWF0xSy/wifi_module_uart_01.c ****                     wifi_connected = 0;
1227:Middlewares/ST/STM32_SPWF0xSy/wifi_module_uart_01.c ****                     WiFi_Control_Variables.queue_wifi_wind_message = WIFI_FALSE;
1228:Middlewares/ST/STM32_SPWF0xSy/wifi_module_uart_01.c ****                     WiFi_Control_Variables.prevent_push_WIFI_event = WIFI_TRUE;
1229:Middlewares/ST/STM32_SPWF0xSy/wifi_module_uart_01.c ****                     break;
1230:Middlewares/ST/STM32_SPWF0xSy/wifi_module_uart_01.c ****                     
1231:Middlewares/ST/STM32_SPWF0xSy/wifi_module_uart_01.c ****                 case Going_Into_Standby:
1232:Middlewares/ST/STM32_SPWF0xSy/wifi_module_uart_01.c ****                     wifi_instances.wifi_event.event = WIFI_STANDBY_CONFIG_EVENT;
1233:Middlewares/ST/STM32_SPWF0xSy/wifi_module_uart_01.c ****                     WiFi_Control_Variables.in_standby_mode = WIFI_TRUE;
1234:Middlewares/ST/STM32_SPWF0xSy/wifi_module_uart_01.c ****                     break;
1235:Middlewares/ST/STM32_SPWF0xSy/wifi_module_uart_01.c ****                     
1236:Middlewares/ST/STM32_SPWF0xSy/wifi_module_uart_01.c ****                 case Resuming_From_Standby:
1237:Middlewares/ST/STM32_SPWF0xSy/wifi_module_uart_01.c ****                     wifi_instances.wifi_event.event = WIFI_RESUME_CONFIG_EVENT;
1238:Middlewares/ST/STM32_SPWF0xSy/wifi_module_uart_01.c ****                     WiFi_Control_Variables.in_standby_mode = WIFI_FALSE;
1239:Middlewares/ST/STM32_SPWF0xSy/wifi_module_uart_01.c ****                     break;
1240:Middlewares/ST/STM32_SPWF0xSy/wifi_module_uart_01.c ****                     
1241:Middlewares/ST/STM32_SPWF0xSy/wifi_module_uart_01.c ****                 case Console_Active:           // Queueing of these events not required.
1242:Middlewares/ST/STM32_SPWF0xSy/wifi_module_uart_01.c ****                 case Poweron:
1243:Middlewares/ST/STM32_SPWF0xSy/wifi_module_uart_01.c ****                 case WiFi_Reset:
1244:Middlewares/ST/STM32_SPWF0xSy/wifi_module_uart_01.c ****                 case Watchdog_Running:
1245:Middlewares/ST/STM32_SPWF0xSy/wifi_module_uart_01.c ****                 case Watchdog_Terminating:
1246:Middlewares/ST/STM32_SPWF0xSy/wifi_module_uart_01.c ****                 case SysTickConfigure:
1247:Middlewares/ST/STM32_SPWF0xSy/wifi_module_uart_01.c ****                 case CopyrightInfo:
1248:Middlewares/ST/STM32_SPWF0xSy/wifi_module_uart_01.c ****                 case WiFi_BSS_Regained:
1249:Middlewares/ST/STM32_SPWF0xSy/wifi_module_uart_01.c ****                 case WiFi_Signal_OK:
1250:Middlewares/ST/STM32_SPWF0xSy/wifi_module_uart_01.c ****                 case FW_update:
1251:Middlewares/ST/STM32_SPWF0xSy/wifi_module_uart_01.c ****                 case Encryption_key_Not_Recognized:
1252:Middlewares/ST/STM32_SPWF0xSy/wifi_module_uart_01.c ****                 case WiFi_Join:
1253:Middlewares/ST/STM32_SPWF0xSy/wifi_module_uart_01.c ****                 case WiFi_Scanning:
1254:Middlewares/ST/STM32_SPWF0xSy/wifi_module_uart_01.c ****                 case WiFi_Association_Successful:
1255:Middlewares/ST/STM32_SPWF0xSy/wifi_module_uart_01.c ****                 case WiFi_BSS_LOST:
1256:Middlewares/ST/STM32_SPWF0xSy/wifi_module_uart_01.c ****                 case WiFi_NETWORK_LOST:
1257:Middlewares/ST/STM32_SPWF0xSy/wifi_module_uart_01.c ****                 case WiFi_Unhandled_Event:
1258:Middlewares/ST/STM32_SPWF0xSy/wifi_module_uart_01.c ****                 case WiFi_UNHANDLED:
1259:Middlewares/ST/STM32_SPWF0xSy/wifi_module_uart_01.c ****                 case WiFi_MiniAP_Mode :
1260:Middlewares/ST/STM32_SPWF0xSy/wifi_module_uart_01.c ****                 case DOT11_AUTHILLEGAL:
1261:Middlewares/ST/STM32_SPWF0xSy/wifi_module_uart_01.c ****                 case Creating_PSK:
1262:Middlewares/ST/STM32_SPWF0xSy/wifi_module_uart_01.c ****                 case WPA_Terminated :
1263:Middlewares/ST/STM32_SPWF0xSy/wifi_module_uart_01.c ****                 case WPA_Supplicant_Failed:
1264:Middlewares/ST/STM32_SPWF0xSy/wifi_module_uart_01.c ****                 case WPA_Handshake_Complete:
1265:Middlewares/ST/STM32_SPWF0xSy/wifi_module_uart_01.c ****                 case GPIO_line:
1266:Middlewares/ST/STM32_SPWF0xSy/wifi_module_uart_01.c ****                 case Wakeup:
1267:Middlewares/ST/STM32_SPWF0xSy/wifi_module_uart_01.c ****                 case Factory_debug:
1268:Middlewares/ST/STM32_SPWF0xSy/wifi_module_uart_01.c ****                 case Low_Power_Mode_Enabled:
1269:Middlewares/ST/STM32_SPWF0xSy/wifi_module_uart_01.c ****                 case Rejected_Found_Network:
1270:Middlewares/ST/STM32_SPWF0xSy/wifi_module_uart_01.c ****                     WiFi_Control_Variables.queue_wifi_wind_message = WIFI_FALSE;
ARM GAS  D:\cygwin64\tmp\ccuGdUOt.s 			page 28


1271:Middlewares/ST/STM32_SPWF0xSy/wifi_module_uart_01.c ****                     WiFi_Control_Variables.prevent_push_WIFI_event = WIFI_TRUE;
1272:Middlewares/ST/STM32_SPWF0xSy/wifi_module_uart_01.c ****                     break;
1273:Middlewares/ST/STM32_SPWF0xSy/wifi_module_uart_01.c **** 
1274:Middlewares/ST/STM32_SPWF0xSy/wifi_module_uart_01.c ****                   //Queue these Events.
1275:Middlewares/ST/STM32_SPWF0xSy/wifi_module_uart_01.c ****                 case MallocFailed:                                          
1276:Middlewares/ST/STM32_SPWF0xSy/wifi_module_uart_01.c ****                     if(WiFi_Control_Variables.stop_event_dequeue)
1277:Middlewares/ST/STM32_SPWF0xSy/wifi_module_uart_01.c ****                       WiFi_Control_Variables.stop_event_dequeue = WIFI_FALSE;
1278:Middlewares/ST/STM32_SPWF0xSy/wifi_module_uart_01.c ****                     break;
1279:Middlewares/ST/STM32_SPWF0xSy/wifi_module_uart_01.c ****                 case Heap_Too_Small:            
1280:Middlewares/ST/STM32_SPWF0xSy/wifi_module_uart_01.c ****                 case WiFi_Hardware_Dead:
1281:Middlewares/ST/STM32_SPWF0xSy/wifi_module_uart_01.c ****                 case Hard_Fault:
1282:Middlewares/ST/STM32_SPWF0xSy/wifi_module_uart_01.c ****                 case StackOverflow:                   
1283:Middlewares/ST/STM32_SPWF0xSy/wifi_module_uart_01.c ****                 case Error:
1284:Middlewares/ST/STM32_SPWF0xSy/wifi_module_uart_01.c ****                 case WiFi_PS_Mode_Failure:
1285:Middlewares/ST/STM32_SPWF0xSy/wifi_module_uart_01.c ****                 case WiFi_Signal_LOW:
1286:Middlewares/ST/STM32_SPWF0xSy/wifi_module_uart_01.c ****                 case JOINFAILED:
1287:Middlewares/ST/STM32_SPWF0xSy/wifi_module_uart_01.c ****                 case SCANBLEWUP:
1288:Middlewares/ST/STM32_SPWF0xSy/wifi_module_uart_01.c ****                 case SCANFAILED:
1289:Middlewares/ST/STM32_SPWF0xSy/wifi_module_uart_01.c ****                 case WiFi_Started_MiniAP_Mode:
1290:Middlewares/ST/STM32_SPWF0xSy/wifi_module_uart_01.c ****                 case Start_Failed :
1291:Middlewares/ST/STM32_SPWF0xSy/wifi_module_uart_01.c ****                 case WiFi_EXCEPTION :
1292:Middlewares/ST/STM32_SPWF0xSy/wifi_module_uart_01.c ****                 case WiFi_Hardware_Started :
1293:Middlewares/ST/STM32_SPWF0xSy/wifi_module_uart_01.c ****                 case Scan_Complete:
1294:Middlewares/ST/STM32_SPWF0xSy/wifi_module_uart_01.c ****                 case WiFi_UNHANDLED_IND:
1295:Middlewares/ST/STM32_SPWF0xSy/wifi_module_uart_01.c ****                 case WiFi_Powered_Down:
1296:Middlewares/ST/STM32_SPWF0xSy/wifi_module_uart_01.c ****                 case WiFi_Deauthentication:
1297:Middlewares/ST/STM32_SPWF0xSy/wifi_module_uart_01.c ****                 case WiFi_Disassociation:
1298:Middlewares/ST/STM32_SPWF0xSy/wifi_module_uart_01.c ****                 case RX_MGMT:
1299:Middlewares/ST/STM32_SPWF0xSy/wifi_module_uart_01.c ****                 case RX_DATA:
1300:Middlewares/ST/STM32_SPWF0xSy/wifi_module_uart_01.c ****                 case RX_UNK:
1301:Middlewares/ST/STM32_SPWF0xSy/wifi_module_uart_01.c ****                      break;
1302:Middlewares/ST/STM32_SPWF0xSy/wifi_module_uart_01.c ****                 default:
1303:Middlewares/ST/STM32_SPWF0xSy/wifi_module_uart_01.c ****                      break;
1304:Middlewares/ST/STM32_SPWF0xSy/wifi_module_uart_01.c ****               }
1305:Middlewares/ST/STM32_SPWF0xSy/wifi_module_uart_01.c ****            memset(process_buffer_ptr, 0x00, MAX_BUFFER_GLOBAL);
 267              		.loc 1 1305 0
 268 00f2 4FF40072 		mov	r2, #512
 269 00f6 0021     		movs	r1, #0
 270 00f8 2046     		mov	r0, r4
 271 00fa FFF7FEFF 		bl	memset
 272              	.LVL18:
 273              	.L9:
1306:Middlewares/ST/STM32_SPWF0xSy/wifi_module_uart_01.c ****         }
1307:Middlewares/ST/STM32_SPWF0xSy/wifi_module_uart_01.c ****      }
1308:Middlewares/ST/STM32_SPWF0xSy/wifi_module_uart_01.c **** }
 274              		.loc 1 1308 0
 275 00fe 03B0     		add	sp, sp, #12
 276              	.LCFI3:
 277              		.cfi_remember_state
 278              		.cfi_def_cfa_offset 12
 279              		@ sp needed
 280 0100 30BD     		pop	{r4, r5, pc}
 281              	.LVL19:
 282              	.L20:
 283              	.LCFI4:
 284              		.cfi_restore_state
1083:Middlewares/ST/STM32_SPWF0xSy/wifi_module_uart_01.c ****                     wifi_instances.wifi_event.socket_id = databytes_No[0] - '0'; //Max number of so
ARM GAS  D:\cygwin64\tmp\ccuGdUOt.s 			page 29


 285              		.loc 1 1083 0
 286 0102 897D     		ldrb	r1, [r1, #22]	@ zero_extendqisi2
 287              	.LVL20:
1084:Middlewares/ST/STM32_SPWF0xSy/wifi_module_uart_01.c ****                     break;      
 288              		.loc 1 1084 0
 289 0104 644B     		ldr	r3, .L58+4
 290              	.LVL21:
 291 0106 93F82120 		ldrb	r2, [r3, #33]	@ zero_extendqisi2
 292 010a 61F30302 		bfi	r2, r1, #0, #4
 293 010e 83F82120 		strb	r2, [r3, #33]
1085:Middlewares/ST/STM32_SPWF0xSy/wifi_module_uart_01.c **** 
 294              		.loc 1 1085 0
 295 0112 EEE7     		b	.L13
 296              	.LVL22:
 297              	.L24:
1088:Middlewares/ST/STM32_SPWF0xSy/wifi_module_uart_01.c ****                       {
 298              		.loc 1 1088 0
 299 0114 624B     		ldr	r3, .L58+12
 300              	.LVL23:
 301 0116 1B79     		ldrb	r3, [r3, #4]	@ zero_extendqisi2
 302 0118 13F0010F 		tst	r3, #1
 303 011c 30D1     		bne	.L50
1099:Middlewares/ST/STM32_SPWF0xSy/wifi_module_uart_01.c ****                       {
 304              		.loc 1 1099 0
 305 011e 13F0020F 		tst	r3, #2
 306 0122 31D0     		beq	.L30
1101:Middlewares/ST/STM32_SPWF0xSy/wifi_module_uart_01.c ****                       }
 307              		.loc 1 1101 0
 308 0124 0022     		movs	r2, #0
 309 0126 5F4B     		ldr	r3, .L58+16
 310 0128 C3F8AC20 		str	r2, [r3, #172]
 311              	.L31:
1111:Middlewares/ST/STM32_SPWF0xSy/wifi_module_uart_01.c ****                     if(ptr_offset != NULL)
 312              		.loc 1 1111 0
 313 012c 5B49     		ldr	r1, .L58+8
 314              	.LVL24:
 315 012e 2046     		mov	r0, r4
 316 0130 FFF7FEFF 		bl	strstr
 317              	.LVL25:
1112:Middlewares/ST/STM32_SPWF0xSy/wifi_module_uart_01.c ****                       {
 318              		.loc 1 1112 0
 319 0134 0346     		mov	r3, r0
 320 0136 0028     		cmp	r0, #0
 321 0138 DBD0     		beq	.L13
1115:Middlewares/ST/STM32_SPWF0xSy/wifi_module_uart_01.c ****                         wifi_instances.wifi_event.wind64_pending_packet_no = databytes_No[0] - '0';
 322              		.loc 1 1115 0
 323 013a 4279     		ldrb	r2, [r0, #5]	@ zero_extendqisi2
1116:Middlewares/ST/STM32_SPWF0xSy/wifi_module_uart_01.c **** 
 324              		.loc 1 1116 0
 325 013c 303A     		subs	r2, r2, #48
 326 013e 5649     		ldr	r1, .L58+4
 327 0140 81F82220 		strb	r2, [r1, #34]
1119:Middlewares/ST/STM32_SPWF0xSy/wifi_module_uart_01.c ****                         databytes_No[1] = *(ptr_offset + 9) ;
 328              		.loc 1 1119 0
 329 0144 027A     		ldrb	r2, [r0, #8]	@ zero_extendqisi2
 330 0146 8DF80420 		strb	r2, [sp, #4]
1120:Middlewares/ST/STM32_SPWF0xSy/wifi_module_uart_01.c ****                         databytes_No[2] = *(ptr_offset + 10) ;
ARM GAS  D:\cygwin64\tmp\ccuGdUOt.s 			page 30


 331              		.loc 1 1120 0
 332 014a 417A     		ldrb	r1, [r0, #9]	@ zero_extendqisi2
 333 014c 8DF80510 		strb	r1, [sp, #5]
1121:Middlewares/ST/STM32_SPWF0xSy/wifi_module_uart_01.c ****                         databytes_No[3] = *(ptr_offset + 11) ;
 334              		.loc 1 1121 0
 335 0150 807A     		ldrb	r0, [r0, #10]	@ zero_extendqisi2
 336              	.LVL26:
 337 0152 8DF80600 		strb	r0, [sp, #6]
1122:Middlewares/ST/STM32_SPWF0xSy/wifi_module_uart_01.c ****               
 338              		.loc 1 1122 0
 339 0156 DD7A     		ldrb	r5, [r3, #11]	@ zero_extendqisi2
 340 0158 8DF80750 		strb	r5, [sp, #7]
1124:Middlewares/ST/STM32_SPWF0xSy/wifi_module_uart_01.c ****                           {
 341              		.loc 1 1124 0
 342 015c 3A2A     		cmp	r2, #58
 343 015e 1DD0     		beq	.L51
1129:Middlewares/ST/STM32_SPWF0xSy/wifi_module_uart_01.c ****                           {
 344              		.loc 1 1129 0
 345 0160 3A29     		cmp	r1, #58
 346 0162 4BD0     		beq	.L52
1135:Middlewares/ST/STM32_SPWF0xSy/wifi_module_uart_01.c ****                           {
 347              		.loc 1 1135 0
 348 0164 3A28     		cmp	r0, #58
 349 0166 51D0     		beq	.L53
1142:Middlewares/ST/STM32_SPWF0xSy/wifi_module_uart_01.c ****                           {
 350              		.loc 1 1142 0
 351 0168 3A2D     		cmp	r5, #58
 352 016a 1CD1     		bne	.L33
1144:Middlewares/ST/STM32_SPWF0xSy/wifi_module_uart_01.c ****                             databytes_No[1] = *(ptr_offset + 8) ;
 353              		.loc 1 1144 0
 354 016c DB79     		ldrb	r3, [r3, #7]	@ zero_extendqisi2
 355              	.LVL27:
 356 016e 8DF80430 		strb	r3, [sp, #4]
1145:Middlewares/ST/STM32_SPWF0xSy/wifi_module_uart_01.c ****                             databytes_No[2] = *(ptr_offset + 9) ;
 357              		.loc 1 1145 0
 358 0172 8DF80520 		strb	r2, [sp, #5]
1146:Middlewares/ST/STM32_SPWF0xSy/wifi_module_uart_01.c ****                             databytes_No[3] = *(ptr_offset + 10) ;
 359              		.loc 1 1146 0
 360 0176 8DF80610 		strb	r1, [sp, #6]
1147:Middlewares/ST/STM32_SPWF0xSy/wifi_module_uart_01.c ****                           }
 361              		.loc 1 1147 0
 362 017a 8DF80700 		strb	r0, [sp, #7]
 363 017e 12E0     		b	.L33
 364              	.LVL28:
 365              	.L50:
1091:Middlewares/ST/STM32_SPWF0xSy/wifi_module_uart_01.c ****                         #endif
 366              		.loc 1 1091 0
 367 0180 4948     		ldr	r0, .L58+20
 368 0182 FFF7FEFF 		bl	puts
 369              	.LVL29:
 370 0186 BAE7     		b	.L9
 371              	.LVL30:
 372              	.L30:
1105:Middlewares/ST/STM32_SPWF0xSy/wifi_module_uart_01.c ****                         WiFi_Control_Variables.event_deQ_x_wind64 = WIFI_TRUE;//Set the flag
 373              		.loc 1 1105 0
 374 0188 454B     		ldr	r3, .L58+12
 375 018a 1A78     		ldrb	r2, [r3]	@ zero_extendqisi2
ARM GAS  D:\cygwin64\tmp\ccuGdUOt.s 			page 31


 376 018c 42F00802 		orr	r2, r2, #8
 377 0190 1A70     		strb	r2, [r3]
1106:Middlewares/ST/STM32_SPWF0xSy/wifi_module_uart_01.c ****                       }
 378              		.loc 1 1106 0
 379 0192 1A79     		ldrb	r2, [r3, #4]	@ zero_extendqisi2
 380 0194 42F00202 		orr	r2, r2, #2
 381 0198 1A71     		strb	r2, [r3, #4]
 382 019a C7E7     		b	.L31
 383              	.LVL31:
 384              	.L51:
1126:Middlewares/ST/STM32_SPWF0xSy/wifi_module_uart_01.c ****                             databytes_No[1] = *(ptr_offset + 8) ;
 385              		.loc 1 1126 0
 386 019c DB79     		ldrb	r3, [r3, #7]	@ zero_extendqisi2
 387              	.LVL32:
 388 019e 8DF80430 		strb	r3, [sp, #4]
1127:Middlewares/ST/STM32_SPWF0xSy/wifi_module_uart_01.c ****                           }
 389              		.loc 1 1127 0
 390 01a2 8DF80520 		strb	r2, [sp, #5]
 391              	.L33:
1150:Middlewares/ST/STM32_SPWF0xSy/wifi_module_uart_01.c ****                           {
 392              		.loc 1 1150 0
 393 01a6 9DF80530 		ldrb	r3, [sp, #5]	@ zero_extendqisi2
 394 01aa 3A2B     		cmp	r3, #58
 395 01ac 38D0     		beq	.L54
1154:Middlewares/ST/STM32_SPWF0xSy/wifi_module_uart_01.c ****                           {
 396              		.loc 1 1154 0
 397 01ae 9DF80620 		ldrb	r2, [sp, #6]	@ zero_extendqisi2
 398 01b2 3A2A     		cmp	r2, #58
 399 01b4 3AD0     		beq	.L55
1158:Middlewares/ST/STM32_SPWF0xSy/wifi_module_uart_01.c ****                           {
 400              		.loc 1 1158 0
 401 01b6 9DF80710 		ldrb	r1, [sp, #7]	@ zero_extendqisi2
 402 01ba 3A29     		cmp	r1, #58
 403 01bc 41D0     		beq	.L56
1164:Middlewares/ST/STM32_SPWF0xSy/wifi_module_uart_01.c ****                           }            
 404              		.loc 1 1164 0
 405 01be 9DF80400 		ldrb	r0, [sp, #4]	@ zero_extendqisi2
 406 01c2 3038     		subs	r0, r0, #48
 407 01c4 303B     		subs	r3, r3, #48
 408 01c6 C0EB4015 		rsb	r5, r0, r0, lsl #5
 409 01ca 00EB8500 		add	r0, r0, r5, lsl #2
 410 01ce 03EB8303 		add	r3, r3, r3, lsl #2
 411 01d2 03EB8303 		add	r3, r3, r3, lsl #2
 412 01d6 9B00     		lsls	r3, r3, #2
 413 01d8 03EBC003 		add	r3, r3, r0, lsl #3
 414 01dc 9BB2     		uxth	r3, r3
 415 01de 303A     		subs	r2, r2, #48
 416 01e0 02EB8202 		add	r2, r2, r2, lsl #2
 417 01e4 03EB4203 		add	r3, r3, r2, lsl #1
 418 01e8 9BB2     		uxth	r3, r3
 419 01ea 0B44     		add	r3, r3, r1
 420 01ec 303B     		subs	r3, r3, #48
 421 01ee 2A4A     		ldr	r2, .L58+4
 422 01f0 9384     		strh	r3, [r2, #36]	@ movhi
 423              	.L37:
1168:Middlewares/ST/STM32_SPWF0xSy/wifi_module_uart_01.c ****                       }
 424              		.loc 1 1168 0
ARM GAS  D:\cygwin64\tmp\ccuGdUOt.s 			page 32


 425 01f2 2E4A     		ldr	r2, .L58+24
 426 01f4 5368     		ldr	r3, [r2, #4]
 427 01f6 0133     		adds	r3, r3, #1
 428 01f8 5360     		str	r3, [r2, #4]
 429 01fa 7AE7     		b	.L13
 430              	.LVL33:
 431              	.L52:
1131:Middlewares/ST/STM32_SPWF0xSy/wifi_module_uart_01.c ****                             databytes_No[1] = *(ptr_offset + 8) ;
 432              		.loc 1 1131 0
 433 01fc DB79     		ldrb	r3, [r3, #7]	@ zero_extendqisi2
 434              	.LVL34:
 435 01fe 8DF80430 		strb	r3, [sp, #4]
1132:Middlewares/ST/STM32_SPWF0xSy/wifi_module_uart_01.c ****                             databytes_No[2] = *(ptr_offset + 9) ;
 436              		.loc 1 1132 0
 437 0202 8DF80520 		strb	r2, [sp, #5]
1133:Middlewares/ST/STM32_SPWF0xSy/wifi_module_uart_01.c ****                           }
 438              		.loc 1 1133 0
 439 0206 8DF80610 		strb	r1, [sp, #6]
 440 020a CCE7     		b	.L33
 441              	.LVL35:
 442              	.L53:
1137:Middlewares/ST/STM32_SPWF0xSy/wifi_module_uart_01.c ****                             databytes_No[1] = *(ptr_offset + 8) ;
 443              		.loc 1 1137 0
 444 020c DB79     		ldrb	r3, [r3, #7]	@ zero_extendqisi2
 445              	.LVL36:
 446 020e 8DF80430 		strb	r3, [sp, #4]
1138:Middlewares/ST/STM32_SPWF0xSy/wifi_module_uart_01.c ****                             databytes_No[2] = *(ptr_offset + 9) ;
 447              		.loc 1 1138 0
 448 0212 8DF80520 		strb	r2, [sp, #5]
1139:Middlewares/ST/STM32_SPWF0xSy/wifi_module_uart_01.c ****                             databytes_No[3] = *(ptr_offset + 10) ;
 449              		.loc 1 1139 0
 450 0216 8DF80610 		strb	r1, [sp, #6]
1140:Middlewares/ST/STM32_SPWF0xSy/wifi_module_uart_01.c ****                           }
 451              		.loc 1 1140 0
 452 021a 8DF80700 		strb	r0, [sp, #7]
 453 021e C2E7     		b	.L33
 454              	.L54:
1152:Middlewares/ST/STM32_SPWF0xSy/wifi_module_uart_01.c ****                           }
 455              		.loc 1 1152 0
 456 0220 9DF80430 		ldrb	r3, [sp, #4]	@ zero_extendqisi2
 457 0224 303B     		subs	r3, r3, #48
 458 0226 1C4A     		ldr	r2, .L58+4
 459 0228 9384     		strh	r3, [r2, #36]	@ movhi
 460 022a E2E7     		b	.L37
 461              	.L55:
1156:Middlewares/ST/STM32_SPWF0xSy/wifi_module_uart_01.c ****                           }
 462              		.loc 1 1156 0
 463 022c 9DF80420 		ldrb	r2, [sp, #4]	@ zero_extendqisi2
 464 0230 303A     		subs	r2, r2, #48
 465 0232 02EB8202 		add	r2, r2, r2, lsl #2
 466 0236 03EB4203 		add	r3, r3, r2, lsl #1
 467 023a 303B     		subs	r3, r3, #48
 468 023c 164A     		ldr	r2, .L58+4
 469 023e 9384     		strh	r3, [r2, #36]	@ movhi
 470 0240 D7E7     		b	.L37
 471              	.L56:
1160:Middlewares/ST/STM32_SPWF0xSy/wifi_module_uart_01.c ****                           }
ARM GAS  D:\cygwin64\tmp\ccuGdUOt.s 			page 33


 472              		.loc 1 1160 0
 473 0242 9DF80410 		ldrb	r1, [sp, #4]	@ zero_extendqisi2
 474 0246 3039     		subs	r1, r1, #48
 475 0248 303B     		subs	r3, r3, #48
 476 024a 01EB8101 		add	r1, r1, r1, lsl #2
 477 024e 01EB8101 		add	r1, r1, r1, lsl #2
 478 0252 03EB8303 		add	r3, r3, r3, lsl #2
 479 0256 5B00     		lsls	r3, r3, #1
 480 0258 03EB8103 		add	r3, r3, r1, lsl #2
 481 025c 9BB2     		uxth	r3, r3
 482 025e 1344     		add	r3, r3, r2
 483 0260 303B     		subs	r3, r3, #48
 484 0262 0D4A     		ldr	r2, .L58+4
 485 0264 9384     		strh	r3, [r2, #36]	@ movhi
 486 0266 C4E7     		b	.L37
 487              	.LVL37:
 488              	.L21:
1173:Middlewares/ST/STM32_SPWF0xSy/wifi_module_uart_01.c ****                     IO_status_flag.data_mode= WIFI_FALSE;
 489              		.loc 1 1173 0
 490 0268 104B     		ldr	r3, .L58+24
 491              	.LVL38:
 492 026a 1A78     		ldrb	r2, [r3]	@ zero_extendqisi2
 493 026c 42F08002 		orr	r2, r2, #128
 494 0270 1A70     		strb	r2, [r3]
1174:Middlewares/ST/STM32_SPWF0xSy/wifi_module_uart_01.c ****                     IO_status_flag.WIND64_count=0;     //reset the WIND64 count since the previous 
 495              		.loc 1 1174 0
 496 0272 1A78     		ldrb	r2, [r3]	@ zero_extendqisi2
 497 0274 6FF34512 		bfc	r2, #5, #1
 498 0278 1A70     		strb	r2, [r3]
1175:Middlewares/ST/STM32_SPWF0xSy/wifi_module_uart_01.c ****                     WiFi_Control_Variables.queue_wifi_wind_message = WIFI_FALSE;
 499              		.loc 1 1175 0
 500 027a 0021     		movs	r1, #0
 501              	.LVL39:
 502 027c 5960     		str	r1, [r3, #4]
1176:Middlewares/ST/STM32_SPWF0xSy/wifi_module_uart_01.c ****                     WiFi_Control_Variables.prevent_push_WIFI_event = WIFI_TRUE;
 503              		.loc 1 1176 0
 504 027e 084B     		ldr	r3, .L58+12
 505 0280 1A78     		ldrb	r2, [r3]	@ zero_extendqisi2
 506 0282 61F34102 		bfi	r2, r1, #1, #1
 507 0286 1A70     		strb	r2, [r3]
1177:Middlewares/ST/STM32_SPWF0xSy/wifi_module_uart_01.c ****                     break;
 508              		.loc 1 1177 0
 509 0288 1A79     		ldrb	r2, [r3, #4]	@ zero_extendqisi2
 510 028a 42F00102 		orr	r2, r2, #1
 511 028e 1A71     		strb	r2, [r3, #4]
1178:Middlewares/ST/STM32_SPWF0xSy/wifi_module_uart_01.c **** 
 512              		.loc 1 1178 0
 513 0290 2FE7     		b	.L13
 514              	.L59:
 515 0292 00BF     		.align	2
 516              	.L58:
 517 0294 00000000 		.word	.LC1
 518 0298 00000000 		.word	wifi_instances
 519 029c 08000000 		.word	.LC2
 520 02a0 00000000 		.word	WiFi_Control_Variables
 521 02a4 00000000 		.word	WiFi_Counter_Variables
 522 02a8 10000000 		.word	.LC3
ARM GAS  D:\cygwin64\tmp\ccuGdUOt.s 			page 34


 523 02ac 00000000 		.word	IO_status_flag
 524              	.LVL40:
 525              	.L22:
1181:Middlewares/ST/STM32_SPWF0xSy/wifi_module_uart_01.c ****                     IO_status_flag.data_mode = WIFI_TRUE;
 526              		.loc 1 1181 0
 527 02b0 4D4B     		ldr	r3, .L60
 528              	.LVL41:
 529 02b2 1A78     		ldrb	r2, [r3]	@ zero_extendqisi2
 530 02b4 6FF3C712 		bfc	r2, #7, #1
 531 02b8 1A70     		strb	r2, [r3]
1182:Middlewares/ST/STM32_SPWF0xSy/wifi_module_uart_01.c ****                     WiFi_Control_Variables.queue_wifi_wind_message = WIFI_FALSE;
 532              		.loc 1 1182 0
 533 02ba 1A78     		ldrb	r2, [r3]	@ zero_extendqisi2
 534 02bc 42F02002 		orr	r2, r2, #32
 535 02c0 1A70     		strb	r2, [r3]
1183:Middlewares/ST/STM32_SPWF0xSy/wifi_module_uart_01.c ****                     WiFi_Control_Variables.prevent_push_WIFI_event = WIFI_TRUE;
 536              		.loc 1 1183 0
 537 02c2 4A4B     		ldr	r3, .L60+4
 538 02c4 1A78     		ldrb	r2, [r3]	@ zero_extendqisi2
 539 02c6 6FF34102 		bfc	r2, #1, #1
 540 02ca 1A70     		strb	r2, [r3]
1184:Middlewares/ST/STM32_SPWF0xSy/wifi_module_uart_01.c **** 
 541              		.loc 1 1184 0
 542 02cc 1979     		ldrb	r1, [r3, #4]	@ zero_extendqisi2
 543              	.LVL42:
 544 02ce 41F00101 		orr	r1, r1, #1
 545 02d2 1971     		strb	r1, [r3, #4]
1186:Middlewares/ST/STM32_SPWF0xSy/wifi_module_uart_01.c ****                       {
 546              		.loc 1 1186 0
 547 02d4 12F0010F 		tst	r2, #1
 548 02d8 03D0     		beq	.L40
1188:Middlewares/ST/STM32_SPWF0xSy/wifi_module_uart_01.c ****                           {
 549              		.loc 1 1188 0
 550 02da 434B     		ldr	r3, .L60
 551 02dc 1B78     		ldrb	r3, [r3]	@ zero_extendqisi2
 552 02de DB09     		lsrs	r3, r3, #7
 553 02e0 13D0     		beq	.L57
 554              	.L40:
1193:Middlewares/ST/STM32_SPWF0xSy/wifi_module_uart_01.c ****                       {
 555              		.loc 1 1193 0
 556 02e2 424B     		ldr	r3, .L60+4
 557 02e4 9B78     		ldrb	r3, [r3, #2]	@ zero_extendqisi2
 558 02e6 13F0080F 		tst	r3, #8
 559 02ea 3FF402AF 		beq	.L13
1195:Middlewares/ST/STM32_SPWF0xSy/wifi_module_uart_01.c ****                          WiFi_Control_Variables.enable_receive_data_chunk = WIFI_TRUE;       // rea
 560              		.loc 1 1195 0
 561 02ee 404B     		ldr	r3, .L60+8
 562 02f0 0522     		movs	r2, #5
 563 02f2 A3F89A20 		strh	r2, [r3, #154]	@ movhi
1196:Middlewares/ST/STM32_SPWF0xSy/wifi_module_uart_01.c ****                          WiFi_Control_Variables.enable_sock_read = WIFI_TRUE;//now data will start 
 564              		.loc 1 1196 0
 565 02f6 3D49     		ldr	r1, .L60+4
 566 02f8 8A78     		ldrb	r2, [r1, #2]	@ zero_extendqisi2
1197:Middlewares/ST/STM32_SPWF0xSy/wifi_module_uart_01.c ****                         //Set the data-length to read
 567              		.loc 1 1197 0
 568 02fa 42F02402 		orr	r2, r2, #36
 569 02fe 8A70     		strb	r2, [r1, #2]
ARM GAS  D:\cygwin64\tmp\ccuGdUOt.s 			page 35


1199:Middlewares/ST/STM32_SPWF0xSy/wifi_module_uart_01.c ****                       }
 570              		.loc 1 1199 0
 571 0300 D3F8A820 		ldr	r2, [r3, #168]
 572 0304 C3F8A420 		str	r2, [r3, #164]
 573 0308 F3E6     		b	.L13
 574              	.L57:
1190:Middlewares/ST/STM32_SPWF0xSy/wifi_module_uart_01.c ****                           }    
 575              		.loc 1 1190 0
 576 030a FFF7FEFF 		bl	WiFi_switch_to_command_mode
 577              	.LVL43:
 578 030e E8E7     		b	.L40
 579              	.LVL44:
 580              	.L17:
1205:Middlewares/ST/STM32_SPWF0xSy/wifi_module_uart_01.c ****                     for(i=17;i<=33;i++)
 581              		.loc 1 1205 0
 582 0310 3849     		ldr	r1, .L60+12
 583              	.LVL45:
 584 0312 2046     		mov	r0, r4
 585 0314 FFF7FEFF 		bl	strstr
 586              	.LVL46:
1206:Middlewares/ST/STM32_SPWF0xSy/wifi_module_uart_01.c ****                     WiFi_Counter_Variables.client_MAC_address[i-17] = *(ptr_offset + i) ;    
 587              		.loc 1 1206 0
 588 0318 1123     		movs	r3, #17
 589 031a 07E0     		b	.L41
 590              	.LVL47:
 591              	.L42:
1207:Middlewares/ST/STM32_SPWF0xSy/wifi_module_uart_01.c ****                     IO_status_flag.WiFi_WIND_State = WiFiAPClientJoined;
 592              		.loc 1 1207 0 discriminator 3
 593 031c A3F11105 		sub	r5, r3, #17
 594 0320 C15C     		ldrb	r1, [r0, r3]	@ zero_extendqisi2
 595 0322 334A     		ldr	r2, .L60+8
 596 0324 2A44     		add	r2, r2, r5
 597 0326 82F84F10 		strb	r1, [r2, #79]
1206:Middlewares/ST/STM32_SPWF0xSy/wifi_module_uart_01.c ****                     WiFi_Counter_Variables.client_MAC_address[i-17] = *(ptr_offset + i) ;    
 598              		.loc 1 1206 0 discriminator 3
 599 032a 0133     		adds	r3, r3, #1
 600              	.LVL48:
 601              	.L41:
1206:Middlewares/ST/STM32_SPWF0xSy/wifi_module_uart_01.c ****                     WiFi_Counter_Variables.client_MAC_address[i-17] = *(ptr_offset + i) ;    
 602              		.loc 1 1206 0 is_stmt 0 discriminator 1
 603 032c 212B     		cmp	r3, #33
 604 032e F5DD     		ble	.L42
1208:Middlewares/ST/STM32_SPWF0xSy/wifi_module_uart_01.c ****                     break;
 605              		.loc 1 1208 0 is_stmt 1
 606 0330 0B22     		movs	r2, #11
 607 0332 2D4B     		ldr	r3, .L60
 608              	.LVL49:
 609 0334 9A75     		strb	r2, [r3, #22]
1209:Middlewares/ST/STM32_SPWF0xSy/wifi_module_uart_01.c **** 
 610              		.loc 1 1209 0
 611 0336 DCE6     		b	.L13
 612              	.LVL50:
 613              	.L27:
1213:Middlewares/ST/STM32_SPWF0xSy/wifi_module_uart_01.c ****                     for(i=17;i<=33;i++)
 614              		.loc 1 1213 0
 615 0338 2F49     		ldr	r1, .L60+16
 616              	.LVL51:
ARM GAS  D:\cygwin64\tmp\ccuGdUOt.s 			page 36


 617 033a 2046     		mov	r0, r4
 618 033c FFF7FEFF 		bl	strstr
 619              	.LVL52:
1214:Middlewares/ST/STM32_SPWF0xSy/wifi_module_uart_01.c ****                     WiFi_Counter_Variables.client_MAC_address[i-17] = *(ptr_offset + i) ;
 620              		.loc 1 1214 0
 621 0340 1123     		movs	r3, #17
 622 0342 07E0     		b	.L43
 623              	.LVL53:
 624              	.L44:
1215:Middlewares/ST/STM32_SPWF0xSy/wifi_module_uart_01.c ****                     IO_status_flag.WiFi_WIND_State = WiFiAPClientLeft;
 625              		.loc 1 1215 0 discriminator 3
 626 0344 A3F11105 		sub	r5, r3, #17
 627 0348 C15C     		ldrb	r1, [r0, r3]	@ zero_extendqisi2
 628 034a 294A     		ldr	r2, .L60+8
 629 034c 2A44     		add	r2, r2, r5
 630 034e 82F84F10 		strb	r1, [r2, #79]
1214:Middlewares/ST/STM32_SPWF0xSy/wifi_module_uart_01.c ****                     WiFi_Counter_Variables.client_MAC_address[i-17] = *(ptr_offset + i) ;
 631              		.loc 1 1214 0 discriminator 3
 632 0352 0133     		adds	r3, r3, #1
 633              	.LVL54:
 634              	.L43:
1214:Middlewares/ST/STM32_SPWF0xSy/wifi_module_uart_01.c ****                     WiFi_Counter_Variables.client_MAC_address[i-17] = *(ptr_offset + i) ;
 635              		.loc 1 1214 0 is_stmt 0 discriminator 1
 636 0354 212B     		cmp	r3, #33
 637 0356 F5DD     		ble	.L44
1216:Middlewares/ST/STM32_SPWF0xSy/wifi_module_uart_01.c ****                     break;
 638              		.loc 1 1216 0 is_stmt 1
 639 0358 0C22     		movs	r2, #12
 640 035a 234B     		ldr	r3, .L60
 641              	.LVL55:
 642 035c 9A75     		strb	r2, [r3, #22]
1217:Middlewares/ST/STM32_SPWF0xSy/wifi_module_uart_01.c ****                     
 643              		.loc 1 1217 0
 644 035e C8E6     		b	.L13
 645              	.LVL56:
 646              	.L23:
1221:Middlewares/ST/STM32_SPWF0xSy/wifi_module_uart_01.c ****                       WiFi_Control_Variables.prevent_push_WIFI_event = WIFI_FALSE;
 647              		.loc 1 1221 0
 648 0360 224B     		ldr	r3, .L60+4
 649              	.LVL57:
 650 0362 1B79     		ldrb	r3, [r3, #4]	@ zero_extendqisi2
 651 0364 13F0010F 		tst	r3, #1
 652 0368 3FF4C3AE 		beq	.L13
1222:Middlewares/ST/STM32_SPWF0xSy/wifi_module_uart_01.c ****                      break;
 653              		.loc 1 1222 0
 654 036c 1F4B     		ldr	r3, .L60+4
 655 036e 1A79     		ldrb	r2, [r3, #4]	@ zero_extendqisi2
 656 0370 6FF30002 		bfc	r2, #0, #1
 657 0374 1A71     		strb	r2, [r3, #4]
 658 0376 BCE6     		b	.L13
 659              	.LVL58:
 660              	.L19:
1226:Middlewares/ST/STM32_SPWF0xSy/wifi_module_uart_01.c ****                     WiFi_Control_Variables.queue_wifi_wind_message = WIFI_FALSE;
 661              		.loc 1 1226 0
 662 0378 0021     		movs	r1, #0
 663              	.LVL59:
 664 037a 204B     		ldr	r3, .L60+20
ARM GAS  D:\cygwin64\tmp\ccuGdUOt.s 			page 37


 665              	.LVL60:
 666 037c 1970     		strb	r1, [r3]
1227:Middlewares/ST/STM32_SPWF0xSy/wifi_module_uart_01.c ****                     WiFi_Control_Variables.prevent_push_WIFI_event = WIFI_TRUE;
 667              		.loc 1 1227 0
 668 037e 1B4B     		ldr	r3, .L60+4
 669 0380 1A78     		ldrb	r2, [r3]	@ zero_extendqisi2
 670 0382 61F34102 		bfi	r2, r1, #1, #1
 671 0386 1A70     		strb	r2, [r3]
1228:Middlewares/ST/STM32_SPWF0xSy/wifi_module_uart_01.c ****                     break;
 672              		.loc 1 1228 0
 673 0388 1A79     		ldrb	r2, [r3, #4]	@ zero_extendqisi2
 674 038a 42F00102 		orr	r2, r2, #1
 675 038e 1A71     		strb	r2, [r3, #4]
1229:Middlewares/ST/STM32_SPWF0xSy/wifi_module_uart_01.c ****                     
 676              		.loc 1 1229 0
 677 0390 AFE6     		b	.L13
 678              	.LVL61:
 679              	.L25:
1232:Middlewares/ST/STM32_SPWF0xSy/wifi_module_uart_01.c ****                     WiFi_Control_Variables.in_standby_mode = WIFI_TRUE;
 680              		.loc 1 1232 0
 681 0392 0A22     		movs	r2, #10
 682 0394 1A4B     		ldr	r3, .L60+24
 683              	.LVL62:
 684 0396 83F82620 		strb	r2, [r3, #38]
1233:Middlewares/ST/STM32_SPWF0xSy/wifi_module_uart_01.c ****                     break;
 685              		.loc 1 1233 0
 686 039a 144A     		ldr	r2, .L60+4
 687 039c D379     		ldrb	r3, [r2, #7]	@ zero_extendqisi2
 688 039e 43F00403 		orr	r3, r3, #4
 689 03a2 D371     		strb	r3, [r2, #7]
1234:Middlewares/ST/STM32_SPWF0xSy/wifi_module_uart_01.c ****                     
 690              		.loc 1 1234 0
 691 03a4 A5E6     		b	.L13
 692              	.LVL63:
 693              	.L26:
1237:Middlewares/ST/STM32_SPWF0xSy/wifi_module_uart_01.c ****                     WiFi_Control_Variables.in_standby_mode = WIFI_FALSE;
 694              		.loc 1 1237 0
 695 03a6 0922     		movs	r2, #9
 696 03a8 154B     		ldr	r3, .L60+24
 697              	.LVL64:
 698 03aa 83F82620 		strb	r2, [r3, #38]
1238:Middlewares/ST/STM32_SPWF0xSy/wifi_module_uart_01.c ****                     break;
 699              		.loc 1 1238 0
 700 03ae 0F4B     		ldr	r3, .L60+4
 701 03b0 DA79     		ldrb	r2, [r3, #7]	@ zero_extendqisi2
 702 03b2 6FF38202 		bfc	r2, #2, #1
 703 03b6 DA71     		strb	r2, [r3, #7]
1239:Middlewares/ST/STM32_SPWF0xSy/wifi_module_uart_01.c ****                     
 704              		.loc 1 1239 0
 705 03b8 9BE6     		b	.L13
 706              	.LVL65:
 707              	.L14:
1270:Middlewares/ST/STM32_SPWF0xSy/wifi_module_uart_01.c ****                     WiFi_Control_Variables.prevent_push_WIFI_event = WIFI_TRUE;
 708              		.loc 1 1270 0
 709 03ba 0C4B     		ldr	r3, .L60+4
 710              	.LVL66:
 711 03bc 1A78     		ldrb	r2, [r3]	@ zero_extendqisi2
ARM GAS  D:\cygwin64\tmp\ccuGdUOt.s 			page 38


 712 03be 6FF34102 		bfc	r2, #1, #1
 713 03c2 1A70     		strb	r2, [r3]
1271:Middlewares/ST/STM32_SPWF0xSy/wifi_module_uart_01.c ****                     break;
 714              		.loc 1 1271 0
 715 03c4 1A79     		ldrb	r2, [r3, #4]	@ zero_extendqisi2
 716 03c6 42F00102 		orr	r2, r2, #1
 717 03ca 1A71     		strb	r2, [r3, #4]
1272:Middlewares/ST/STM32_SPWF0xSy/wifi_module_uart_01.c **** 
 718              		.loc 1 1272 0
 719 03cc 91E6     		b	.L13
 720              	.LVL67:
 721              	.L16:
1276:Middlewares/ST/STM32_SPWF0xSy/wifi_module_uart_01.c ****                       WiFi_Control_Variables.stop_event_dequeue = WIFI_FALSE;
 722              		.loc 1 1276 0
 723 03ce 074B     		ldr	r3, .L60+4
 724              	.LVL68:
 725 03d0 1B78     		ldrb	r3, [r3]	@ zero_extendqisi2
 726 03d2 13F0080F 		tst	r3, #8
 727 03d6 3FF48CAE 		beq	.L13
1277:Middlewares/ST/STM32_SPWF0xSy/wifi_module_uart_01.c ****                     break;
 728              		.loc 1 1277 0
 729 03da 044B     		ldr	r3, .L60+4
 730 03dc 1A78     		ldrb	r2, [r3]	@ zero_extendqisi2
 731 03de 6FF3C302 		bfc	r2, #3, #1
 732 03e2 1A70     		strb	r2, [r3]
 733 03e4 85E6     		b	.L13
 734              	.LVL69:
 735              	.L46:
 736              	.LCFI5:
 737              		.cfi_def_cfa_offset 0
 738              		.cfi_restore 4
 739              		.cfi_restore 5
 740              		.cfi_restore 14
 741 03e6 7047     		bx	lr
 742              	.L61:
 743              		.align	2
 744              	.L60:
 745 03e8 00000000 		.word	IO_status_flag
 746 03ec 00000000 		.word	WiFi_Control_Variables
 747 03f0 00000000 		.word	WiFi_Counter_Variables
 748 03f4 18000000 		.word	.LC4
 749 03f8 24000000 		.word	.LC5
 750 03fc 00000000 		.word	wifi_connected
 751 0400 00000000 		.word	wifi_instances
 752              		.cfi_endproc
 753              	.LFE277:
 755              		.section	.text.Process_Buffer,"ax",%progbits
 756              		.align	1
 757              		.global	Process_Buffer
 758              		.syntax unified
 759              		.thumb
 760              		.thumb_func
 761              		.fpu fpv4-sp-d16
 763              	Process_Buffer:
 764              	.LFB276:
 109:Middlewares/ST/STM32_SPWF0xSy/wifi_module_uart_01.c ****   static uint32_t Fillptr=0;
 765              		.loc 1 109 0
ARM GAS  D:\cygwin64\tmp\ccuGdUOt.s 			page 39


 766              		.cfi_startproc
 767              		@ args = 0, pretend = 0, frame = 0
 768              		@ frame_needed = 0, uses_anonymous_args = 0
 769              	.LVL70:
 770 0000 2DE9F047 		push	{r4, r5, r6, r7, r8, r9, r10, lr}
 771              	.LCFI6:
 772              		.cfi_def_cfa_offset 32
 773              		.cfi_offset 4, -32
 774              		.cfi_offset 5, -28
 775              		.cfi_offset 6, -24
 776              		.cfi_offset 7, -20
 777              		.cfi_offset 8, -16
 778              		.cfi_offset 9, -12
 779              		.cfi_offset 10, -8
 780              		.cfi_offset 14, -4
 781 0004 0646     		mov	r6, r0
 782              	.LVL71:
 120:Middlewares/ST/STM32_SPWF0xSy/wifi_module_uart_01.c ****   //printf(&rxdata);    //check prints for debug...to be removed or kept in DEBUG statement
 783              		.loc 1 120 0
 784 0006 0278     		ldrb	r2, [r0]	@ zero_extendqisi2
 785              	.LVL72:
 122:Middlewares/ST/STM32_SPWF0xSy/wifi_module_uart_01.c ****     process_buffer[Fillptr++] = rxdata;
 786              		.loc 1 122 0
 787 0008 B44B     		ldr	r3, .L188
 788 000a 9B78     		ldrb	r3, [r3, #2]	@ zero_extendqisi2
 789 000c 13F0040F 		tst	r3, #4
 790 0010 06D1     		bne	.L63
 122:Middlewares/ST/STM32_SPWF0xSy/wifi_module_uart_01.c ****     process_buffer[Fillptr++] = rxdata;
 791              		.loc 1 122 0 is_stmt 0 discriminator 1
 792 0012 2AB1     		cbz	r2, .L63
 123:Middlewares/ST/STM32_SPWF0xSy/wifi_module_uart_01.c ****    reset_event(&wifi_instances.wifi_event);
 793              		.loc 1 123 0 is_stmt 1
 794 0014 B249     		ldr	r1, .L188+4
 795 0016 0B68     		ldr	r3, [r1]
 796 0018 581C     		adds	r0, r3, #1
 797              	.LVL73:
 798 001a 0860     		str	r0, [r1]
 799 001c B149     		ldr	r1, .L188+8
 800 001e CA54     		strb	r2, [r1, r3]
 801              	.L63:
 124:Middlewares/ST/STM32_SPWF0xSy/wifi_module_uart_01.c **** 
 802              		.loc 1 124 0
 803 0020 B148     		ldr	r0, .L188+12
 804 0022 FFF7FEFF 		bl	reset_event
 805              	.LVL74:
 126:Middlewares/ST/STM32_SPWF0xSy/wifi_module_uart_01.c ****        && !WiFi_Control_Variables.enable_receive_http_response && !IO_status_flag.sock_read_ongoing
 806              		.loc 1 126 0
 807 0026 AE4B     		ldr	r3, .L188+4
 808 0028 1C68     		ldr	r4, [r3]
 809 002a A31E     		subs	r3, r4, #2
 810 002c AD4A     		ldr	r2, .L188+8
 811 002e D55C     		ldrb	r5, [r2, r3]	@ zero_extendqisi2
 812 0030 0D2D     		cmp	r5, #13
 813 0032 27D0     		beq	.L163
 814              	.L64:
 434:Middlewares/ST/STM32_SPWF0xSy/wifi_module_uart_01.c ****       {
 815              		.loc 1 434 0
ARM GAS  D:\cygwin64\tmp\ccuGdUOt.s 			page 40


 816 0034 A94B     		ldr	r3, .L188
 817 0036 5B7A     		ldrb	r3, [r3, #9]	@ zero_extendqisi2
 818 0038 13F0040F 		tst	r3, #4
 819 003c 40F01F83 		bne	.L104
 434:Middlewares/ST/STM32_SPWF0xSy/wifi_module_uart_01.c ****       {
 820              		.loc 1 434 0 is_stmt 0 discriminator 1
 821 0040 AA49     		ldr	r1, .L188+16
 822 0042 A848     		ldr	r0, .L188+8
 823 0044 FFF7FEFF 		bl	strstr
 824              	.LVL75:
 825 0048 0028     		cmp	r0, #0
 826 004a 00F01883 		beq	.L104
 438:Middlewares/ST/STM32_SPWF0xSy/wifi_module_uart_01.c ****         {
 827              		.loc 1 438 0 is_stmt 1
 828 004e A849     		ldr	r1, .L188+20
 829 0050 A448     		ldr	r0, .L188+8
 830 0052 FFF7FEFF 		bl	strstr
 831              	.LVL76:
 832 0056 0028     		cmp	r0, #0
 833 0058 00F0B386 		beq	.L62
 444:Middlewares/ST/STM32_SPWF0xSy/wifi_module_uart_01.c ****           ind_wifi_inputssi_callback();
 834              		.loc 1 444 0
 835 005c 1D20     		movs	r0, #29
 836 005e FFF7FEFF 		bl	HAL_NVIC_DisableIRQ
 837              	.LVL77:
 445:Middlewares/ST/STM32_SPWF0xSy/wifi_module_uart_01.c ****           WiFi_Control_Variables.parsing_wind_56_data = WIFI_TRUE;
 838              		.loc 1 445 0
 839 0062 FFF7FEFF 		bl	ind_wifi_inputssi_callback
 840              	.LVL78:
 446:Middlewares/ST/STM32_SPWF0xSy/wifi_module_uart_01.c ****           memset(process_buffer,0x00,Fillptr);
 841              		.loc 1 446 0
 842 0066 9D4A     		ldr	r2, .L188
 843 0068 537A     		ldrb	r3, [r2, #9]	@ zero_extendqisi2
 844 006a 43F00403 		orr	r3, r3, #4
 845 006e 5372     		strb	r3, [r2, #9]
 447:Middlewares/ST/STM32_SPWF0xSy/wifi_module_uart_01.c ****           Fillptr=0;
 846              		.loc 1 447 0
 847 0070 9B4C     		ldr	r4, .L188+4
 848 0072 2268     		ldr	r2, [r4]
 849 0074 0021     		movs	r1, #0
 850 0076 9B48     		ldr	r0, .L188+8
 851 0078 FFF7FEFF 		bl	memset
 852              	.LVL79:
 448:Middlewares/ST/STM32_SPWF0xSy/wifi_module_uart_01.c ****           return;
 853              		.loc 1 448 0
 854 007c 0023     		movs	r3, #0
 855 007e 2360     		str	r3, [r4]
 449:Middlewares/ST/STM32_SPWF0xSy/wifi_module_uart_01.c ****         }
 856              		.loc 1 449 0
 857 0080 BDE8F087 		pop	{r4, r5, r6, r7, r8, r9, r10, pc}
 858              	.LVL80:
 859              	.L163:
 126:Middlewares/ST/STM32_SPWF0xSy/wifi_module_uart_01.c ****        && !WiFi_Control_Variables.enable_receive_http_response && !IO_status_flag.sock_read_ongoing
 860              		.loc 1 126 0 discriminator 1
 861 0084 631E     		subs	r3, r4, #1
 862 0086 D35C     		ldrb	r3, [r2, r3]	@ zero_extendqisi2
 863 0088 0A2B     		cmp	r3, #10
ARM GAS  D:\cygwin64\tmp\ccuGdUOt.s 			page 41


 864 008a D3D1     		bne	.L64
 127:Middlewares/ST/STM32_SPWF0xSy/wifi_module_uart_01.c ****       {
 865              		.loc 1 127 0
 866 008c 934B     		ldr	r3, .L188
 867 008e DF78     		ldrb	r7, [r3, #3]	@ zero_extendqisi2
 868 0090 17F0100F 		tst	r7, #16
 869 0094 CED1     		bne	.L64
 127:Middlewares/ST/STM32_SPWF0xSy/wifi_module_uart_01.c ****       {
 870              		.loc 1 127 0 is_stmt 0 discriminator 1
 871 0096 974B     		ldr	r3, .L188+24
 872 0098 1B78     		ldrb	r3, [r3]	@ zero_extendqisi2
 873 009a 13F0010F 		tst	r3, #1
 874 009e C9D1     		bne	.L64
 129:Middlewares/ST/STM32_SPWF0xSy/wifi_module_uart_01.c ****           {
 875              		.loc 1 129 0 is_stmt 1
 876 00a0 9549     		ldr	r1, .L188+28
 877 00a2 1046     		mov	r0, r2
 878 00a4 FFF7FEFF 		bl	strstr
 879              	.LVL81:
 880 00a8 0028     		cmp	r0, #0
 881 00aa 4CD0     		beq	.L65
 132:Middlewares/ST/STM32_SPWF0xSy/wifi_module_uart_01.c ****               #if defined (USE_STM32L0XX_NUCLEO) || (USE_STM32F4XX_NUCLEO) || (USE_STM32L4XX_NUCLEO
 882              		.loc 1 132 0
 883 00ac FFF7FEFF 		bl	Stop_Timer
 884              	.LVL82:
 885              	.LBB69:
 886              	.LBB70:
 887              		.file 2 "Drivers/CMSIS/Include/cmsis_gcc.h"
   1:Drivers/CMSIS/Include/cmsis_gcc.h **** /**************************************************************************//**
   2:Drivers/CMSIS/Include/cmsis_gcc.h ****  * @file     cmsis_gcc.h
   3:Drivers/CMSIS/Include/cmsis_gcc.h ****  * @brief    CMSIS compiler GCC header file
   4:Drivers/CMSIS/Include/cmsis_gcc.h ****  * @version  V5.0.4
   5:Drivers/CMSIS/Include/cmsis_gcc.h ****  * @date     09. April 2018
   6:Drivers/CMSIS/Include/cmsis_gcc.h ****  ******************************************************************************/
   7:Drivers/CMSIS/Include/cmsis_gcc.h **** /*
   8:Drivers/CMSIS/Include/cmsis_gcc.h ****  * Copyright (c) 2009-2018 Arm Limited. All rights reserved.
   9:Drivers/CMSIS/Include/cmsis_gcc.h ****  *
  10:Drivers/CMSIS/Include/cmsis_gcc.h ****  * SPDX-License-Identifier: Apache-2.0
  11:Drivers/CMSIS/Include/cmsis_gcc.h ****  *
  12:Drivers/CMSIS/Include/cmsis_gcc.h ****  * Licensed under the Apache License, Version 2.0 (the License); you may
  13:Drivers/CMSIS/Include/cmsis_gcc.h ****  * not use this file except in compliance with the License.
  14:Drivers/CMSIS/Include/cmsis_gcc.h ****  * You may obtain a copy of the License at
  15:Drivers/CMSIS/Include/cmsis_gcc.h ****  *
  16:Drivers/CMSIS/Include/cmsis_gcc.h ****  * www.apache.org/licenses/LICENSE-2.0
  17:Drivers/CMSIS/Include/cmsis_gcc.h ****  *
  18:Drivers/CMSIS/Include/cmsis_gcc.h ****  * Unless required by applicable law or agreed to in writing, software
  19:Drivers/CMSIS/Include/cmsis_gcc.h ****  * distributed under the License is distributed on an AS IS BASIS, WITHOUT
  20:Drivers/CMSIS/Include/cmsis_gcc.h ****  * WARRANTIES OR CONDITIONS OF ANY KIND, either express or implied.
  21:Drivers/CMSIS/Include/cmsis_gcc.h ****  * See the License for the specific language governing permissions and
  22:Drivers/CMSIS/Include/cmsis_gcc.h ****  * limitations under the License.
  23:Drivers/CMSIS/Include/cmsis_gcc.h ****  */
  24:Drivers/CMSIS/Include/cmsis_gcc.h **** 
  25:Drivers/CMSIS/Include/cmsis_gcc.h **** #ifndef __CMSIS_GCC_H
  26:Drivers/CMSIS/Include/cmsis_gcc.h **** #define __CMSIS_GCC_H
  27:Drivers/CMSIS/Include/cmsis_gcc.h **** 
  28:Drivers/CMSIS/Include/cmsis_gcc.h **** /* ignore some GCC warnings */
  29:Drivers/CMSIS/Include/cmsis_gcc.h **** #pragma GCC diagnostic push
ARM GAS  D:\cygwin64\tmp\ccuGdUOt.s 			page 42


  30:Drivers/CMSIS/Include/cmsis_gcc.h **** #pragma GCC diagnostic ignored "-Wsign-conversion"
  31:Drivers/CMSIS/Include/cmsis_gcc.h **** #pragma GCC diagnostic ignored "-Wconversion"
  32:Drivers/CMSIS/Include/cmsis_gcc.h **** #pragma GCC diagnostic ignored "-Wunused-parameter"
  33:Drivers/CMSIS/Include/cmsis_gcc.h **** 
  34:Drivers/CMSIS/Include/cmsis_gcc.h **** /* Fallback for __has_builtin */
  35:Drivers/CMSIS/Include/cmsis_gcc.h **** #ifndef __has_builtin
  36:Drivers/CMSIS/Include/cmsis_gcc.h ****   #define __has_builtin(x) (0)
  37:Drivers/CMSIS/Include/cmsis_gcc.h **** #endif
  38:Drivers/CMSIS/Include/cmsis_gcc.h **** 
  39:Drivers/CMSIS/Include/cmsis_gcc.h **** /* CMSIS compiler specific defines */
  40:Drivers/CMSIS/Include/cmsis_gcc.h **** #ifndef   __ASM
  41:Drivers/CMSIS/Include/cmsis_gcc.h ****   #define __ASM                                  __asm
  42:Drivers/CMSIS/Include/cmsis_gcc.h **** #endif
  43:Drivers/CMSIS/Include/cmsis_gcc.h **** #ifndef   __INLINE
  44:Drivers/CMSIS/Include/cmsis_gcc.h ****   #define __INLINE                               inline
  45:Drivers/CMSIS/Include/cmsis_gcc.h **** #endif
  46:Drivers/CMSIS/Include/cmsis_gcc.h **** #ifndef   __STATIC_INLINE
  47:Drivers/CMSIS/Include/cmsis_gcc.h ****   #define __STATIC_INLINE                        static inline
  48:Drivers/CMSIS/Include/cmsis_gcc.h **** #endif
  49:Drivers/CMSIS/Include/cmsis_gcc.h **** #ifndef   __STATIC_FORCEINLINE                 
  50:Drivers/CMSIS/Include/cmsis_gcc.h ****   #define __STATIC_FORCEINLINE                   __attribute__((always_inline)) static inline
  51:Drivers/CMSIS/Include/cmsis_gcc.h **** #endif                                           
  52:Drivers/CMSIS/Include/cmsis_gcc.h **** #ifndef   __NO_RETURN
  53:Drivers/CMSIS/Include/cmsis_gcc.h ****   #define __NO_RETURN                            __attribute__((__noreturn__))
  54:Drivers/CMSIS/Include/cmsis_gcc.h **** #endif
  55:Drivers/CMSIS/Include/cmsis_gcc.h **** #ifndef   __USED
  56:Drivers/CMSIS/Include/cmsis_gcc.h ****   #define __USED                                 __attribute__((used))
  57:Drivers/CMSIS/Include/cmsis_gcc.h **** #endif
  58:Drivers/CMSIS/Include/cmsis_gcc.h **** #ifndef   __WEAK
  59:Drivers/CMSIS/Include/cmsis_gcc.h ****   #define __WEAK                                 __attribute__((weak))
  60:Drivers/CMSIS/Include/cmsis_gcc.h **** #endif
  61:Drivers/CMSIS/Include/cmsis_gcc.h **** #ifndef   __PACKED
  62:Drivers/CMSIS/Include/cmsis_gcc.h ****   #define __PACKED                               __attribute__((packed, aligned(1)))
  63:Drivers/CMSIS/Include/cmsis_gcc.h **** #endif
  64:Drivers/CMSIS/Include/cmsis_gcc.h **** #ifndef   __PACKED_STRUCT
  65:Drivers/CMSIS/Include/cmsis_gcc.h ****   #define __PACKED_STRUCT                        struct __attribute__((packed, aligned(1)))
  66:Drivers/CMSIS/Include/cmsis_gcc.h **** #endif
  67:Drivers/CMSIS/Include/cmsis_gcc.h **** #ifndef   __PACKED_UNION
  68:Drivers/CMSIS/Include/cmsis_gcc.h ****   #define __PACKED_UNION                         union __attribute__((packed, aligned(1)))
  69:Drivers/CMSIS/Include/cmsis_gcc.h **** #endif
  70:Drivers/CMSIS/Include/cmsis_gcc.h **** #ifndef   __UNALIGNED_UINT32        /* deprecated */
  71:Drivers/CMSIS/Include/cmsis_gcc.h ****   #pragma GCC diagnostic push
  72:Drivers/CMSIS/Include/cmsis_gcc.h ****   #pragma GCC diagnostic ignored "-Wpacked"
  73:Drivers/CMSIS/Include/cmsis_gcc.h ****   #pragma GCC diagnostic ignored "-Wattributes"
  74:Drivers/CMSIS/Include/cmsis_gcc.h ****   struct __attribute__((packed)) T_UINT32 { uint32_t v; };
  75:Drivers/CMSIS/Include/cmsis_gcc.h ****   #pragma GCC diagnostic pop
  76:Drivers/CMSIS/Include/cmsis_gcc.h ****   #define __UNALIGNED_UINT32(x)                  (((struct T_UINT32 *)(x))->v)
  77:Drivers/CMSIS/Include/cmsis_gcc.h **** #endif
  78:Drivers/CMSIS/Include/cmsis_gcc.h **** #ifndef   __UNALIGNED_UINT16_WRITE
  79:Drivers/CMSIS/Include/cmsis_gcc.h ****   #pragma GCC diagnostic push
  80:Drivers/CMSIS/Include/cmsis_gcc.h ****   #pragma GCC diagnostic ignored "-Wpacked"
  81:Drivers/CMSIS/Include/cmsis_gcc.h ****   #pragma GCC diagnostic ignored "-Wattributes"
  82:Drivers/CMSIS/Include/cmsis_gcc.h ****   __PACKED_STRUCT T_UINT16_WRITE { uint16_t v; };
  83:Drivers/CMSIS/Include/cmsis_gcc.h ****   #pragma GCC diagnostic pop
  84:Drivers/CMSIS/Include/cmsis_gcc.h ****   #define __UNALIGNED_UINT16_WRITE(addr, val)    (void)((((struct T_UINT16_WRITE *)(void *)(addr))-
  85:Drivers/CMSIS/Include/cmsis_gcc.h **** #endif
  86:Drivers/CMSIS/Include/cmsis_gcc.h **** #ifndef   __UNALIGNED_UINT16_READ
ARM GAS  D:\cygwin64\tmp\ccuGdUOt.s 			page 43


  87:Drivers/CMSIS/Include/cmsis_gcc.h ****   #pragma GCC diagnostic push
  88:Drivers/CMSIS/Include/cmsis_gcc.h ****   #pragma GCC diagnostic ignored "-Wpacked"
  89:Drivers/CMSIS/Include/cmsis_gcc.h ****   #pragma GCC diagnostic ignored "-Wattributes"
  90:Drivers/CMSIS/Include/cmsis_gcc.h ****   __PACKED_STRUCT T_UINT16_READ { uint16_t v; };
  91:Drivers/CMSIS/Include/cmsis_gcc.h ****   #pragma GCC diagnostic pop
  92:Drivers/CMSIS/Include/cmsis_gcc.h ****   #define __UNALIGNED_UINT16_READ(addr)          (((const struct T_UINT16_READ *)(const void *)(add
  93:Drivers/CMSIS/Include/cmsis_gcc.h **** #endif
  94:Drivers/CMSIS/Include/cmsis_gcc.h **** #ifndef   __UNALIGNED_UINT32_WRITE
  95:Drivers/CMSIS/Include/cmsis_gcc.h ****   #pragma GCC diagnostic push
  96:Drivers/CMSIS/Include/cmsis_gcc.h ****   #pragma GCC diagnostic ignored "-Wpacked"
  97:Drivers/CMSIS/Include/cmsis_gcc.h ****   #pragma GCC diagnostic ignored "-Wattributes"
  98:Drivers/CMSIS/Include/cmsis_gcc.h ****   __PACKED_STRUCT T_UINT32_WRITE { uint32_t v; };
  99:Drivers/CMSIS/Include/cmsis_gcc.h ****   #pragma GCC diagnostic pop
 100:Drivers/CMSIS/Include/cmsis_gcc.h ****   #define __UNALIGNED_UINT32_WRITE(addr, val)    (void)((((struct T_UINT32_WRITE *)(void *)(addr))-
 101:Drivers/CMSIS/Include/cmsis_gcc.h **** #endif
 102:Drivers/CMSIS/Include/cmsis_gcc.h **** #ifndef   __UNALIGNED_UINT32_READ
 103:Drivers/CMSIS/Include/cmsis_gcc.h ****   #pragma GCC diagnostic push
 104:Drivers/CMSIS/Include/cmsis_gcc.h ****   #pragma GCC diagnostic ignored "-Wpacked"
 105:Drivers/CMSIS/Include/cmsis_gcc.h ****   #pragma GCC diagnostic ignored "-Wattributes"
 106:Drivers/CMSIS/Include/cmsis_gcc.h ****   __PACKED_STRUCT T_UINT32_READ { uint32_t v; };
 107:Drivers/CMSIS/Include/cmsis_gcc.h ****   #pragma GCC diagnostic pop
 108:Drivers/CMSIS/Include/cmsis_gcc.h ****   #define __UNALIGNED_UINT32_READ(addr)          (((const struct T_UINT32_READ *)(const void *)(add
 109:Drivers/CMSIS/Include/cmsis_gcc.h **** #endif
 110:Drivers/CMSIS/Include/cmsis_gcc.h **** #ifndef   __ALIGNED
 111:Drivers/CMSIS/Include/cmsis_gcc.h ****   #define __ALIGNED(x)                           __attribute__((aligned(x)))
 112:Drivers/CMSIS/Include/cmsis_gcc.h **** #endif
 113:Drivers/CMSIS/Include/cmsis_gcc.h **** #ifndef   __RESTRICT
 114:Drivers/CMSIS/Include/cmsis_gcc.h ****   #define __RESTRICT                             __restrict
 115:Drivers/CMSIS/Include/cmsis_gcc.h **** #endif
 116:Drivers/CMSIS/Include/cmsis_gcc.h **** 
 117:Drivers/CMSIS/Include/cmsis_gcc.h **** 
 118:Drivers/CMSIS/Include/cmsis_gcc.h **** /* ###########################  Core Function Access  ########################### */
 119:Drivers/CMSIS/Include/cmsis_gcc.h **** /** \ingroup  CMSIS_Core_FunctionInterface
 120:Drivers/CMSIS/Include/cmsis_gcc.h ****     \defgroup CMSIS_Core_RegAccFunctions CMSIS Core Register Access Functions
 121:Drivers/CMSIS/Include/cmsis_gcc.h ****   @{
 122:Drivers/CMSIS/Include/cmsis_gcc.h ****  */
 123:Drivers/CMSIS/Include/cmsis_gcc.h **** 
 124:Drivers/CMSIS/Include/cmsis_gcc.h **** /**
 125:Drivers/CMSIS/Include/cmsis_gcc.h ****   \brief   Enable IRQ Interrupts
 126:Drivers/CMSIS/Include/cmsis_gcc.h ****   \details Enables IRQ interrupts by clearing the I-bit in the CPSR.
 127:Drivers/CMSIS/Include/cmsis_gcc.h ****            Can only be executed in Privileged modes.
 128:Drivers/CMSIS/Include/cmsis_gcc.h ****  */
 129:Drivers/CMSIS/Include/cmsis_gcc.h **** __STATIC_FORCEINLINE void __enable_irq(void)
 130:Drivers/CMSIS/Include/cmsis_gcc.h **** {
 131:Drivers/CMSIS/Include/cmsis_gcc.h ****   __ASM volatile ("cpsie i" : : : "memory");
 132:Drivers/CMSIS/Include/cmsis_gcc.h **** }
 133:Drivers/CMSIS/Include/cmsis_gcc.h **** 
 134:Drivers/CMSIS/Include/cmsis_gcc.h **** 
 135:Drivers/CMSIS/Include/cmsis_gcc.h **** /**
 136:Drivers/CMSIS/Include/cmsis_gcc.h ****   \brief   Disable IRQ Interrupts
 137:Drivers/CMSIS/Include/cmsis_gcc.h ****   \details Disables IRQ interrupts by setting the I-bit in the CPSR.
 138:Drivers/CMSIS/Include/cmsis_gcc.h ****            Can only be executed in Privileged modes.
 139:Drivers/CMSIS/Include/cmsis_gcc.h ****  */
 140:Drivers/CMSIS/Include/cmsis_gcc.h **** __STATIC_FORCEINLINE void __disable_irq(void)
 141:Drivers/CMSIS/Include/cmsis_gcc.h **** {
 142:Drivers/CMSIS/Include/cmsis_gcc.h ****   __ASM volatile ("cpsid i" : : : "memory");
 888              		.loc 2 142 0
ARM GAS  D:\cygwin64\tmp\ccuGdUOt.s 			page 44


 889              		.syntax unified
 890              	@ 142 "Drivers/CMSIS/Include/cmsis_gcc.h" 1
 891 00b0 72B6     		cpsid i
 892              	@ 0 "" 2
 893              		.thumb
 894              		.syntax unified
 895              	.LBE70:
 896              	.LBE69:
 136:Middlewares/ST/STM32_SPWF0xSy/wifi_module_uart_01.c ****               #if defined (USE_STM32L0XX_NUCLEO) || (USE_STM32F4XX_NUCLEO) || (USE_STM32L4XX_NUCLEO
 897              		.loc 1 136 0
 898 00b2 8C48     		ldr	r0, .L188+8
 899 00b4 FFF7FEFF 		bl	Process_Wind_Indication
 900              	.LVL83:
 901              	.LBB71:
 902              	.LBB72:
 131:Drivers/CMSIS/Include/cmsis_gcc.h **** }
 903              		.loc 2 131 0
 904              		.syntax unified
 905              	@ 131 "Drivers/CMSIS/Include/cmsis_gcc.h" 1
 906 00b8 62B6     		cpsie i
 907              	@ 0 "" 2
 908              		.thumb
 909              		.syntax unified
 910              	.LBE72:
 911              	.LBE71:
 140:Middlewares/ST/STM32_SPWF0xSy/wifi_module_uart_01.c **** 
 912              		.loc 1 140 0
 913 00ba FFF7FEFF 		bl	Start_Timer
 914              	.LVL84:
 142:Middlewares/ST/STM32_SPWF0xSy/wifi_module_uart_01.c ****                 {
 915              		.loc 1 142 0
 916 00be 874B     		ldr	r3, .L188
 917 00c0 1B79     		ldrb	r3, [r3, #4]	@ zero_extendqisi2
 918 00c2 13F0010F 		tst	r3, #1
 919 00c6 23D0     		beq	.L164
 150:Middlewares/ST/STM32_SPWF0xSy/wifi_module_uart_01.c ****                 {
 920              		.loc 1 150 0
 921 00c8 844B     		ldr	r3, .L188
 922 00ca 1B78     		ldrb	r3, [r3]	@ zero_extendqisi2
 923 00cc 13F0020F 		tst	r3, #2
 924 00d0 2CD0     		beq	.L165
 925              	.L67:
 156:Middlewares/ST/STM32_SPWF0xSy/wifi_module_uart_01.c ****                 WiFi_Control_Variables.prevent_push_WIFI_event = WIFI_FALSE;
 926              		.loc 1 156 0
 927 00d2 824B     		ldr	r3, .L188
 928 00d4 1B79     		ldrb	r3, [r3, #4]	@ zero_extendqisi2
 929 00d6 13F0040F 		tst	r3, #4
 930 00da 04D1     		bne	.L68
 157:Middlewares/ST/STM32_SPWF0xSy/wifi_module_uart_01.c **** 
 931              		.loc 1 157 0
 932 00dc 7F4B     		ldr	r3, .L188
 933 00de 1A79     		ldrb	r2, [r3, #4]	@ zero_extendqisi2
 934 00e0 6FF30002 		bfc	r2, #0, #1
 935 00e4 1A71     		strb	r2, [r3, #4]
 936              	.L68:
 159:Middlewares/ST/STM32_SPWF0xSy/wifi_module_uart_01.c ****               if(WiFi_Control_Variables.enable_sock_read && WiFi_Control_Variables.Q_Contains_Messa
 937              		.loc 1 159 0
ARM GAS  D:\cygwin64\tmp\ccuGdUOt.s 			page 45


 938 00e6 0022     		movs	r2, #0
 939 00e8 7D4B     		ldr	r3, .L188+4
 940 00ea 1A60     		str	r2, [r3]
 160:Middlewares/ST/STM32_SPWF0xSy/wifi_module_uart_01.c ****                 WiFi_Control_Variables.Q_Contains_Message = WIFI_FALSE;
 941              		.loc 1 160 0
 942 00ec 7B4B     		ldr	r3, .L188
 943 00ee 9B78     		ldrb	r3, [r3, #2]	@ zero_extendqisi2
 944 00f0 13F0200F 		tst	r3, #32
 945 00f4 00F06586 		beq	.L62
 160:Middlewares/ST/STM32_SPWF0xSy/wifi_module_uart_01.c ****                 WiFi_Control_Variables.Q_Contains_Message = WIFI_FALSE;
 946              		.loc 1 160 0 is_stmt 0 discriminator 1
 947 00f8 784B     		ldr	r3, .L188
 948 00fa DB78     		ldrb	r3, [r3, #3]	@ zero_extendqisi2
 949 00fc 13F0080F 		tst	r3, #8
 950 0100 00F05F86 		beq	.L62
 161:Middlewares/ST/STM32_SPWF0xSy/wifi_module_uart_01.c ****               else
 951              		.loc 1 161 0 is_stmt 1
 952 0104 754B     		ldr	r3, .L188
 953 0106 DA78     		ldrb	r2, [r3, #3]	@ zero_extendqisi2
 954 0108 6FF3C302 		bfc	r2, #3, #1
 955 010c DA70     		strb	r2, [r3, #3]
 956 010e 5BE3     		b	.L70
 957              	.L164:
 958              	.LBB73:
 959              	.LBB74:
 960              		.loc 2 142 0
 961              		.syntax unified
 962              	@ 142 "Drivers/CMSIS/Include/cmsis_gcc.h" 1
 963 0110 72B6     		cpsid i
 964              	@ 0 "" 2
 965              		.thumb
 966              		.syntax unified
 967              	.LBE74:
 968              	.LBE73:
 145:Middlewares/ST/STM32_SPWF0xSy/wifi_module_uart_01.c ****                      __enable_irq();
 969              		.loc 1 145 0
 970 0112 7A48     		ldr	r0, .L188+32
 971 0114 00F12004 		add	r4, r0, #32
 972 0118 94E80600 		ldm	r4, {r1, r2}
 973 011c 1430     		adds	r0, r0, #20
 974 011e FFF7FEFF 		bl	push_eventbuffer_queue
 975              	.LVL85:
 976              	.LBB75:
 977              	.LBB76:
 131:Drivers/CMSIS/Include/cmsis_gcc.h **** }
 978              		.loc 2 131 0
 979              		.syntax unified
 980              	@ 131 "Drivers/CMSIS/Include/cmsis_gcc.h" 1
 981 0122 62B6     		cpsie i
 982              	@ 0 "" 2
 983              		.thumb
 984              		.syntax unified
 985              	.LBE76:
 986              	.LBE75:
 147:Middlewares/ST/STM32_SPWF0xSy/wifi_module_uart_01.c ****                 }
 987              		.loc 1 147 0
 988 0124 2046     		mov	r0, r4
ARM GAS  D:\cygwin64\tmp\ccuGdUOt.s 			page 46


 989 0126 FFF7FEFF 		bl	reset_event
 990              	.LVL86:
 991 012a D2E7     		b	.L67
 992              	.L165:
 152:Middlewares/ST/STM32_SPWF0xSy/wifi_module_uart_01.c ****                     WiFi_Control_Variables.prevent_push_WIFI_event = WIFI_FALSE;
 993              		.loc 1 152 0
 994 012c 6E48     		ldr	r0, .L188+12
 995 012e FFF7FEFF 		bl	reset_event
 996              	.LVL87:
 153:Middlewares/ST/STM32_SPWF0xSy/wifi_module_uart_01.c ****                     WiFi_Control_Variables.queue_wifi_wind_message = WIFI_TRUE;
 997              		.loc 1 153 0
 998 0132 6A4B     		ldr	r3, .L188
 999 0134 1A79     		ldrb	r2, [r3, #4]	@ zero_extendqisi2
 1000 0136 6FF30002 		bfc	r2, #0, #1
 1001 013a 1A71     		strb	r2, [r3, #4]
 154:Middlewares/ST/STM32_SPWF0xSy/wifi_module_uart_01.c ****                 }
 1002              		.loc 1 154 0
 1003 013c 1A78     		ldrb	r2, [r3]	@ zero_extendqisi2
 1004 013e 42F00202 		orr	r2, r2, #2
 1005 0142 1A70     		strb	r2, [r3]
 1006 0144 C5E7     		b	.L67
 1007              	.L65:
 166:Middlewares/ST/STM32_SPWF0xSy/wifi_module_uart_01.c ****           {
 1008              		.loc 1 166 0
 1009 0146 6E49     		ldr	r1, .L188+36
 1010 0148 6648     		ldr	r0, .L188+8
 1011 014a FFF7FEFF 		bl	strstr
 1012              	.LVL88:
 1013 014e 0028     		cmp	r0, #0
 1014 0150 00F03981 		beq	.L71
 171:Middlewares/ST/STM32_SPWF0xSy/wifi_module_uart_01.c ****                 {
 1015              		.loc 1 171 0
 1016 0154 6B49     		ldr	r1, .L188+40
 1017 0156 6348     		ldr	r0, .L188+8
 1018 0158 FFF7FEFF 		bl	strstr
 1019              	.LVL89:
 1020 015c 0028     		cmp	r0, #0
 1021 015e 36D0     		beq	.L72
 173:Middlewares/ST/STM32_SPWF0xSy/wifi_module_uart_01.c ****                     SocketId_No[1]    = *(pStr + 5) ;
 1022              		.loc 1 173 0
 1023 0160 0379     		ldrb	r3, [r0, #4]	@ zero_extendqisi2
 174:Middlewares/ST/STM32_SPWF0xSy/wifi_module_uart_01.c ****                     wifi_instances.wifi_event.socket_id = (((SocketId_No[0] - '0') * 10 ) + (Socket
 1024              		.loc 1 174 0
 1025 0162 4279     		ldrb	r2, [r0, #5]	@ zero_extendqisi2
 175:Middlewares/ST/STM32_SPWF0xSy/wifi_module_uart_01.c ****                     wifi_instances.wifi_event.event     =  WIFI_SOCK_ID_EVENT;
 1026              		.loc 1 175 0
 1027 0164 303B     		subs	r3, r3, #48
 1028 0166 03EB8303 		add	r3, r3, r3, lsl #2
 1029 016a 02EB4303 		add	r3, r2, r3, lsl #1
 1030 016e 6348     		ldr	r0, .L188+32
 1031              	.LVL90:
 1032 0170 90F82120 		ldrb	r2, [r0, #33]	@ zero_extendqisi2
 1033 0174 63F30302 		bfi	r2, r3, #0, #4
 1034 0178 80F82120 		strb	r2, [r0, #33]
 176:Middlewares/ST/STM32_SPWF0xSy/wifi_module_uart_01.c ****                     __disable_irq();
 1035              		.loc 1 176 0
 1036 017c 0F23     		movs	r3, #15
ARM GAS  D:\cygwin64\tmp\ccuGdUOt.s 			page 47


 1037 017e 80F82630 		strb	r3, [r0, #38]
 1038              	.LBB77:
 1039              	.LBB78:
 1040              		.loc 2 142 0
 1041              		.syntax unified
 1042              	@ 142 "Drivers/CMSIS/Include/cmsis_gcc.h" 1
 1043 0182 72B6     		cpsid i
 1044              	@ 0 "" 2
 1045              		.thumb
 1046              		.syntax unified
 1047              	.LBE78:
 1048              	.LBE77:
 178:Middlewares/ST/STM32_SPWF0xSy/wifi_module_uart_01.c ****                      __enable_irq();
 1049              		.loc 1 178 0
 1050 0184 00F12004 		add	r4, r0, #32
 1051 0188 94E80600 		ldm	r4, {r1, r2}
 1052 018c 1430     		adds	r0, r0, #20
 1053 018e FFF7FEFF 		bl	push_eventbuffer_queue
 1054              	.LVL91:
 1055              	.LBB79:
 1056              	.LBB80:
 131:Drivers/CMSIS/Include/cmsis_gcc.h **** }
 1057              		.loc 2 131 0
 1058              		.syntax unified
 1059              	@ 131 "Drivers/CMSIS/Include/cmsis_gcc.h" 1
 1060 0192 62B6     		cpsie i
 1061              	@ 0 "" 2
 1062              		.thumb
 1063              		.syntax unified
 1064              	.LBE80:
 1065              	.LBE79:
 180:Middlewares/ST/STM32_SPWF0xSy/wifi_module_uart_01.c ****                  }
 1066              		.loc 1 180 0
 1067 0194 2046     		mov	r0, r4
 1068 0196 FFF7FEFF 		bl	reset_event
 1069              	.LVL92:
 1070              	.L73:
 285:Middlewares/ST/STM32_SPWF0xSy/wifi_module_uart_01.c ****               memset(process_buffer, 0x00, MAX_BUFFER_GLOBAL);
 1071              		.loc 1 285 0
 1072 019a 0021     		movs	r1, #0
 1073 019c 504B     		ldr	r3, .L188+4
 1074 019e 1960     		str	r1, [r3]
 286:Middlewares/ST/STM32_SPWF0xSy/wifi_module_uart_01.c **** 
 1075              		.loc 1 286 0
 1076 01a0 4FF40072 		mov	r2, #512
 1077 01a4 4F48     		ldr	r0, .L188+8
 1078 01a6 FFF7FEFF 		bl	memset
 1079              	.LVL93:
 288:Middlewares/ST/STM32_SPWF0xSy/wifi_module_uart_01.c ****                 WiFi_Control_Variables.Q_Contains_Message = WIFI_FALSE;
 1080              		.loc 1 288 0
 1081 01aa 4C4B     		ldr	r3, .L188
 1082 01ac 9B78     		ldrb	r3, [r3, #2]	@ zero_extendqisi2
 1083 01ae 13F0200F 		tst	r3, #32
 1084 01b2 00F00686 		beq	.L62
 288:Middlewares/ST/STM32_SPWF0xSy/wifi_module_uart_01.c ****                 WiFi_Control_Variables.Q_Contains_Message = WIFI_FALSE;
 1085              		.loc 1 288 0 is_stmt 0 discriminator 1
 1086 01b6 494B     		ldr	r3, .L188
ARM GAS  D:\cygwin64\tmp\ccuGdUOt.s 			page 48


 1087 01b8 DB78     		ldrb	r3, [r3, #3]	@ zero_extendqisi2
 1088 01ba 13F0080F 		tst	r3, #8
 1089 01be 00F00086 		beq	.L62
 289:Middlewares/ST/STM32_SPWF0xSy/wifi_module_uart_01.c ****               else
 1090              		.loc 1 289 0 is_stmt 1
 1091 01c2 464B     		ldr	r3, .L188
 1092 01c4 DA78     		ldrb	r2, [r3, #3]	@ zero_extendqisi2
 1093 01c6 6FF3C302 		bfc	r2, #3, #1
 1094 01ca DA70     		strb	r2, [r3, #3]
 1095 01cc FCE2     		b	.L70
 1096              	.LVL94:
 1097              	.L72:
 184:Middlewares/ST/STM32_SPWF0xSy/wifi_module_uart_01.c ****                  {
 1098              		.loc 1 184 0
 1099 01ce 4E49     		ldr	r1, .L188+44
 1100 01d0 4448     		ldr	r0, .L188+8
 1101              	.LVL95:
 1102 01d2 FFF7FEFF 		bl	strstr
 1103              	.LVL96:
 1104 01d6 0028     		cmp	r0, #0
 1105 01d8 5ED0     		beq	.L74
 187:Middlewares/ST/STM32_SPWF0xSy/wifi_module_uart_01.c ****                     databytes_No[1] = *(pStr + 10);
 1106              		.loc 1 187 0
 1107 01da 437A     		ldrb	r3, [r0, #9]	@ zero_extendqisi2
 188:Middlewares/ST/STM32_SPWF0xSy/wifi_module_uart_01.c ****                     databytes_No[2] = *(pStr + 11);
 1108              		.loc 1 188 0
 1109 01dc 817A     		ldrb	r1, [r0, #10]	@ zero_extendqisi2
 189:Middlewares/ST/STM32_SPWF0xSy/wifi_module_uart_01.c ****                     databytes_No[3] = *(pStr + 12);
 1110              		.loc 1 189 0
 1111 01de C27A     		ldrb	r2, [r0, #11]	@ zero_extendqisi2
 190:Middlewares/ST/STM32_SPWF0xSy/wifi_module_uart_01.c **** 
 1112              		.loc 1 190 0
 1113 01e0 007B     		ldrb	r0, [r0, #12]	@ zero_extendqisi2
 1114              	.LVL97:
 192:Middlewares/ST/STM32_SPWF0xSy/wifi_module_uart_01.c ****                       {
 1115              		.loc 1 192 0
 1116 01e2 0D29     		cmp	r1, #13
 1117 01e4 1FD0     		beq	.L166
 196:Middlewares/ST/STM32_SPWF0xSy/wifi_module_uart_01.c ****                       {
 1118              		.loc 1 196 0
 1119 01e6 0D2A     		cmp	r2, #13
 1120 01e8 22D0     		beq	.L167
 200:Middlewares/ST/STM32_SPWF0xSy/wifi_module_uart_01.c ****                       {
 1121              		.loc 1 200 0
 1122 01ea 0D28     		cmp	r0, #13
 1123 01ec 29D0     		beq	.L168
 206:Middlewares/ST/STM32_SPWF0xSy/wifi_module_uart_01.c ****                       }
 1124              		.loc 1 206 0
 1125 01ee 303B     		subs	r3, r3, #48
 1126 01f0 3039     		subs	r1, r1, #48
 1127 01f2 6424     		movs	r4, #100
 1128 01f4 04FB01F1 		mul	r1, r4, r1
 1129 01f8 4FF47A74 		mov	r4, #1000
 1130 01fc 04FB0313 		mla	r3, r4, r3, r1
 1131 0200 303A     		subs	r2, r2, #48
 1132 0202 0A21     		movs	r1, #10
 1133 0204 01FB0233 		mla	r3, r1, r2, r3
ARM GAS  D:\cygwin64\tmp\ccuGdUOt.s 			page 49


 1134 0208 3038     		subs	r0, r0, #48
 1135 020a 0344     		add	r3, r3, r0
 1136 020c 3F4A     		ldr	r2, .L188+48
 1137 020e C2F8A030 		str	r3, [r2, #160]
 1138              	.L76:
 208:Middlewares/ST/STM32_SPWF0xSy/wifi_module_uart_01.c ****                       {
 1139              		.loc 1 208 0
 1140 0212 3E4B     		ldr	r3, .L188+48
 1141 0214 D3F8A030 		ldr	r3, [r3, #160]
 1142 0218 0BB3     		cbz	r3, .L79
 210:Middlewares/ST/STM32_SPWF0xSy/wifi_module_uart_01.c ****                       }
 1143              		.loc 1 210 0
 1144 021a 304A     		ldr	r2, .L188
 1145 021c 5378     		ldrb	r3, [r2, #1]	@ zero_extendqisi2
 1146 021e 43F08003 		orr	r3, r3, #128
 1147 0222 5370     		strb	r3, [r2, #1]
 1148 0224 B9E7     		b	.L73
 1149              	.L166:
 194:Middlewares/ST/STM32_SPWF0xSy/wifi_module_uart_01.c ****                       }
 1150              		.loc 1 194 0
 1151 0226 303B     		subs	r3, r3, #48
 1152 0228 384A     		ldr	r2, .L188+48
 1153 022a C2F8A030 		str	r3, [r2, #160]
 1154 022e F0E7     		b	.L76
 1155              	.L167:
 198:Middlewares/ST/STM32_SPWF0xSy/wifi_module_uart_01.c ****                       }
 1156              		.loc 1 198 0
 1157 0230 303B     		subs	r3, r3, #48
 1158 0232 3039     		subs	r1, r1, #48
 1159 0234 0A22     		movs	r2, #10
 1160 0236 02FB0313 		mla	r3, r2, r3, r1
 1161 023a 344A     		ldr	r2, .L188+48
 1162 023c C2F8A030 		str	r3, [r2, #160]
 1163 0240 E7E7     		b	.L76
 1164              	.L168:
 202:Middlewares/ST/STM32_SPWF0xSy/wifi_module_uart_01.c ****                       }
 1165              		.loc 1 202 0
 1166 0242 303B     		subs	r3, r3, #48
 1167 0244 3039     		subs	r1, r1, #48
 1168 0246 0A20     		movs	r0, #10
 1169 0248 00FB01F1 		mul	r1, r0, r1
 1170 024c 6420     		movs	r0, #100
 1171 024e 00FB0313 		mla	r3, r0, r3, r1
 1172 0252 303A     		subs	r2, r2, #48
 1173 0254 1344     		add	r3, r3, r2
 1174 0256 2D4A     		ldr	r2, .L188+48
 1175 0258 C2F8A030 		str	r3, [r2, #160]
 1176 025c D9E7     		b	.L76
 1177              	.L79:
 214:Middlewares/ST/STM32_SPWF0xSy/wifi_module_uart_01.c ****                           {
 1178              		.loc 1 214 0
 1179 025e 2B4B     		ldr	r3, .L188+48
 1180 0260 1878     		ldrb	r0, [r3]	@ zero_extendqisi2
 1181 0262 C0F3C200 		ubfx	r0, r0, #3, #3
 1182 0266 0344     		add	r3, r3, r0
 1183 0268 93F8E930 		ldrb	r3, [r3, #233]	@ zero_extendqisi2
 1184 026c 53B1     		cbz	r3, .L80
ARM GAS  D:\cygwin64\tmp\ccuGdUOt.s 			page 50


 217:Middlewares/ST/STM32_SPWF0xSy/wifi_module_uart_01.c ****                               {
 1185              		.loc 1 217 0
 1186 026e 284B     		ldr	r3, .L188+52
 1187 0270 1B5C     		ldrb	r3, [r3, r0]	@ zero_extendqisi2
 1188 0272 6BB9     		cbnz	r3, .L169
 1189              	.L81:
 221:Middlewares/ST/STM32_SPWF0xSy/wifi_module_uart_01.c ****                           }
 1190              		.loc 1 221 0
 1191 0274 254B     		ldr	r3, .L188+48
 1192 0276 1A78     		ldrb	r2, [r3]	@ zero_extendqisi2
 1193 0278 C2F3C202 		ubfx	r2, r2, #3, #3
 1194 027c 1344     		add	r3, r3, r2
 1195 027e 0022     		movs	r2, #0
 1196 0280 83F8E920 		strb	r2, [r3, #233]
 1197              	.L80:
 223:Middlewares/ST/STM32_SPWF0xSy/wifi_module_uart_01.c ****                       }
 1198              		.loc 1 223 0
 1199 0284 154B     		ldr	r3, .L188
 1200 0286 1A78     		ldrb	r2, [r3]	@ zero_extendqisi2
 1201 0288 6FF3C302 		bfc	r2, #3, #1
 1202 028c 1A70     		strb	r2, [r3]
 1203 028e 84E7     		b	.L73
 1204              	.L169:
 219:Middlewares/ST/STM32_SPWF0xSy/wifi_module_uart_01.c ****                               }
 1205              		.loc 1 219 0
 1206 0290 0221     		movs	r1, #2
 1207 0292 FFF7FEFF 		bl	Queue_Client_Close_Event
 1208              	.LVL98:
 1209 0296 EDE7     		b	.L81
 1210              	.LVL99:
 1211              	.L74:
 227:Middlewares/ST/STM32_SPWF0xSy/wifi_module_uart_01.c ****                  {
 1212              		.loc 1 227 0
 1213 0298 1E49     		ldr	r1, .L188+56
 1214 029a 1248     		ldr	r0, .L188+8
 1215              	.LVL100:
 1216 029c FFF7FEFF 		bl	strstr
 1217              	.LVL101:
 1218 02a0 0028     		cmp	r0, #0
 1219 02a2 3BD0     		beq	.L82
 230:Middlewares/ST/STM32_SPWF0xSy/wifi_module_uart_01.c ****                     //we need to copy only the value in get_cfg_value variable
 1220              		.loc 1 230 0
 1221 02a4 154D     		ldr	r5, .L188+32
 1222 02a6 0322     		movs	r2, #3
 1223 02a8 85F82620 		strb	r2, [r5, #38]
 232:Middlewares/ST/STM32_SPWF0xSy/wifi_module_uart_01.c ****                     __disable_irq();
 1224              		.loc 1 232 0
 1225 02ac 8418     		adds	r4, r0, r2
 1226 02ae FFF7FEFF 		bl	strlen
 1227              	.LVL102:
 1228 02b2 A0F10B02 		sub	r2, r0, #11
 1229 02b6 2146     		mov	r1, r4
 1230 02b8 1748     		ldr	r0, .L188+60
 1231 02ba FFF7FEFF 		bl	memcpy
 1232              	.LVL103:
 1233              	.LBB81:
 1234              	.LBB82:
ARM GAS  D:\cygwin64\tmp\ccuGdUOt.s 			page 51


 1235              		.loc 2 142 0
 1236              		.syntax unified
 1237              	@ 142 "Drivers/CMSIS/Include/cmsis_gcc.h" 1
 1238 02be 72B6     		cpsid i
 1239              	@ 0 "" 2
 1240              		.thumb
 1241              		.syntax unified
 1242              	.LBE82:
 1243              	.LBE81:
 234:Middlewares/ST/STM32_SPWF0xSy/wifi_module_uart_01.c ****                      __enable_irq();
 1244              		.loc 1 234 0
 1245 02c0 05F12004 		add	r4, r5, #32
 1246              	.LVL104:
 1247 02c4 94E80600 		ldm	r4, {r1, r2}
 1248 02c8 05F11400 		add	r0, r5, #20
 1249 02cc FFF7FEFF 		bl	push_eventbuffer_queue
 1250              	.LVL105:
 1251              	.LBB83:
 1252              	.LBB84:
 131:Drivers/CMSIS/Include/cmsis_gcc.h **** }
 1253              		.loc 2 131 0
 1254              		.syntax unified
 1255              	@ 131 "Drivers/CMSIS/Include/cmsis_gcc.h" 1
 1256 02d0 62B6     		cpsie i
 1257              	@ 0 "" 2
 1258              		.thumb
 1259              		.syntax unified
 1260              	.LBE84:
 1261              	.LBE83:
 236:Middlewares/ST/STM32_SPWF0xSy/wifi_module_uart_01.c ****                  }
 1262              		.loc 1 236 0
 1263 02d2 2046     		mov	r0, r4
 1264 02d4 FFF7FEFF 		bl	reset_event
 1265              	.LVL106:
 1266 02d8 5FE7     		b	.L73
 1267              	.L189:
 1268 02da 00BF     		.align	2
 1269              	.L188:
 1270 02dc 00000000 		.word	WiFi_Control_Variables
 1271 02e0 00000000 		.word	.LANCHOR0
 1272 02e4 00000000 		.word	.LANCHOR1
 1273 02e8 20000000 		.word	wifi_instances+32
 1274 02ec FC000000 		.word	.LC20
 1275 02f0 08010000 		.word	.LC21
 1276 02f4 00000000 		.word	IO_status_flag
 1277 02f8 00000000 		.word	.LC1
 1278 02fc 00000000 		.word	wifi_instances
 1279 0300 00000000 		.word	.LC6
 1280 0304 08000000 		.word	.LC7
 1281 0308 10000000 		.word	.LC8
 1282 030c 00000000 		.word	WiFi_Counter_Variables
 1283 0310 00000000 		.word	open_sockets
 1284 0314 1C000000 		.word	.LC9
 1285 0318 0E000000 		.word	WiFi_Counter_Variables+14
 1286              	.LVL107:
 1287              	.L82:
 249:Middlewares/ST/STM32_SPWF0xSy/wifi_module_uart_01.c ****                       {
ARM GAS  D:\cygwin64\tmp\ccuGdUOt.s 			page 52


 1288              		.loc 1 249 0
 1289 031c 9C4B     		ldr	r3, .L190
 1290 031e 1B78     		ldrb	r3, [r3]	@ zero_extendqisi2
 1291 0320 13F0020F 		tst	r3, #2
 1292 0324 3ED0     		beq	.L83
 252:Middlewares/ST/STM32_SPWF0xSy/wifi_module_uart_01.c ****                             {
 1293              		.loc 1 252 0
 1294 0326 9A4B     		ldr	r3, .L190
 1295 0328 5B78     		ldrb	r3, [r3, #1]	@ zero_extendqisi2
 1296 032a 13F0100F 		tst	r3, #16
 1297 032e 2DD0     		beq	.L84
 254:Middlewares/ST/STM32_SPWF0xSy/wifi_module_uart_01.c ****                                   WiFi_Counter_Variables.no_of_open_client_sockets--;
 1298              		.loc 1 254 0
 1299 0330 984B     		ldr	r3, .L190+4
 1300 0332 DB79     		ldrb	r3, [r3, #7]	@ zero_extendqisi2
 1301 0334 C3F3C203 		ubfx	r3, r3, #3, #3
 1302 0338 2BB1     		cbz	r3, .L85
 255:Middlewares/ST/STM32_SPWF0xSy/wifi_module_uart_01.c ****                                 IO_status_flag.prevent_push_OK_event                         = WIFI
 1303              		.loc 1 255 0
 1304 033a 964A     		ldr	r2, .L190+4
 1305 033c 0733     		adds	r3, r3, #7
 1306 033e D179     		ldrb	r1, [r2, #7]	@ zero_extendqisi2
 1307 0340 63F3C501 		bfi	r1, r3, #3, #3
 1308 0344 D171     		strb	r1, [r2, #7]
 1309              	.L85:
 256:Middlewares/ST/STM32_SPWF0xSy/wifi_module_uart_01.c ****                                 open_sockets[WiFi_Counter_Variables.remote_socket_closed_id] = WIFI
 1310              		.loc 1 256 0
 1311 0346 924B     		ldr	r3, .L190
 1312 0348 1A78     		ldrb	r2, [r3]	@ zero_extendqisi2
 1313 034a 6FF34102 		bfc	r2, #1, #1
 1314 034e 1A70     		strb	r2, [r3]
 257:Middlewares/ST/STM32_SPWF0xSy/wifi_module_uart_01.c ****                                 //socket ID for which OK is received.
 1315              		.loc 1 257 0
 1316 0350 9048     		ldr	r0, .L190+4
 1317              	.LVL108:
 1318 0352 4279     		ldrb	r2, [r0, #5]	@ zero_extendqisi2
 1319 0354 C2F30302 		ubfx	r2, r2, #0, #4
 1320 0358 D4B2     		uxtb	r4, r2
 1321 035a 0021     		movs	r1, #0
 1322 035c 8E4D     		ldr	r5, .L190+8
 1323 035e 2955     		strb	r1, [r5, r4]
 259:Middlewares/ST/STM32_SPWF0xSy/wifi_module_uart_01.c ****                                 IO_status_flag.client_socket_close_ongoing                   = WIFI
 1324              		.loc 1 259 0
 1325 0360 0271     		strb	r2, [r0, #4]
 260:Middlewares/ST/STM32_SPWF0xSy/wifi_module_uart_01.c ****                                 IO_status_flag.client_socket_close_type                      = NET_
 1326              		.loc 1 260 0
 1327 0362 5A78     		ldrb	r2, [r3, #1]	@ zero_extendqisi2
 1328 0364 61F30412 		bfi	r2, r1, #4, #1
 1329 0368 5A70     		strb	r2, [r3, #1]
 261:Middlewares/ST/STM32_SPWF0xSy/wifi_module_uart_01.c **** 
 1330              		.loc 1 261 0
 1331 036a 0222     		movs	r2, #2
 1332 036c DA74     		strb	r2, [r3, #19]
 264:Middlewares/ST/STM32_SPWF0xSy/wifi_module_uart_01.c ****                                   {
 1333              		.loc 1 264 0
 1334 036e 8B4B     		ldr	r3, .L190+12
 1335 0370 9B79     		ldrb	r3, [r3, #6]	@ zero_extendqisi2
ARM GAS  D:\cygwin64\tmp\ccuGdUOt.s 			page 53


 1336 0372 13F0040F 		tst	r3, #4
 1337 0376 0FD0     		beq	.L86
 267:Middlewares/ST/STM32_SPWF0xSy/wifi_module_uart_01.c ****                                   }
 1338              		.loc 1 267 0
 1339 0378 884A     		ldr	r2, .L190+12
 1340 037a 1379     		ldrb	r3, [r2, #4]	@ zero_extendqisi2
 1341 037c 43F04003 		orr	r3, r3, #64
 1342 0380 1371     		strb	r3, [r2, #4]
 1343              	.L87:
 271:Middlewares/ST/STM32_SPWF0xSy/wifi_module_uart_01.c ****                             }
 1344              		.loc 1 271 0
 1345 0382 864B     		ldr	r3, .L190+12
 1346 0384 1A78     		ldrb	r2, [r3]	@ zero_extendqisi2
 1347 0386 6FF3C302 		bfc	r2, #3, #1
 1348 038a 1A70     		strb	r2, [r3]
 1349              	.L84:
 283:Middlewares/ST/STM32_SPWF0xSy/wifi_module_uart_01.c ****                  }
 1350              		.loc 1 283 0
 1351 038c 804A     		ldr	r2, .L190
 1352 038e 1378     		ldrb	r3, [r2]	@ zero_extendqisi2
 1353 0390 6FF34103 		bfc	r3, #1, #1
 1354 0394 1370     		strb	r3, [r2]
 1355 0396 00E7     		b	.L73
 1356              	.L86:
 270:Middlewares/ST/STM32_SPWF0xSy/wifi_module_uart_01.c ****                                 WiFi_Control_Variables.stop_event_dequeue                        = 
 1357              		.loc 1 270 0
 1358 0398 804A     		ldr	r2, .L190+12
 1359 039a 9379     		ldrb	r3, [r2, #6]	@ zero_extendqisi2
 1360 039c 43F00403 		orr	r3, r3, #4
 1361 03a0 9371     		strb	r3, [r2, #6]
 1362 03a2 EEE7     		b	.L87
 1363              	.LVL109:
 1364              	.L83:
 277:Middlewares/ST/STM32_SPWF0xSy/wifi_module_uart_01.c ****                           __disable_irq();
 1365              		.loc 1 277 0
 1366 03a4 7E48     		ldr	r0, .L190+16
 1367              	.LVL110:
 1368 03a6 0223     		movs	r3, #2
 1369 03a8 80F82630 		strb	r3, [r0, #38]
 1370              	.LBB85:
 1371              	.LBB86:
 1372              		.loc 2 142 0
 1373              		.syntax unified
 1374              	@ 142 "Drivers/CMSIS/Include/cmsis_gcc.h" 1
 1375 03ac 72B6     		cpsid i
 1376              	@ 0 "" 2
 1377              		.thumb
 1378              		.syntax unified
 1379              	.LBE86:
 1380              	.LBE85:
 279:Middlewares/ST/STM32_SPWF0xSy/wifi_module_uart_01.c ****                            __enable_irq();
 1381              		.loc 1 279 0
 1382 03ae 00F12004 		add	r4, r0, #32
 1383 03b2 94E80600 		ldm	r4, {r1, r2}
 1384 03b6 1430     		adds	r0, r0, #20
 1385 03b8 FFF7FEFF 		bl	push_eventbuffer_queue
 1386              	.LVL111:
ARM GAS  D:\cygwin64\tmp\ccuGdUOt.s 			page 54


 1387              	.LBB87:
 1388              	.LBB88:
 131:Drivers/CMSIS/Include/cmsis_gcc.h **** }
 1389              		.loc 2 131 0
 1390              		.syntax unified
 1391              	@ 131 "Drivers/CMSIS/Include/cmsis_gcc.h" 1
 1392 03bc 62B6     		cpsie i
 1393              	@ 0 "" 2
 1394              		.thumb
 1395              		.syntax unified
 1396              	.LBE88:
 1397              	.LBE87:
 281:Middlewares/ST/STM32_SPWF0xSy/wifi_module_uart_01.c ****                       }
 1398              		.loc 1 281 0
 1399 03be 2046     		mov	r0, r4
 1400 03c0 FFF7FEFF 		bl	reset_event
 1401              	.LVL112:
 1402 03c4 E2E7     		b	.L84
 1403              	.L71:
 294:Middlewares/ST/STM32_SPWF0xSy/wifi_module_uart_01.c ****           {
 1404              		.loc 1 294 0
 1405 03c6 7749     		ldr	r1, .L190+20
 1406 03c8 7748     		ldr	r0, .L190+24
 1407 03ca FFF7FEFF 		bl	strstr
 1408              	.LVL113:
 1409 03ce 0028     		cmp	r0, #0
 1410 03d0 00F09580 		beq	.L88
 300:Middlewares/ST/STM32_SPWF0xSy/wifi_module_uart_01.c ****                 {
 1411              		.loc 1 300 0
 1412 03d4 7549     		ldr	r1, .L190+28
 1413 03d6 7448     		ldr	r0, .L190+24
 1414 03d8 FFF7FEFF 		bl	strstr
 1415              	.LVL114:
 1416 03dc 0028     		cmp	r0, #0
 1417 03de 3BD0     		beq	.L89
 302:Middlewares/ST/STM32_SPWF0xSy/wifi_module_uart_01.c ****                     //prevent the OK received after socket close command to be Q'ed
 1418              		.loc 1 302 0
 1419 03e0 7348     		ldr	r0, .L190+32
 1420 03e2 FFF7FEFF 		bl	puts
 1421              	.LVL115:
 304:Middlewares/ST/STM32_SPWF0xSy/wifi_module_uart_01.c ****                     IO_status_flag.client_socket_close_ongoing  = WIFI_FALSE;
 1422              		.loc 1 304 0
 1423 03e6 6A4B     		ldr	r3, .L190
 1424 03e8 1A78     		ldrb	r2, [r3]	@ zero_extendqisi2
 1425 03ea 6FF34102 		bfc	r2, #1, #1
 1426 03ee 1A70     		strb	r2, [r3]
 305:Middlewares/ST/STM32_SPWF0xSy/wifi_module_uart_01.c ****                     
 1427              		.loc 1 305 0
 1428 03f0 5A78     		ldrb	r2, [r3, #1]	@ zero_extendqisi2
 1429 03f2 6FF30412 		bfc	r2, #4, #1
 1430 03f6 5A70     		strb	r2, [r3, #1]
 308:Middlewares/ST/STM32_SPWF0xSy/wifi_module_uart_01.c ****                       {
 1431              		.loc 1 308 0
 1432 03f8 684B     		ldr	r3, .L190+12
 1433 03fa 9B79     		ldrb	r3, [r3, #6]	@ zero_extendqisi2
 1434 03fc 13F0040F 		tst	r3, #4
 1435 0400 03D1     		bne	.L90
ARM GAS  D:\cygwin64\tmp\ccuGdUOt.s 			page 55


 311:Middlewares/ST/STM32_SPWF0xSy/wifi_module_uart_01.c ****                       }
 1436              		.loc 1 311 0
 1437 0402 664A     		ldr	r2, .L190+12
 1438 0404 43F00403 		orr	r3, r3, #4
 1439 0408 9371     		strb	r3, [r2, #6]
 1440              	.L90:
 314:Middlewares/ST/STM32_SPWF0xSy/wifi_module_uart_01.c ****                     WiFi_Control_Variables.stop_event_dequeue = WIFI_FALSE;
 1441              		.loc 1 314 0
 1442 040a 624B     		ldr	r3, .L190+4
 1443 040c 5A79     		ldrb	r2, [r3, #5]	@ zero_extendqisi2
 1444 040e 02F00F02 		and	r2, r2, #15
 1445 0412 1344     		add	r3, r3, r2
 1446 0414 0122     		movs	r2, #1
 1447 0416 83F8E920 		strb	r2, [r3, #233]
 315:Middlewares/ST/STM32_SPWF0xSy/wifi_module_uart_01.c ****                 }
 1448              		.loc 1 315 0
 1449 041a 604B     		ldr	r3, .L190+12
 1450 041c 1A78     		ldrb	r2, [r3]	@ zero_extendqisi2
 1451 041e 6FF3C302 		bfc	r2, #3, #1
 1452 0422 1A70     		strb	r2, [r3]
 1453              	.L91:
 353:Middlewares/ST/STM32_SPWF0xSy/wifi_module_uart_01.c ****               memset(process_buffer, 0x00, MAX_BUFFER_GLOBAL);
 1454              		.loc 1 353 0
 1455 0424 0021     		movs	r1, #0
 1456 0426 634B     		ldr	r3, .L190+36
 1457 0428 1960     		str	r1, [r3]
 354:Middlewares/ST/STM32_SPWF0xSy/wifi_module_uart_01.c **** 
 1458              		.loc 1 354 0
 1459 042a 4FF40072 		mov	r2, #512
 1460 042e 5E48     		ldr	r0, .L190+24
 1461 0430 FFF7FEFF 		bl	memset
 1462              	.LVL116:
 356:Middlewares/ST/STM32_SPWF0xSy/wifi_module_uart_01.c ****                 WiFi_Control_Variables.Q_Contains_Message = WIFI_FALSE;
 1463              		.loc 1 356 0
 1464 0434 594B     		ldr	r3, .L190+12
 1465 0436 9B78     		ldrb	r3, [r3, #2]	@ zero_extendqisi2
 1466 0438 13F0200F 		tst	r3, #32
 1467 043c 00F0C184 		beq	.L62
 356:Middlewares/ST/STM32_SPWF0xSy/wifi_module_uart_01.c ****                 WiFi_Control_Variables.Q_Contains_Message = WIFI_FALSE;
 1468              		.loc 1 356 0 is_stmt 0 discriminator 1
 1469 0440 564B     		ldr	r3, .L190+12
 1470 0442 DB78     		ldrb	r3, [r3, #3]	@ zero_extendqisi2
 1471 0444 13F0080F 		tst	r3, #8
 1472 0448 00F0BB84 		beq	.L62
 357:Middlewares/ST/STM32_SPWF0xSy/wifi_module_uart_01.c ****               else
 1473              		.loc 1 357 0 is_stmt 1
 1474 044c 534B     		ldr	r3, .L190+12
 1475 044e DA78     		ldrb	r2, [r3, #3]	@ zero_extendqisi2
 1476 0450 6FF3C302 		bfc	r2, #3, #1
 1477 0454 DA70     		strb	r2, [r3, #3]
 1478 0456 B7E1     		b	.L70
 1479              	.L89:
 318:Middlewares/ST/STM32_SPWF0xSy/wifi_module_uart_01.c ****                        strstr((const char *)process_buffer,"\r\nERROR: Command mode not available\r
 1480              		.loc 1 318 0
 1481 0458 5749     		ldr	r1, .L190+40
 1482 045a 5348     		ldr	r0, .L190+24
 1483 045c FFF7FEFF 		bl	strstr
ARM GAS  D:\cygwin64\tmp\ccuGdUOt.s 			page 56


 1484              	.LVL117:
 1485 0460 B0B1     		cbz	r0, .L170
 1486              	.L92:
 322:Middlewares/ST/STM32_SPWF0xSy/wifi_module_uart_01.c ****                       {
 1487              		.loc 1 322 0
 1488 0462 4E4B     		ldr	r3, .L190+12
 1489 0464 9B78     		ldrb	r3, [r3, #2]	@ zero_extendqisi2
 1490 0466 13F0080F 		tst	r3, #8
 1491 046a DBD0     		beq	.L91
 324:Middlewares/ST/STM32_SPWF0xSy/wifi_module_uart_01.c ****                         WiFi_Control_Variables.stop_event_dequeue = WIFI_FALSE;
 1492              		.loc 1 324 0
 1493 046c 4B4B     		ldr	r3, .L190+12
 1494 046e 9A78     		ldrb	r2, [r3, #2]	@ zero_extendqisi2
 325:Middlewares/ST/STM32_SPWF0xSy/wifi_module_uart_01.c ****                         WiFi_Control_Variables.enable_sock_read   = WIFI_FALSE;
 1495              		.loc 1 325 0
 1496 0470 1978     		ldrb	r1, [r3]	@ zero_extendqisi2
 1497 0472 6FF3C301 		bfc	r1, #3, #1
 1498 0476 1970     		strb	r1, [r3]
 327:Middlewares/ST/STM32_SPWF0xSy/wifi_module_uart_01.c ****                         WiFi_Counter_Variables.chunk_size         = 0;
 1499              		.loc 1 327 0
 1500 0478 02F0D702 		and	r2, r2, #215
 1501 047c 6FF38202 		bfc	r2, #2, #1
 1502 0480 9A70     		strb	r2, [r3, #2]
 328:Middlewares/ST/STM32_SPWF0xSy/wifi_module_uart_01.c ****                         WiFi_Counter_Variables.message_size       = 0;
 1503              		.loc 1 328 0
 1504 0482 444B     		ldr	r3, .L190+4
 1505 0484 0022     		movs	r2, #0
 1506 0486 A3F89620 		strh	r2, [r3, #150]	@ movhi
 329:Middlewares/ST/STM32_SPWF0xSy/wifi_module_uart_01.c ****                       }
 1507              		.loc 1 329 0
 1508 048a C3F8B420 		str	r2, [r3, #180]
 1509 048e C9E7     		b	.L91
 1510              	.L170:
 319:Middlewares/ST/STM32_SPWF0xSy/wifi_module_uart_01.c ****                 {
 1511              		.loc 1 319 0 discriminator 1
 1512 0490 4A49     		ldr	r1, .L190+44
 1513 0492 4548     		ldr	r0, .L190+24
 1514 0494 FFF7FEFF 		bl	strstr
 1515              	.LVL118:
 318:Middlewares/ST/STM32_SPWF0xSy/wifi_module_uart_01.c ****                        strstr((const char *)process_buffer,"\r\nERROR: Command mode not available\r
 1516              		.loc 1 318 0 discriminator 1
 1517 0498 0028     		cmp	r0, #0
 1518 049a E2D1     		bne	.L92
 335:Middlewares/ST/STM32_SPWF0xSy/wifi_module_uart_01.c ****                     {
 1519              		.loc 1 335 0
 1520 049c 4849     		ldr	r1, .L190+48
 1521 049e 4248     		ldr	r0, .L190+24
 1522 04a0 FFF7FEFF 		bl	strstr
 1523              	.LVL119:
 1524 04a4 10B1     		cbz	r0, .L94
 337:Middlewares/ST/STM32_SPWF0xSy/wifi_module_uart_01.c ****                     }
 1525              		.loc 1 337 0
 1526 04a6 4748     		ldr	r0, .L190+52
 1527 04a8 FFF7FEFF 		bl	puts
 1528              	.LVL120:
 1529              	.L94:
 339:Middlewares/ST/STM32_SPWF0xSy/wifi_module_uart_01.c ****                     __disable_irq();
ARM GAS  D:\cygwin64\tmp\ccuGdUOt.s 			page 57


 1530              		.loc 1 339 0
 1531 04ac 3C48     		ldr	r0, .L190+16
 1532 04ae 0823     		movs	r3, #8
 1533 04b0 80F82630 		strb	r3, [r0, #38]
 1534              	.LBB89:
 1535              	.LBB90:
 1536              		.loc 2 142 0
 1537              		.syntax unified
 1538              	@ 142 "Drivers/CMSIS/Include/cmsis_gcc.h" 1
 1539 04b4 72B6     		cpsid i
 1540              	@ 0 "" 2
 1541              		.thumb
 1542              		.syntax unified
 1543              	.LBE90:
 1544              	.LBE89:
 341:Middlewares/ST/STM32_SPWF0xSy/wifi_module_uart_01.c ****                      __enable_irq();
 1545              		.loc 1 341 0
 1546 04b6 00F12004 		add	r4, r0, #32
 1547 04ba 94E80600 		ldm	r4, {r1, r2}
 1548 04be 1430     		adds	r0, r0, #20
 1549 04c0 FFF7FEFF 		bl	push_eventbuffer_queue
 1550              	.LVL121:
 1551              	.LBB91:
 1552              	.LBB92:
 131:Drivers/CMSIS/Include/cmsis_gcc.h **** }
 1553              		.loc 2 131 0
 1554              		.syntax unified
 1555              	@ 131 "Drivers/CMSIS/Include/cmsis_gcc.h" 1
 1556 04c4 62B6     		cpsie i
 1557              	@ 0 "" 2
 1558              		.thumb
 1559              		.syntax unified
 1560              	.LBE92:
 1561              	.LBE91:
 343:Middlewares/ST/STM32_SPWF0xSy/wifi_module_uart_01.c ****                     if(WiFi_Control_Variables.stop_event_dequeue)
 1562              		.loc 1 343 0
 1563 04c6 2046     		mov	r0, r4
 1564 04c8 FFF7FEFF 		bl	reset_event
 1565              	.LVL122:
 344:Middlewares/ST/STM32_SPWF0xSy/wifi_module_uart_01.c ****                       /*ERROR:Illegal Socket ID*/
 1566              		.loc 1 344 0
 1567 04cc 334B     		ldr	r3, .L190+12
 1568 04ce 1B78     		ldrb	r3, [r3]	@ zero_extendqisi2
 1569 04d0 13F0080F 		tst	r3, #8
 1570 04d4 04D0     		beq	.L95
 346:Middlewares/ST/STM32_SPWF0xSy/wifi_module_uart_01.c ****                     if(WiFi_Control_Variables.enable_timeout_timer)
 1571              		.loc 1 346 0
 1572 04d6 314B     		ldr	r3, .L190+12
 1573 04d8 1A78     		ldrb	r2, [r3]	@ zero_extendqisi2
 1574 04da 6FF3C302 		bfc	r2, #3, #1
 1575 04de 1A70     		strb	r2, [r3]
 1576              	.L95:
 347:Middlewares/ST/STM32_SPWF0xSy/wifi_module_uart_01.c ****                       {
 1577              		.loc 1 347 0
 1578 04e0 2E4B     		ldr	r3, .L190+12
 1579 04e2 5B79     		ldrb	r3, [r3, #5]	@ zero_extendqisi2
 1580 04e4 13F0200F 		tst	r3, #32
ARM GAS  D:\cygwin64\tmp\ccuGdUOt.s 			page 58


 1581 04e8 9CD0     		beq	.L91
 349:Middlewares/ST/STM32_SPWF0xSy/wifi_module_uart_01.c ****                         WiFi_Counter_Variables.timeout_tick = 0;
 1582              		.loc 1 349 0
 1583 04ea 2C4B     		ldr	r3, .L190+12
 1584 04ec 5A79     		ldrb	r2, [r3, #5]	@ zero_extendqisi2
 1585 04ee 6FF34512 		bfc	r2, #5, #1
 1586 04f2 5A71     		strb	r2, [r3, #5]
 350:Middlewares/ST/STM32_SPWF0xSy/wifi_module_uart_01.c ****                       }
 1587              		.loc 1 350 0
 1588 04f4 0022     		movs	r2, #0
 1589 04f6 274B     		ldr	r3, .L190+4
 1590 04f8 C3F8CC20 		str	r2, [r3, #204]
 1591 04fc 92E7     		b	.L91
 1592              	.L88:
 362:Middlewares/ST/STM32_SPWF0xSy/wifi_module_uart_01.c ****           {
 1593              		.loc 1 362 0
 1594 04fe 3249     		ldr	r1, .L190+56
 1595 0500 2948     		ldr	r0, .L190+24
 1596 0502 FFF7FEFF 		bl	strstr
 1597              	.LVL123:
 1598 0506 0028     		cmp	r0, #0
 1599 0508 64D0     		beq	.L96
 365:Middlewares/ST/STM32_SPWF0xSy/wifi_module_uart_01.c ****               if(pStr != NULL)
 1600              		.loc 1 365 0
 1601 050a 3049     		ldr	r1, .L190+60
 1602 050c 2648     		ldr	r0, .L190+24
 1603 050e FFF7FEFF 		bl	strstr
 1604              	.LVL124:
 366:Middlewares/ST/STM32_SPWF0xSy/wifi_module_uart_01.c ****                 {
 1605              		.loc 1 366 0
 1606 0512 0028     		cmp	r0, #0
 1607 0514 34D0     		beq	.L97
 368:Middlewares/ST/STM32_SPWF0xSy/wifi_module_uart_01.c ****                 } 
 1608              		.loc 1 368 0
 1609 0516 0022     		movs	r2, #0
 1610 0518 1E4B     		ldr	r3, .L190+4
 1611 051a 5A72     		strb	r2, [r3, #9]
 1612              	.L98:
 374:Middlewares/ST/STM32_SPWF0xSy/wifi_module_uart_01.c ****               if(pStr != NULL)
 1613              		.loc 1 374 0
 1614 051c 2C49     		ldr	r1, .L190+64
 1615 051e 2248     		ldr	r0, .L190+24
 1616              	.LVL125:
 1617 0520 FFF7FEFF 		bl	strstr
 1618              	.LVL126:
 375:Middlewares/ST/STM32_SPWF0xSy/wifi_module_uart_01.c ****                 {
 1619              		.loc 1 375 0
 1620 0524 80B3     		cbz	r0, .L99
 377:Middlewares/ST/STM32_SPWF0xSy/wifi_module_uart_01.c ****                 }
 1621              		.loc 1 377 0
 1622 0526 0022     		movs	r2, #0
 1623 0528 1A4B     		ldr	r3, .L190+4
 1624 052a 9A72     		strb	r2, [r3, #10]
 1625              	.L100:
 384:Middlewares/ST/STM32_SPWF0xSy/wifi_module_uart_01.c ****               __disable_irq();
 1626              		.loc 1 384 0
 1627 052c 1C48     		ldr	r0, .L190+16
ARM GAS  D:\cygwin64\tmp\ccuGdUOt.s 			page 59


 1628              	.LVL127:
 1629 052e 0423     		movs	r3, #4
 1630 0530 80F82630 		strb	r3, [r0, #38]
 1631              	.LBB93:
 1632              	.LBB94:
 1633              		.loc 2 142 0
 1634              		.syntax unified
 1635              	@ 142 "Drivers/CMSIS/Include/cmsis_gcc.h" 1
 1636 0534 72B6     		cpsid i
 1637              	@ 0 "" 2
 1638              		.thumb
 1639              		.syntax unified
 1640              	.LBE94:
 1641              	.LBE93:
 386:Middlewares/ST/STM32_SPWF0xSy/wifi_module_uart_01.c ****                __enable_irq();
 1642              		.loc 1 386 0
 1643 0536 00F12004 		add	r4, r0, #32
 1644 053a 94E80600 		ldm	r4, {r1, r2}
 1645 053e 1430     		adds	r0, r0, #20
 1646 0540 FFF7FEFF 		bl	push_eventbuffer_queue
 1647              	.LVL128:
 1648              	.LBB95:
 1649              	.LBB96:
 131:Drivers/CMSIS/Include/cmsis_gcc.h **** }
 1650              		.loc 2 131 0
 1651              		.syntax unified
 1652              	@ 131 "Drivers/CMSIS/Include/cmsis_gcc.h" 1
 1653 0544 62B6     		cpsie i
 1654              	@ 0 "" 2
 1655              		.thumb
 1656              		.syntax unified
 1657              	.LBE96:
 1658              	.LBE95:
 388:Middlewares/ST/STM32_SPWF0xSy/wifi_module_uart_01.c ****               Fillptr=0;
 1659              		.loc 1 388 0
 1660 0546 2046     		mov	r0, r4
 1661 0548 FFF7FEFF 		bl	reset_event
 1662              	.LVL129:
 389:Middlewares/ST/STM32_SPWF0xSy/wifi_module_uart_01.c ****               memset(process_buffer, 0x00, MAX_BUFFER_GLOBAL);
 1663              		.loc 1 389 0
 1664 054c 0021     		movs	r1, #0
 1665 054e 194B     		ldr	r3, .L190+36
 1666 0550 1960     		str	r1, [r3]
 390:Middlewares/ST/STM32_SPWF0xSy/wifi_module_uart_01.c **** 
 1667              		.loc 1 390 0
 1668 0552 4FF40072 		mov	r2, #512
 1669 0556 1448     		ldr	r0, .L190+24
 1670 0558 FFF7FEFF 		bl	memset
 1671              	.LVL130:
 392:Middlewares/ST/STM32_SPWF0xSy/wifi_module_uart_01.c ****                 WiFi_Control_Variables.Q_Contains_Message = WIFI_FALSE;
 1672              		.loc 1 392 0
 1673 055c 0F4B     		ldr	r3, .L190+12
 1674 055e 9B78     		ldrb	r3, [r3, #2]	@ zero_extendqisi2
 1675 0560 13F0200F 		tst	r3, #32
 1676 0564 00F02D84 		beq	.L62
 392:Middlewares/ST/STM32_SPWF0xSy/wifi_module_uart_01.c ****                 WiFi_Control_Variables.Q_Contains_Message = WIFI_FALSE;
 1677              		.loc 1 392 0 is_stmt 0 discriminator 1
ARM GAS  D:\cygwin64\tmp\ccuGdUOt.s 			page 60


 1678 0568 0C4B     		ldr	r3, .L190+12
 1679 056a DB78     		ldrb	r3, [r3, #3]	@ zero_extendqisi2
 1680 056c 13F0080F 		tst	r3, #8
 1681 0570 00F02784 		beq	.L62
 393:Middlewares/ST/STM32_SPWF0xSy/wifi_module_uart_01.c ****               else
 1682              		.loc 1 393 0 is_stmt 1
 1683 0574 094B     		ldr	r3, .L190+12
 1684 0576 DA78     		ldrb	r2, [r3, #3]	@ zero_extendqisi2
 1685 0578 6FF3C302 		bfc	r2, #3, #1
 1686 057c DA70     		strb	r2, [r3, #3]
 1687 057e 23E1     		b	.L70
 1688              	.LVL131:
 1689              	.L97:
 372:Middlewares/ST/STM32_SPWF0xSy/wifi_module_uart_01.c ****                 }
 1690              		.loc 1 372 0
 1691 0580 0122     		movs	r2, #1
 1692 0582 044B     		ldr	r3, .L190+4
 1693 0584 5A72     		strb	r2, [r3, #9]
 1694 0586 C9E7     		b	.L98
 1695              	.L99:
 381:Middlewares/ST/STM32_SPWF0xSy/wifi_module_uart_01.c ****                 }
 1696              		.loc 1 381 0
 1697 0588 0122     		movs	r2, #1
 1698 058a 024B     		ldr	r3, .L190+4
 1699 058c 9A72     		strb	r2, [r3, #10]
 1700 058e CDE7     		b	.L100
 1701              	.L191:
 1702              		.align	2
 1703              	.L190:
 1704 0590 00000000 		.word	IO_status_flag
 1705 0594 00000000 		.word	WiFi_Counter_Variables
 1706 0598 00000000 		.word	open_sockets
 1707 059c 00000000 		.word	WiFi_Control_Variables
 1708 05a0 00000000 		.word	wifi_instances
 1709 05a4 20000000 		.word	.LC10
 1710 05a8 00000000 		.word	.LANCHOR1
 1711 05ac 28000000 		.word	.LC11
 1712 05b0 40000000 		.word	.LC12
 1713 05b4 00000000 		.word	.LANCHOR0
 1714 05b8 74000000 		.word	.LC13
 1715 05bc 98000000 		.word	.LC14
 1716 05c0 C0000000 		.word	.LC15
