ARM GAS  D:\cygwin64\tmp\ccuGdUOt.s 			page 1


   1              		.cpu cortex-m4
   2              		.eabi_attribute 27, 1
   3              		.eabi_attribute 28, 1
   4              		.eabi_attribute 20, 1
   5              		.eabi_attribute 21, 1
   6              		.eabi_attribute 23, 3
   7              		.eabi_attribute 24, 1
   8              		.eabi_attribute 25, 1
   9              		.eabi_attribute 26, 1
  10              		.eabi_attribute 30, 1
  11              		.eabi_attribute 34, 1
  12              		.eabi_attribute 18, 4
  13              		.file	"wifi_module_uart_01.c"
  14              		.text
  15              	.Ltext0:
  16              		.cfi_sections	.debug_frame
  17              		.section	.text.SET_Power_State,"ax",%progbits
  18              		.align	1
  19              		.global	SET_Power_State
  20              		.syntax unified
  21              		.thumb
  22              		.thumb_func
  23              		.fpu fpv4-sp-d16
  25              	SET_Power_State:
  26              	.LFB275:
  27              		.file 1 "Middlewares/ST/STM32_SPWF0xSy/wifi_module_uart_01.c"
   1:Middlewares/ST/STM32_SPWF0xSy/wifi_module_uart_01.c **** /**
   2:Middlewares/ST/STM32_SPWF0xSy/wifi_module_uart_01.c ****  ******************************************************************************
   3:Middlewares/ST/STM32_SPWF0xSy/wifi_module_uart_01.c ****  * @file    wifi_module_uart_01.c
   4:Middlewares/ST/STM32_SPWF0xSy/wifi_module_uart_01.c ****  * @author  Central LAB
   5:Middlewares/ST/STM32_SPWF0xSy/wifi_module_uart_01.c ****  * @version V2.1.0
   6:Middlewares/ST/STM32_SPWF0xSy/wifi_module_uart_01.c ****  * @date    25-Nov-2016
   7:Middlewares/ST/STM32_SPWF0xSy/wifi_module_uart_01.c ****  * @brief   Enable Wi-Fi functionality using AT cmd set
   8:Middlewares/ST/STM32_SPWF0xSy/wifi_module_uart_01.c ****  ******************************************************************************
   9:Middlewares/ST/STM32_SPWF0xSy/wifi_module_uart_01.c ****  * @attention
  10:Middlewares/ST/STM32_SPWF0xSy/wifi_module_uart_01.c ****  *
  11:Middlewares/ST/STM32_SPWF0xSy/wifi_module_uart_01.c ****  * <h2><center>&copy; COPYRIGHT(c) 2015 STMicroelectronics</center></h2>
  12:Middlewares/ST/STM32_SPWF0xSy/wifi_module_uart_01.c ****  *
  13:Middlewares/ST/STM32_SPWF0xSy/wifi_module_uart_01.c ****  * Redistribution and use in source and binary forms, with or without modification,
  14:Middlewares/ST/STM32_SPWF0xSy/wifi_module_uart_01.c ****  * are permitted provided that the following conditions are met:
  15:Middlewares/ST/STM32_SPWF0xSy/wifi_module_uart_01.c ****  *   1. Redistributions of source code must retain the above copyright notice,
  16:Middlewares/ST/STM32_SPWF0xSy/wifi_module_uart_01.c ****  *      this list of conditions and the following disclaimer.
  17:Middlewares/ST/STM32_SPWF0xSy/wifi_module_uart_01.c ****  *   2. Redistributions in binary form must reproduce the above copyright notice,
  18:Middlewares/ST/STM32_SPWF0xSy/wifi_module_uart_01.c ****  *      this list of conditions and the following disclaimer in the documentation
  19:Middlewares/ST/STM32_SPWF0xSy/wifi_module_uart_01.c ****  *      and/or other materials provided with the distribution.
  20:Middlewares/ST/STM32_SPWF0xSy/wifi_module_uart_01.c ****  *   3. Neither the name of STMicroelectronics nor the names of its contributors
  21:Middlewares/ST/STM32_SPWF0xSy/wifi_module_uart_01.c ****  *      may be used to endorse or promote products derived from this software
  22:Middlewares/ST/STM32_SPWF0xSy/wifi_module_uart_01.c ****  *      without specific prior written permission.
  23:Middlewares/ST/STM32_SPWF0xSy/wifi_module_uart_01.c ****  *
  24:Middlewares/ST/STM32_SPWF0xSy/wifi_module_uart_01.c ****  * THIS SOFTWARE IS PROVIDED BY THE COPYRIGHT HOLDERS AND CONTRIBUTORS "AS IS"
  25:Middlewares/ST/STM32_SPWF0xSy/wifi_module_uart_01.c ****  * AND ANY EXPRESS OR IMPLIED WARRANTIES, INCLUDING, BUT NOT LIMITED TO, THE
  26:Middlewares/ST/STM32_SPWF0xSy/wifi_module_uart_01.c ****  * IMPLIED WARRANTIES OF MERCHANTABILITY AND FITNESS FOR A PARTICULAR PURPOSE ARE
  27:Middlewares/ST/STM32_SPWF0xSy/wifi_module_uart_01.c ****  * DISCLAIMED. IN NO EVENT SHALL THE COPYRIGHT HOLDER OR CONTRIBUTORS BE LIABLE
  28:Middlewares/ST/STM32_SPWF0xSy/wifi_module_uart_01.c ****  * FOR ANY DIRECT, INDIRECT, INCIDENTAL, SPECIAL, EXEMPLARY, OR CONSEQUENTIAL
  29:Middlewares/ST/STM32_SPWF0xSy/wifi_module_uart_01.c ****  * DAMAGES (INCLUDING, BUT NOT LIMITED TO, PROCUREMENT OF SUBSTITUTE GOODS OR
  30:Middlewares/ST/STM32_SPWF0xSy/wifi_module_uart_01.c ****  * SERVICES; LOSS OF USE, DATA, OR PROFITS; OR BUSINESS INTERRUPTION) HOWEVER
  31:Middlewares/ST/STM32_SPWF0xSy/wifi_module_uart_01.c ****  * CAUSED AND ON ANY THEORY OF LIABILITY, WHETHER IN CONTRACT, STRICT LIABILITY,
ARM GAS  D:\cygwin64\tmp\ccuGdUOt.s 			page 2


  32:Middlewares/ST/STM32_SPWF0xSy/wifi_module_uart_01.c ****  * OR TORT (INCLUDING NEGLIGENCE OR OTHERWISE) ARISING IN ANY WAY OUT OF THE USE
  33:Middlewares/ST/STM32_SPWF0xSy/wifi_module_uart_01.c ****  * OF THIS SOFTWARE, EVEN IF ADVISED OF THE POSSIBILITY OF SUCH DAMAGE.
  34:Middlewares/ST/STM32_SPWF0xSy/wifi_module_uart_01.c ****  *
  35:Middlewares/ST/STM32_SPWF0xSy/wifi_module_uart_01.c ****  ******************************************************************************
  36:Middlewares/ST/STM32_SPWF0xSy/wifi_module_uart_01.c ****  */
  37:Middlewares/ST/STM32_SPWF0xSy/wifi_module_uart_01.c **** /* Includes ------------------------------------------------------------------*/
  38:Middlewares/ST/STM32_SPWF0xSy/wifi_module_uart_01.c **** #include "wifi_module.h"
  39:Middlewares/ST/STM32_SPWF0xSy/wifi_module_uart_01.c **** #include "wifi_globals.h"
  40:Middlewares/ST/STM32_SPWF0xSy/wifi_module_uart_01.c **** 
  41:Middlewares/ST/STM32_SPWF0xSy/wifi_module_uart_01.c **** /** @addtogroup MIDDLEWARES
  42:Middlewares/ST/STM32_SPWF0xSy/wifi_module_uart_01.c **** * @{
  43:Middlewares/ST/STM32_SPWF0xSy/wifi_module_uart_01.c **** */
  44:Middlewares/ST/STM32_SPWF0xSy/wifi_module_uart_01.c **** 
  45:Middlewares/ST/STM32_SPWF0xSy/wifi_module_uart_01.c **** /** @defgroup  NUCLEO_WIFI_MODULE
  46:Middlewares/ST/STM32_SPWF0xSy/wifi_module_uart_01.c ****   * @brief Wi-Fi driver modules
  47:Middlewares/ST/STM32_SPWF0xSy/wifi_module_uart_01.c ****   * @{
  48:Middlewares/ST/STM32_SPWF0xSy/wifi_module_uart_01.c ****   */
  49:Middlewares/ST/STM32_SPWF0xSy/wifi_module_uart_01.c **** 
  50:Middlewares/ST/STM32_SPWF0xSy/wifi_module_uart_01.c **** /** @defgroup NUCLEO_WIFI_MODULE_Private_Defines
  51:Middlewares/ST/STM32_SPWF0xSy/wifi_module_uart_01.c ****   * @{
  52:Middlewares/ST/STM32_SPWF0xSy/wifi_module_uart_01.c ****   */
  53:Middlewares/ST/STM32_SPWF0xSy/wifi_module_uart_01.c **** 
  54:Middlewares/ST/STM32_SPWF0xSy/wifi_module_uart_01.c **** /**
  55:Middlewares/ST/STM32_SPWF0xSy/wifi_module_uart_01.c ****   * @}
  56:Middlewares/ST/STM32_SPWF0xSy/wifi_module_uart_01.c ****   */
  57:Middlewares/ST/STM32_SPWF0xSy/wifi_module_uart_01.c **** 
  58:Middlewares/ST/STM32_SPWF0xSy/wifi_module_uart_01.c **** /** @addtogroup NUCLEO_WIFI_MODULE_Private_Variables
  59:Middlewares/ST/STM32_SPWF0xSy/wifi_module_uart_01.c ****   * @{
  60:Middlewares/ST/STM32_SPWF0xSy/wifi_module_uart_01.c ****   */
  61:Middlewares/ST/STM32_SPWF0xSy/wifi_module_uart_01.c **** 
  62:Middlewares/ST/STM32_SPWF0xSy/wifi_module_uart_01.c **** 
  63:Middlewares/ST/STM32_SPWF0xSy/wifi_module_uart_01.c **** #if defined(SPWF01) && defined(CONSOLE_UART_ENABLED)
  64:Middlewares/ST/STM32_SPWF0xSy/wifi_module_uart_01.c **** 
  65:Middlewares/ST/STM32_SPWF0xSy/wifi_module_uart_01.c **** extern wifi_instances_t wifi_instances;
  66:Middlewares/ST/STM32_SPWF0xSy/wifi_module_uart_01.c **** 
  67:Middlewares/ST/STM32_SPWF0xSy/wifi_module_uart_01.c **** #ifdef SPWF01
  68:Middlewares/ST/STM32_SPWF0xSy/wifi_module_uart_01.c **** /**
  69:Middlewares/ST/STM32_SPWF0xSy/wifi_module_uart_01.c **** * @brief  SET_Power_State
  70:Middlewares/ST/STM32_SPWF0xSy/wifi_module_uart_01.c **** *         SET power mode of wifi module
  71:Middlewares/ST/STM32_SPWF0xSy/wifi_module_uart_01.c **** * @param  state : power mode of wi-fi module i.e active,sleep,standby,powersave
  72:Middlewares/ST/STM32_SPWF0xSy/wifi_module_uart_01.c **** * @retval WiFi_Status_t : status of AT cmd Request
  73:Middlewares/ST/STM32_SPWF0xSy/wifi_module_uart_01.c **** */
  74:Middlewares/ST/STM32_SPWF0xSy/wifi_module_uart_01.c **** WiFi_Status_t SET_Power_State(WiFi_Power_State_t state)
  75:Middlewares/ST/STM32_SPWF0xSy/wifi_module_uart_01.c **** {
  28              		.loc 1 75 0
  29              		.cfi_startproc
  30              		@ args = 0, pretend = 0, frame = 0
  31              		@ frame_needed = 0, uses_anonymous_args = 0
  32              	.LVL0:
  33 0000 38B5     		push	{r3, r4, r5, lr}
  34              	.LCFI0:
  35              		.cfi_def_cfa_offset 16
  36              		.cfi_offset 3, -16
  37              		.cfi_offset 4, -12
  38              		.cfi_offset 5, -8
  39              		.cfi_offset 14, -4
  40 0002 0546     		mov	r5, r0
ARM GAS  D:\cygwin64\tmp\ccuGdUOt.s 			page 3


  41              	.LVL1:
  76:Middlewares/ST/STM32_SPWF0xSy/wifi_module_uart_01.c ****   WiFi_Status_t status = WiFi_MODULE_SUCCESS;
  77:Middlewares/ST/STM32_SPWF0xSy/wifi_module_uart_01.c **** 
  78:Middlewares/ST/STM32_SPWF0xSy/wifi_module_uart_01.c **** #if DEBUG_PRINT  
  79:Middlewares/ST/STM32_SPWF0xSy/wifi_module_uart_01.c ****   printf("\r\n >>Soft Reset Wi-Fi module\r\n");
  80:Middlewares/ST/STM32_SPWF0xSy/wifi_module_uart_01.c **** #endif
  81:Middlewares/ST/STM32_SPWF0xSy/wifi_module_uart_01.c **** 
  82:Middlewares/ST/STM32_SPWF0xSy/wifi_module_uart_01.c ****   Reset_AT_CMD_Buffer();
  42              		.loc 1 82 0
  43 0004 FFF7FEFF 		bl	Reset_AT_CMD_Buffer
  44              	.LVL2:
  83:Middlewares/ST/STM32_SPWF0xSy/wifi_module_uart_01.c **** 
  84:Middlewares/ST/STM32_SPWF0xSy/wifi_module_uart_01.c ****   /* AT : send AT command */
  85:Middlewares/ST/STM32_SPWF0xSy/wifi_module_uart_01.c ****   sprintf((char*)WiFi_AT_Cmd_Buff,AT_SET_POWER_STATE,state);  
  45              		.loc 1 85 0
  46 0008 0E4C     		ldr	r4, .L7
  47 000a 2A46     		mov	r2, r5
  48 000c 0E49     		ldr	r1, .L7+4
  49 000e 2046     		mov	r0, r4
  50 0010 FFF7FEFF 		bl	sprintf
  51              	.LVL3:
  86:Middlewares/ST/STM32_SPWF0xSy/wifi_module_uart_01.c **** //  WiFi_WIND_State.WiFiReset = WIFI_FALSE;
  87:Middlewares/ST/STM32_SPWF0xSy/wifi_module_uart_01.c ****   IO_status_flag.WiFi_WIND_State = Undefine_state;
  52              		.loc 1 87 0
  53 0014 FF22     		movs	r2, #255
  54 0016 0D4B     		ldr	r3, .L7+8
  55 0018 9A75     		strb	r2, [r3, #22]
  88:Middlewares/ST/STM32_SPWF0xSy/wifi_module_uart_01.c ****   status = USART_Transmit_AT_Cmd(strlen((char*)WiFi_AT_Cmd_Buff));
  56              		.loc 1 88 0
  57 001a 2046     		mov	r0, r4
  58 001c FFF7FEFF 		bl	strlen
  59              	.LVL4:
  60 0020 80B2     		uxth	r0, r0
  61 0022 FFF7FEFF 		bl	USART_Transmit_AT_Cmd
  62              	.LVL5:
  89:Middlewares/ST/STM32_SPWF0xSy/wifi_module_uart_01.c ****   if(status != WiFi_MODULE_SUCCESS) 
  63              		.loc 1 89 0
  64 0026 0246     		mov	r2, r0
  65 0028 08B1     		cbz	r0, .L6
  66              	.L2:
  90:Middlewares/ST/STM32_SPWF0xSy/wifi_module_uart_01.c ****     return status;
  91:Middlewares/ST/STM32_SPWF0xSy/wifi_module_uart_01.c ****   memset((void*)&IO_status_flag.WiFi_WIND_State,0x00,sizeof(IO_status_flag.WiFi_WIND_State)); /*res
  92:Middlewares/ST/STM32_SPWF0xSy/wifi_module_uart_01.c ****   /* AT+CFUN=1 //Soft reset */
  93:Middlewares/ST/STM32_SPWF0xSy/wifi_module_uart_01.c ****   while(IO_status_flag.WiFi_WIND_State != WiFiHWStarted)
  94:Middlewares/ST/STM32_SPWF0xSy/wifi_module_uart_01.c ****   {
  95:Middlewares/ST/STM32_SPWF0xSy/wifi_module_uart_01.c ****     __NOP(); //nothing to do
  96:Middlewares/ST/STM32_SPWF0xSy/wifi_module_uart_01.c ****   }
  97:Middlewares/ST/STM32_SPWF0xSy/wifi_module_uart_01.c ****   return status;
  98:Middlewares/ST/STM32_SPWF0xSy/wifi_module_uart_01.c **** }
  67              		.loc 1 98 0
  68 002a 1046     		mov	r0, r2
  69              	.LVL6:
  70 002c 38BD     		pop	{r3, r4, r5, pc}
  71              	.LVL7:
  72              	.L6:
  91:Middlewares/ST/STM32_SPWF0xSy/wifi_module_uart_01.c ****   /* AT+CFUN=1 //Soft reset */
  73              		.loc 1 91 0
ARM GAS  D:\cygwin64\tmp\ccuGdUOt.s 			page 4


  74 002e 0021     		movs	r1, #0
  75 0030 074B     		ldr	r3, .L7+12
  76 0032 1970     		strb	r1, [r3]
  93:Middlewares/ST/STM32_SPWF0xSy/wifi_module_uart_01.c ****   {
  77              		.loc 1 93 0
  78 0034 00E0     		b	.L3
  79              	.L4:
  95:Middlewares/ST/STM32_SPWF0xSy/wifi_module_uart_01.c ****   }
  80              		.loc 1 95 0
  81              		.syntax unified
  82              	@ 95 "Middlewares/ST/STM32_SPWF0xSy/wifi_module_uart_01.c" 1
  83 0036 00BF     		nop
  84              	@ 0 "" 2
  85              		.thumb
  86              		.syntax unified
  87              	.L3:
  93:Middlewares/ST/STM32_SPWF0xSy/wifi_module_uart_01.c ****   {
  88              		.loc 1 93 0
  89 0038 044B     		ldr	r3, .L7+8
  90 003a 9B7D     		ldrb	r3, [r3, #22]	@ zero_extendqisi2
  91 003c DBB2     		uxtb	r3, r3
  92 003e 0E2B     		cmp	r3, #14
  93 0040 F9D1     		bne	.L4
  94 0042 F2E7     		b	.L2
  95              	.L8:
  96              		.align	2
  97              	.L7:
  98 0044 00000000 		.word	WiFi_AT_Cmd_Buff
  99 0048 00000000 		.word	.LC0
 100 004c 00000000 		.word	IO_status_flag
 101 0050 16000000 		.word	IO_status_flag+22
 102              		.cfi_endproc
 103              	.LFE275:
 105              		.section	.text.Process_Wind_Indication,"ax",%progbits
 106              		.align	1
 107              		.global	Process_Wind_Indication
 108              		.syntax unified
 109              		.thumb
 110              		.thumb_func
 111              		.fpu fpv4-sp-d16
 113              	Process_Wind_Indication:
 114              	.LFB277:
  99:Middlewares/ST/STM32_SPWF0xSy/wifi_module_uart_01.c **** #endif
 100:Middlewares/ST/STM32_SPWF0xSy/wifi_module_uart_01.c **** 
 101:Middlewares/ST/STM32_SPWF0xSy/wifi_module_uart_01.c **** /**
 102:Middlewares/ST/STM32_SPWF0xSy/wifi_module_uart_01.c **** * @brief  Process_Buffer
 103:Middlewares/ST/STM32_SPWF0xSy/wifi_module_uart_01.c **** *         Process and construct a Wind Line buffer
 104:Middlewares/ST/STM32_SPWF0xSy/wifi_module_uart_01.c **** * @param  ptr: pointer to one single byte
 105:Middlewares/ST/STM32_SPWF0xSy/wifi_module_uart_01.c **** * @retval None
 106:Middlewares/ST/STM32_SPWF0xSy/wifi_module_uart_01.c **** */
 107:Middlewares/ST/STM32_SPWF0xSy/wifi_module_uart_01.c **** 
 108:Middlewares/ST/STM32_SPWF0xSy/wifi_module_uart_01.c **** void Process_Buffer(uint8_t * ptr)
 109:Middlewares/ST/STM32_SPWF0xSy/wifi_module_uart_01.c **** {
 110:Middlewares/ST/STM32_SPWF0xSy/wifi_module_uart_01.c ****   static uint32_t Fillptr=0;
 111:Middlewares/ST/STM32_SPWF0xSy/wifi_module_uart_01.c ****   static uint8_t index, chan_value;
 112:Middlewares/ST/STM32_SPWF0xSy/wifi_module_uart_01.c ****   unsigned char rxdata = 0;
 113:Middlewares/ST/STM32_SPWF0xSy/wifi_module_uart_01.c ****   int rssi_value = 0;
ARM GAS  D:\cygwin64\tmp\ccuGdUOt.s 			page 5


 114:Middlewares/ST/STM32_SPWF0xSy/wifi_module_uart_01.c ****   char SocketId_No[2];
 115:Middlewares/ST/STM32_SPWF0xSy/wifi_module_uart_01.c ****   char databytes_No[4];
 116:Middlewares/ST/STM32_SPWF0xSy/wifi_module_uart_01.c ****   char * pStr;
 117:Middlewares/ST/STM32_SPWF0xSy/wifi_module_uart_01.c ****   static uint8_t HTTP_Runway_Buff[6];  //Used to store the last 6 bytes in between User Callbacks d
 118:Middlewares/ST/STM32_SPWF0xSy/wifi_module_uart_01.c ****   static uint8_t process_buffer[MAX_BUFFER_GLOBAL];
 119:Middlewares/ST/STM32_SPWF0xSy/wifi_module_uart_01.c **** 
 120:Middlewares/ST/STM32_SPWF0xSy/wifi_module_uart_01.c ****   rxdata =  *(ptr+0);  
 121:Middlewares/ST/STM32_SPWF0xSy/wifi_module_uart_01.c ****   //printf(&rxdata);    //check prints for debug...to be removed or kept in DEBUG statement
 122:Middlewares/ST/STM32_SPWF0xSy/wifi_module_uart_01.c ****   if(WiFi_Control_Variables.enable_receive_data_chunk == WIFI_FALSE && rxdata != '\0')
 123:Middlewares/ST/STM32_SPWF0xSy/wifi_module_uart_01.c ****     process_buffer[Fillptr++] = rxdata;
 124:Middlewares/ST/STM32_SPWF0xSy/wifi_module_uart_01.c ****    reset_event(&wifi_instances.wifi_event);
 125:Middlewares/ST/STM32_SPWF0xSy/wifi_module_uart_01.c **** 
 126:Middlewares/ST/STM32_SPWF0xSy/wifi_module_uart_01.c ****     if((process_buffer[Fillptr-2]==0xD) && (process_buffer[Fillptr-1]==0xA) 
 127:Middlewares/ST/STM32_SPWF0xSy/wifi_module_uart_01.c ****        && !WiFi_Control_Variables.enable_receive_http_response && !IO_status_flag.sock_read_ongoing
 128:Middlewares/ST/STM32_SPWF0xSy/wifi_module_uart_01.c ****       {
 129:Middlewares/ST/STM32_SPWF0xSy/wifi_module_uart_01.c ****           if((strstr((const char *)process_buffer,"WIND:")) != NULL)
 130:Middlewares/ST/STM32_SPWF0xSy/wifi_module_uart_01.c ****           {
 131:Middlewares/ST/STM32_SPWF0xSy/wifi_module_uart_01.c ****               //end of msg received. Will not receive any other msg till we process this.
 132:Middlewares/ST/STM32_SPWF0xSy/wifi_module_uart_01.c ****               Stop_Timer();
 133:Middlewares/ST/STM32_SPWF0xSy/wifi_module_uart_01.c ****               #if defined (USE_STM32L0XX_NUCLEO) || (USE_STM32F4XX_NUCLEO) || (USE_STM32L4XX_NUCLEO
 134:Middlewares/ST/STM32_SPWF0xSy/wifi_module_uart_01.c ****               __disable_irq();
 135:Middlewares/ST/STM32_SPWF0xSy/wifi_module_uart_01.c ****               #endif
 136:Middlewares/ST/STM32_SPWF0xSy/wifi_module_uart_01.c ****               Process_Wind_Indication(&process_buffer[0]);
 137:Middlewares/ST/STM32_SPWF0xSy/wifi_module_uart_01.c ****               #if defined (USE_STM32L0XX_NUCLEO) || (USE_STM32F4XX_NUCLEO) || (USE_STM32L4XX_NUCLEO
 138:Middlewares/ST/STM32_SPWF0xSy/wifi_module_uart_01.c ****               __enable_irq();
 139:Middlewares/ST/STM32_SPWF0xSy/wifi_module_uart_01.c ****               #endif
 140:Middlewares/ST/STM32_SPWF0xSy/wifi_module_uart_01.c ****               Start_Timer();
 141:Middlewares/ST/STM32_SPWF0xSy/wifi_module_uart_01.c **** 
 142:Middlewares/ST/STM32_SPWF0xSy/wifi_module_uart_01.c ****               if(!WiFi_Control_Variables.prevent_push_WIFI_event)
 143:Middlewares/ST/STM32_SPWF0xSy/wifi_module_uart_01.c ****                 {
 144:Middlewares/ST/STM32_SPWF0xSy/wifi_module_uart_01.c ****                     __disable_irq();
 145:Middlewares/ST/STM32_SPWF0xSy/wifi_module_uart_01.c ****                     push_eventbuffer_queue(&wifi_instances.event_buff, wifi_instances.wifi_event);
 146:Middlewares/ST/STM32_SPWF0xSy/wifi_module_uart_01.c ****                      __enable_irq();
 147:Middlewares/ST/STM32_SPWF0xSy/wifi_module_uart_01.c ****                     reset_event(&wifi_instances.wifi_event);
 148:Middlewares/ST/STM32_SPWF0xSy/wifi_module_uart_01.c ****                 }
 149:Middlewares/ST/STM32_SPWF0xSy/wifi_module_uart_01.c **** 
 150:Middlewares/ST/STM32_SPWF0xSy/wifi_module_uart_01.c ****               else if(!WiFi_Control_Variables.queue_wifi_wind_message)  //if we do not want to queu
 151:Middlewares/ST/STM32_SPWF0xSy/wifi_module_uart_01.c ****                 {
 152:Middlewares/ST/STM32_SPWF0xSy/wifi_module_uart_01.c ****                     reset_event(&wifi_instances.wifi_event);
 153:Middlewares/ST/STM32_SPWF0xSy/wifi_module_uart_01.c ****                     WiFi_Control_Variables.prevent_push_WIFI_event = WIFI_FALSE;
 154:Middlewares/ST/STM32_SPWF0xSy/wifi_module_uart_01.c ****                     WiFi_Control_Variables.queue_wifi_wind_message = WIFI_TRUE;
 155:Middlewares/ST/STM32_SPWF0xSy/wifi_module_uart_01.c ****                 }
 156:Middlewares/ST/STM32_SPWF0xSy/wifi_module_uart_01.c ****               if (!WiFi_Control_Variables.do_not_reset_push_WIFI_event) 
 157:Middlewares/ST/STM32_SPWF0xSy/wifi_module_uart_01.c ****                 WiFi_Control_Variables.prevent_push_WIFI_event = WIFI_FALSE;
 158:Middlewares/ST/STM32_SPWF0xSy/wifi_module_uart_01.c **** 
 159:Middlewares/ST/STM32_SPWF0xSy/wifi_module_uart_01.c ****               Fillptr=0;
 160:Middlewares/ST/STM32_SPWF0xSy/wifi_module_uart_01.c ****               if(WiFi_Control_Variables.enable_sock_read && WiFi_Control_Variables.Q_Contains_Messa
 161:Middlewares/ST/STM32_SPWF0xSy/wifi_module_uart_01.c ****                 WiFi_Control_Variables.Q_Contains_Message = WIFI_FALSE;
 162:Middlewares/ST/STM32_SPWF0xSy/wifi_module_uart_01.c ****               else
 163:Middlewares/ST/STM32_SPWF0xSy/wifi_module_uart_01.c ****                 return;
 164:Middlewares/ST/STM32_SPWF0xSy/wifi_module_uart_01.c ****           }
 165:Middlewares/ST/STM32_SPWF0xSy/wifi_module_uart_01.c **** 
 166:Middlewares/ST/STM32_SPWF0xSy/wifi_module_uart_01.c ****           else if((strstr((const char *)process_buffer,"\r\nOK\r\n")) != NULL)
 167:Middlewares/ST/STM32_SPWF0xSy/wifi_module_uart_01.c ****           {
 168:Middlewares/ST/STM32_SPWF0xSy/wifi_module_uart_01.c ****               /*Now Check to which AT Cmd response this OK belongs to so that correct parsing can b
 169:Middlewares/ST/STM32_SPWF0xSy/wifi_module_uart_01.c **** 
 170:Middlewares/ST/STM32_SPWF0xSy/wifi_module_uart_01.c ****               // SOCKON ID (Open a client socket)
ARM GAS  D:\cygwin64\tmp\ccuGdUOt.s 			page 6


 171:Middlewares/ST/STM32_SPWF0xSy/wifi_module_uart_01.c ****               if(((pStr=(strstr((const char *)process_buffer,"ID: "))) != NULL))      
 172:Middlewares/ST/STM32_SPWF0xSy/wifi_module_uart_01.c ****                 {
 173:Middlewares/ST/STM32_SPWF0xSy/wifi_module_uart_01.c ****                     SocketId_No[0]    = *(pStr + 4) ;
 174:Middlewares/ST/STM32_SPWF0xSy/wifi_module_uart_01.c ****                     SocketId_No[1]    = *(pStr + 5) ;
 175:Middlewares/ST/STM32_SPWF0xSy/wifi_module_uart_01.c ****                     wifi_instances.wifi_event.socket_id = (((SocketId_No[0] - '0') * 10 ) + (Socket
 176:Middlewares/ST/STM32_SPWF0xSy/wifi_module_uart_01.c ****                     wifi_instances.wifi_event.event     =  WIFI_SOCK_ID_EVENT;
 177:Middlewares/ST/STM32_SPWF0xSy/wifi_module_uart_01.c ****                     __disable_irq();
 178:Middlewares/ST/STM32_SPWF0xSy/wifi_module_uart_01.c ****                     push_eventbuffer_queue(&wifi_instances.event_buff, wifi_instances.wifi_event);
 179:Middlewares/ST/STM32_SPWF0xSy/wifi_module_uart_01.c ****                      __enable_irq();
 180:Middlewares/ST/STM32_SPWF0xSy/wifi_module_uart_01.c ****                     reset_event(&wifi_instances.wifi_event);
 181:Middlewares/ST/STM32_SPWF0xSy/wifi_module_uart_01.c ****                  }
 182:Middlewares/ST/STM32_SPWF0xSy/wifi_module_uart_01.c **** 
 183:Middlewares/ST/STM32_SPWF0xSy/wifi_module_uart_01.c ****                 // DATALEN from SOCKQ
 184:Middlewares/ST/STM32_SPWF0xSy/wifi_module_uart_01.c ****                else if((pStr=(strstr((const char *)process_buffer,"DATALEN: "))) != NULL)
 185:Middlewares/ST/STM32_SPWF0xSy/wifi_module_uart_01.c ****                  {
 186:Middlewares/ST/STM32_SPWF0xSy/wifi_module_uart_01.c ****                     //Find the DataLength and do a socket read
 187:Middlewares/ST/STM32_SPWF0xSy/wifi_module_uart_01.c ****                     databytes_No[0] = *(pStr + 9);
 188:Middlewares/ST/STM32_SPWF0xSy/wifi_module_uart_01.c ****                     databytes_No[1] = *(pStr + 10);
 189:Middlewares/ST/STM32_SPWF0xSy/wifi_module_uart_01.c ****                     databytes_No[2] = *(pStr + 11);
 190:Middlewares/ST/STM32_SPWF0xSy/wifi_module_uart_01.c ****                     databytes_No[3] = *(pStr + 12);
 191:Middlewares/ST/STM32_SPWF0xSy/wifi_module_uart_01.c **** 
 192:Middlewares/ST/STM32_SPWF0xSy/wifi_module_uart_01.c ****                     if( databytes_No[1] == '\r')
 193:Middlewares/ST/STM32_SPWF0xSy/wifi_module_uart_01.c ****                       {
 194:Middlewares/ST/STM32_SPWF0xSy/wifi_module_uart_01.c ****                         WiFi_Counter_Variables.Socket_Data_Length = databytes_No[0] - '0'; 
 195:Middlewares/ST/STM32_SPWF0xSy/wifi_module_uart_01.c ****                       }
 196:Middlewares/ST/STM32_SPWF0xSy/wifi_module_uart_01.c ****                     else if( databytes_No[2] == '\r')
 197:Middlewares/ST/STM32_SPWF0xSy/wifi_module_uart_01.c ****                       {
 198:Middlewares/ST/STM32_SPWF0xSy/wifi_module_uart_01.c ****                         WiFi_Counter_Variables.Socket_Data_Length = (((databytes_No[0] - '0') * 10 
 199:Middlewares/ST/STM32_SPWF0xSy/wifi_module_uart_01.c ****                       }
 200:Middlewares/ST/STM32_SPWF0xSy/wifi_module_uart_01.c ****                     else if( databytes_No[3] == '\r')
 201:Middlewares/ST/STM32_SPWF0xSy/wifi_module_uart_01.c ****                       {
 202:Middlewares/ST/STM32_SPWF0xSy/wifi_module_uart_01.c ****                         WiFi_Counter_Variables.Socket_Data_Length = (((databytes_No[0] - '0') * 100
 203:Middlewares/ST/STM32_SPWF0xSy/wifi_module_uart_01.c ****                       }
 204:Middlewares/ST/STM32_SPWF0xSy/wifi_module_uart_01.c ****                     else //it's a 4-digit number
 205:Middlewares/ST/STM32_SPWF0xSy/wifi_module_uart_01.c ****                       {
 206:Middlewares/ST/STM32_SPWF0xSy/wifi_module_uart_01.c ****                         WiFi_Counter_Variables.Socket_Data_Length  = ((databytes_No[0] - '0') * 100
 207:Middlewares/ST/STM32_SPWF0xSy/wifi_module_uart_01.c ****                       }
 208:Middlewares/ST/STM32_SPWF0xSy/wifi_module_uart_01.c ****                     if(WiFi_Counter_Variables.Socket_Data_Length != 0)
 209:Middlewares/ST/STM32_SPWF0xSy/wifi_module_uart_01.c ****                       {
 210:Middlewares/ST/STM32_SPWF0xSy/wifi_module_uart_01.c ****                         WiFi_Control_Variables.start_sock_read = WIFI_TRUE;
 211:Middlewares/ST/STM32_SPWF0xSy/wifi_module_uart_01.c ****                       }
 212:Middlewares/ST/STM32_SPWF0xSy/wifi_module_uart_01.c ****                     else if(WiFi_Counter_Variables.Socket_Data_Length == 0)  //no data remaining to
 213:Middlewares/ST/STM32_SPWF0xSy/wifi_module_uart_01.c ****                       {
 214:Middlewares/ST/STM32_SPWF0xSy/wifi_module_uart_01.c ****                         if(WiFi_Counter_Variables.socket_close_pending[WiFi_Counter_Variables.socko
 215:Middlewares/ST/STM32_SPWF0xSy/wifi_module_uart_01.c ****                           {
 216:Middlewares/ST/STM32_SPWF0xSy/wifi_module_uart_01.c ****                             // Q socket_close event for that socket for which sock_close command co
 217:Middlewares/ST/STM32_SPWF0xSy/wifi_module_uart_01.c ****                              if(open_sockets[WiFi_Counter_Variables.sockon_query_id])
 218:Middlewares/ST/STM32_SPWF0xSy/wifi_module_uart_01.c ****                               {
 219:Middlewares/ST/STM32_SPWF0xSy/wifi_module_uart_01.c ****                                 Queue_Client_Close_Event(WiFi_Counter_Variables.sockon_query_id, NE
 220:Middlewares/ST/STM32_SPWF0xSy/wifi_module_uart_01.c ****                               }
 221:Middlewares/ST/STM32_SPWF0xSy/wifi_module_uart_01.c ****                             WiFi_Counter_Variables.socket_close_pending[WiFi_Counter_Variables.sock
 222:Middlewares/ST/STM32_SPWF0xSy/wifi_module_uart_01.c ****                           }
 223:Middlewares/ST/STM32_SPWF0xSy/wifi_module_uart_01.c ****                         WiFi_Control_Variables.stop_event_dequeue = WIFI_FALSE;  //continue popping
 224:Middlewares/ST/STM32_SPWF0xSy/wifi_module_uart_01.c ****                       }
 225:Middlewares/ST/STM32_SPWF0xSy/wifi_module_uart_01.c ****                  }
 226:Middlewares/ST/STM32_SPWF0xSy/wifi_module_uart_01.c **** 
 227:Middlewares/ST/STM32_SPWF0xSy/wifi_module_uart_01.c ****                else if((pStr = (char *)(strstr((const char *)process_buffer," = "))) != NULL)
ARM GAS  D:\cygwin64\tmp\ccuGdUOt.s 			page 7


 228:Middlewares/ST/STM32_SPWF0xSy/wifi_module_uart_01.c ****                  {
 229:Middlewares/ST/STM32_SPWF0xSy/wifi_module_uart_01.c ****                     // AT command GCFG
 230:Middlewares/ST/STM32_SPWF0xSy/wifi_module_uart_01.c ****                     wifi_instances.wifi_event.event = WIFI_GCFG_EVENT;
 231:Middlewares/ST/STM32_SPWF0xSy/wifi_module_uart_01.c ****                     //we need to copy only the value in get_cfg_value variable
 232:Middlewares/ST/STM32_SPWF0xSy/wifi_module_uart_01.c ****                     memcpy(WiFi_Counter_Variables.get_cfg_value, pStr+3, (strlen(pStr)-11));
 233:Middlewares/ST/STM32_SPWF0xSy/wifi_module_uart_01.c ****                     __disable_irq();
 234:Middlewares/ST/STM32_SPWF0xSy/wifi_module_uart_01.c ****                     push_eventbuffer_queue(&wifi_instances.event_buff, wifi_instances.wifi_event);
 235:Middlewares/ST/STM32_SPWF0xSy/wifi_module_uart_01.c ****                      __enable_irq();
 236:Middlewares/ST/STM32_SPWF0xSy/wifi_module_uart_01.c ****                     reset_event(&wifi_instances.wifi_event);
 237:Middlewares/ST/STM32_SPWF0xSy/wifi_module_uart_01.c ****                  }
 238:Middlewares/ST/STM32_SPWF0xSy/wifi_module_uart_01.c **** 
 239:Middlewares/ST/STM32_SPWF0xSy/wifi_module_uart_01.c ****                else
 240:Middlewares/ST/STM32_SPWF0xSy/wifi_module_uart_01.c ****                  {
 241:Middlewares/ST/STM32_SPWF0xSy/wifi_module_uart_01.c ****                     //This is a standalone OK
 242:Middlewares/ST/STM32_SPWF0xSy/wifi_module_uart_01.c ****                     /*Cases possible
 243:Middlewares/ST/STM32_SPWF0xSy/wifi_module_uart_01.c ****                     - TLSCERT,TLSCERT2, TLSDOMAIN, SETTIME
 244:Middlewares/ST/STM32_SPWF0xSy/wifi_module_uart_01.c ****                     - S.SOCKW, SOCKR, S.SOCKC, S.SOCKD (open a server socket)
 245:Middlewares/ST/STM32_SPWF0xSy/wifi_module_uart_01.c ****                     - File Operations
 246:Middlewares/ST/STM32_SPWF0xSy/wifi_module_uart_01.c ****                     - S.GPIOC and S.GPIOW
 247:Middlewares/ST/STM32_SPWF0xSy/wifi_module_uart_01.c ****                     */
 248:Middlewares/ST/STM32_SPWF0xSy/wifi_module_uart_01.c ****                     //Push a simple OK Event, if this is an OK event required to be pushed to Q 
 249:Middlewares/ST/STM32_SPWF0xSy/wifi_module_uart_01.c ****                     if(IO_status_flag.prevent_push_OK_event)
 250:Middlewares/ST/STM32_SPWF0xSy/wifi_module_uart_01.c ****                       {
 251:Middlewares/ST/STM32_SPWF0xSy/wifi_module_uart_01.c ****                           //This OK is not to be handled, hence the pop action on OK completion to 
 252:Middlewares/ST/STM32_SPWF0xSy/wifi_module_uart_01.c ****                           if(IO_status_flag.client_socket_close_ongoing) //OK received is of the so
 253:Middlewares/ST/STM32_SPWF0xSy/wifi_module_uart_01.c ****                             {
 254:Middlewares/ST/STM32_SPWF0xSy/wifi_module_uart_01.c ****                                 if(WiFi_Counter_Variables.no_of_open_client_sockets > 0)
 255:Middlewares/ST/STM32_SPWF0xSy/wifi_module_uart_01.c ****                                   WiFi_Counter_Variables.no_of_open_client_sockets--;
 256:Middlewares/ST/STM32_SPWF0xSy/wifi_module_uart_01.c ****                                 IO_status_flag.prevent_push_OK_event                         = WIFI
 257:Middlewares/ST/STM32_SPWF0xSy/wifi_module_uart_01.c ****                                 open_sockets[WiFi_Counter_Variables.remote_socket_closed_id] = WIFI
 258:Middlewares/ST/STM32_SPWF0xSy/wifi_module_uart_01.c ****                                 //socket ID for which OK is received.
 259:Middlewares/ST/STM32_SPWF0xSy/wifi_module_uart_01.c ****                                 WiFi_Counter_Variables.closed_socket_id                      = WiFi
 260:Middlewares/ST/STM32_SPWF0xSy/wifi_module_uart_01.c ****                                 IO_status_flag.client_socket_close_ongoing                   = WIFI
 261:Middlewares/ST/STM32_SPWF0xSy/wifi_module_uart_01.c ****                                 IO_status_flag.client_socket_close_type                      = NET_
 262:Middlewares/ST/STM32_SPWF0xSy/wifi_module_uart_01.c **** 
 263:Middlewares/ST/STM32_SPWF0xSy/wifi_module_uart_01.c ****                                 //User Callback not required in case if sock_close is called by Use
 264:Middlewares/ST/STM32_SPWF0xSy/wifi_module_uart_01.c ****                                 if(WiFi_Control_Variables.enable_SockON_Server_Closed_Callback)
 265:Middlewares/ST/STM32_SPWF0xSy/wifi_module_uart_01.c ****                                   {
 266:Middlewares/ST/STM32_SPWF0xSy/wifi_module_uart_01.c ****                                     // User callback after successful socket Close
 267:Middlewares/ST/STM32_SPWF0xSy/wifi_module_uart_01.c ****                                     WiFi_Control_Variables.SockON_Server_Closed_Callback         = 
 268:Middlewares/ST/STM32_SPWF0xSy/wifi_module_uart_01.c ****                                   }
 269:Middlewares/ST/STM32_SPWF0xSy/wifi_module_uart_01.c ****                                 else
 270:Middlewares/ST/STM32_SPWF0xSy/wifi_module_uart_01.c ****                                     WiFi_Control_Variables.enable_SockON_Server_Closed_Callback  = 
 271:Middlewares/ST/STM32_SPWF0xSy/wifi_module_uart_01.c ****                                 WiFi_Control_Variables.stop_event_dequeue                        = 
 272:Middlewares/ST/STM32_SPWF0xSy/wifi_module_uart_01.c ****                             }
 273:Middlewares/ST/STM32_SPWF0xSy/wifi_module_uart_01.c ****                       }
 274:Middlewares/ST/STM32_SPWF0xSy/wifi_module_uart_01.c **** 
 275:Middlewares/ST/STM32_SPWF0xSy/wifi_module_uart_01.c ****                     else
 276:Middlewares/ST/STM32_SPWF0xSy/wifi_module_uart_01.c ****                       {
 277:Middlewares/ST/STM32_SPWF0xSy/wifi_module_uart_01.c ****                           wifi_instances.wifi_event.event = WIFI_OK_EVENT;
 278:Middlewares/ST/STM32_SPWF0xSy/wifi_module_uart_01.c ****                           __disable_irq();
 279:Middlewares/ST/STM32_SPWF0xSy/wifi_module_uart_01.c ****                           push_eventbuffer_queue(&wifi_instances.event_buff, wifi_instances.wifi_ev
 280:Middlewares/ST/STM32_SPWF0xSy/wifi_module_uart_01.c ****                            __enable_irq();
 281:Middlewares/ST/STM32_SPWF0xSy/wifi_module_uart_01.c ****                           reset_event(&wifi_instances.wifi_event);
 282:Middlewares/ST/STM32_SPWF0xSy/wifi_module_uart_01.c ****                       }
 283:Middlewares/ST/STM32_SPWF0xSy/wifi_module_uart_01.c ****                     IO_status_flag.prevent_push_OK_event = WIFI_FALSE;
 284:Middlewares/ST/STM32_SPWF0xSy/wifi_module_uart_01.c ****                  }
ARM GAS  D:\cygwin64\tmp\ccuGdUOt.s 			page 8


 285:Middlewares/ST/STM32_SPWF0xSy/wifi_module_uart_01.c ****               Fillptr=0;
 286:Middlewares/ST/STM32_SPWF0xSy/wifi_module_uart_01.c ****               memset(process_buffer, 0x00, MAX_BUFFER_GLOBAL);
 287:Middlewares/ST/STM32_SPWF0xSy/wifi_module_uart_01.c **** 
 288:Middlewares/ST/STM32_SPWF0xSy/wifi_module_uart_01.c ****               if(WiFi_Control_Variables.enable_sock_read && WiFi_Control_Variables.Q_Contains_Messa
 289:Middlewares/ST/STM32_SPWF0xSy/wifi_module_uart_01.c ****                 WiFi_Control_Variables.Q_Contains_Message = WIFI_FALSE;
 290:Middlewares/ST/STM32_SPWF0xSy/wifi_module_uart_01.c ****               else
 291:Middlewares/ST/STM32_SPWF0xSy/wifi_module_uart_01.c ****                 return;
 292:Middlewares/ST/STM32_SPWF0xSy/wifi_module_uart_01.c ****           }
 293:Middlewares/ST/STM32_SPWF0xSy/wifi_module_uart_01.c **** 
 294:Middlewares/ST/STM32_SPWF0xSy/wifi_module_uart_01.c ****          else if((((strstr((const char *)process_buffer,"ERROR"))) != NULL))
 295:Middlewares/ST/STM32_SPWF0xSy/wifi_module_uart_01.c ****           {
 296:Middlewares/ST/STM32_SPWF0xSy/wifi_module_uart_01.c ****               //This is an ERROR
 297:Middlewares/ST/STM32_SPWF0xSy/wifi_module_uart_01.c ****               //There can be only ONE outstanding AT command and hence this ERROR belongs to that
 298:Middlewares/ST/STM32_SPWF0xSy/wifi_module_uart_01.c ****               //HTTP -> ERROR: host not found
 299:Middlewares/ST/STM32_SPWF0xSy/wifi_module_uart_01.c ****               //@TBD: Check all Errors Possible here???
 300:Middlewares/ST/STM32_SPWF0xSy/wifi_module_uart_01.c ****               if((strstr((const char *)process_buffer,"\r\nERROR: Pending data\r\n")) != NULL) //if
 301:Middlewares/ST/STM32_SPWF0xSy/wifi_module_uart_01.c ****                 {
 302:Middlewares/ST/STM32_SPWF0xSy/wifi_module_uart_01.c ****                     printf("\r\nERROR: Socket could not be closed..PENDING DATA\r\n");
 303:Middlewares/ST/STM32_SPWF0xSy/wifi_module_uart_01.c ****                     //prevent the OK received after socket close command to be Q'ed
 304:Middlewares/ST/STM32_SPWF0xSy/wifi_module_uart_01.c ****                     IO_status_flag.prevent_push_OK_event        = WIFI_FALSE;     
 305:Middlewares/ST/STM32_SPWF0xSy/wifi_module_uart_01.c ****                     IO_status_flag.client_socket_close_ongoing  = WIFI_FALSE;
 306:Middlewares/ST/STM32_SPWF0xSy/wifi_module_uart_01.c ****                     
 307:Middlewares/ST/STM32_SPWF0xSy/wifi_module_uart_01.c ****                     //when error while user trying to close a socket, so now callback required when
 308:Middlewares/ST/STM32_SPWF0xSy/wifi_module_uart_01.c ****                     if(!WiFi_Control_Variables.enable_SockON_Server_Closed_Callback)
 309:Middlewares/ST/STM32_SPWF0xSy/wifi_module_uart_01.c ****                       {
 310:Middlewares/ST/STM32_SPWF0xSy/wifi_module_uart_01.c ****                         //enable the SockON_Server_Closed_Callback
 311:Middlewares/ST/STM32_SPWF0xSy/wifi_module_uart_01.c ****                         WiFi_Control_Variables.enable_SockON_Server_Closed_Callback = WIFI_TRUE;
 312:Middlewares/ST/STM32_SPWF0xSy/wifi_module_uart_01.c ****                       }
 313:Middlewares/ST/STM32_SPWF0xSy/wifi_module_uart_01.c ****                     //close the socket for which ERROR is received afterwards, after reading the da
 314:Middlewares/ST/STM32_SPWF0xSy/wifi_module_uart_01.c ****                     WiFi_Counter_Variables.socket_close_pending[WiFi_Counter_Variables.remote_socke
 315:Middlewares/ST/STM32_SPWF0xSy/wifi_module_uart_01.c ****                     WiFi_Control_Variables.stop_event_dequeue = WIFI_FALSE;
 316:Middlewares/ST/STM32_SPWF0xSy/wifi_module_uart_01.c ****                 }
 317:Middlewares/ST/STM32_SPWF0xSy/wifi_module_uart_01.c ****                 /* occur when there is no client and we are trying to switch to data/command mode *
 318:Middlewares/ST/STM32_SPWF0xSy/wifi_module_uart_01.c ****                else if(strstr((const char *)process_buffer,"\r\nERROR: Data mode not available\r\n"
 319:Middlewares/ST/STM32_SPWF0xSy/wifi_module_uart_01.c ****                        strstr((const char *)process_buffer,"\r\nERROR: Command mode not available\r
 320:Middlewares/ST/STM32_SPWF0xSy/wifi_module_uart_01.c ****                 {
 321:Middlewares/ST/STM32_SPWF0xSy/wifi_module_uart_01.c ****                      /* in case of wind 64: if error, then enable the deQueue and continue popping 
 322:Middlewares/ST/STM32_SPWF0xSy/wifi_module_uart_01.c ****                     if(WiFi_Control_Variables.data_pending_sockD)
 323:Middlewares/ST/STM32_SPWF0xSy/wifi_module_uart_01.c ****                       {
 324:Middlewares/ST/STM32_SPWF0xSy/wifi_module_uart_01.c ****                         WiFi_Control_Variables.data_pending_sockD = WIFI_FALSE;
 325:Middlewares/ST/STM32_SPWF0xSy/wifi_module_uart_01.c ****                         WiFi_Control_Variables.stop_event_dequeue = WIFI_FALSE;
 326:Middlewares/ST/STM32_SPWF0xSy/wifi_module_uart_01.c ****                         WiFi_Control_Variables.enable_sock_read   = WIFI_FALSE;
 327:Middlewares/ST/STM32_SPWF0xSy/wifi_module_uart_01.c ****                         WiFi_Control_Variables.enable_receive_data_chunk = WIFI_FALSE;
 328:Middlewares/ST/STM32_SPWF0xSy/wifi_module_uart_01.c ****                         WiFi_Counter_Variables.chunk_size         = 0;
 329:Middlewares/ST/STM32_SPWF0xSy/wifi_module_uart_01.c ****                         WiFi_Counter_Variables.message_size       = 0;
 330:Middlewares/ST/STM32_SPWF0xSy/wifi_module_uart_01.c ****                       }
 331:Middlewares/ST/STM32_SPWF0xSy/wifi_module_uart_01.c **** 
 332:Middlewares/ST/STM32_SPWF0xSy/wifi_module_uart_01.c ****                 }
 333:Middlewares/ST/STM32_SPWF0xSy/wifi_module_uart_01.c ****               else
 334:Middlewares/ST/STM32_SPWF0xSy/wifi_module_uart_01.c ****                 {
 335:Middlewares/ST/STM32_SPWF0xSy/wifi_module_uart_01.c ****                     if(strstr((const char *)process_buffer,"Illegal") != NULL)
 336:Middlewares/ST/STM32_SPWF0xSy/wifi_module_uart_01.c ****                     {
 337:Middlewares/ST/STM32_SPWF0xSy/wifi_module_uart_01.c ****                       printf("\r\n Error: Illegal socket ID \r\n");
 338:Middlewares/ST/STM32_SPWF0xSy/wifi_module_uart_01.c ****                     }
 339:Middlewares/ST/STM32_SPWF0xSy/wifi_module_uart_01.c ****                     wifi_instances.wifi_event.event = WIFI_ERROR_EVENT;
 340:Middlewares/ST/STM32_SPWF0xSy/wifi_module_uart_01.c ****                     __disable_irq();
 341:Middlewares/ST/STM32_SPWF0xSy/wifi_module_uart_01.c ****                     push_eventbuffer_queue(&wifi_instances.event_buff, wifi_instances.wifi_event);
ARM GAS  D:\cygwin64\tmp\ccuGdUOt.s 			page 9


 342:Middlewares/ST/STM32_SPWF0xSy/wifi_module_uart_01.c ****                      __enable_irq();
 343:Middlewares/ST/STM32_SPWF0xSy/wifi_module_uart_01.c ****                     reset_event(&wifi_instances.wifi_event);
 344:Middlewares/ST/STM32_SPWF0xSy/wifi_module_uart_01.c ****                     if(WiFi_Control_Variables.stop_event_dequeue)
 345:Middlewares/ST/STM32_SPWF0xSy/wifi_module_uart_01.c ****                       /*ERROR:Illegal Socket ID*/
 346:Middlewares/ST/STM32_SPWF0xSy/wifi_module_uart_01.c ****                       WiFi_Control_Variables.stop_event_dequeue = WIFI_FALSE;//continue popping eve
 347:Middlewares/ST/STM32_SPWF0xSy/wifi_module_uart_01.c ****                     if(WiFi_Control_Variables.enable_timeout_timer)
 348:Middlewares/ST/STM32_SPWF0xSy/wifi_module_uart_01.c ****                       {
 349:Middlewares/ST/STM32_SPWF0xSy/wifi_module_uart_01.c ****                         WiFi_Control_Variables.enable_timeout_timer = WIFI_FALSE;
 350:Middlewares/ST/STM32_SPWF0xSy/wifi_module_uart_01.c ****                         WiFi_Counter_Variables.timeout_tick = 0;
 351:Middlewares/ST/STM32_SPWF0xSy/wifi_module_uart_01.c ****                       }
 352:Middlewares/ST/STM32_SPWF0xSy/wifi_module_uart_01.c ****                 }
 353:Middlewares/ST/STM32_SPWF0xSy/wifi_module_uart_01.c ****               Fillptr=0;
 354:Middlewares/ST/STM32_SPWF0xSy/wifi_module_uart_01.c ****               memset(process_buffer, 0x00, MAX_BUFFER_GLOBAL);
 355:Middlewares/ST/STM32_SPWF0xSy/wifi_module_uart_01.c **** 
 356:Middlewares/ST/STM32_SPWF0xSy/wifi_module_uart_01.c ****               if(WiFi_Control_Variables.enable_sock_read && WiFi_Control_Variables.Q_Contains_Messa
 357:Middlewares/ST/STM32_SPWF0xSy/wifi_module_uart_01.c ****                 WiFi_Control_Variables.Q_Contains_Message = WIFI_FALSE;
 358:Middlewares/ST/STM32_SPWF0xSy/wifi_module_uart_01.c ****               else
 359:Middlewares/ST/STM32_SPWF0xSy/wifi_module_uart_01.c ****                 return;
 360:Middlewares/ST/STM32_SPWF0xSy/wifi_module_uart_01.c ****           }
 361:Middlewares/ST/STM32_SPWF0xSy/wifi_module_uart_01.c **** 
 362:Middlewares/ST/STM32_SPWF0xSy/wifi_module_uart_01.c ****          else if((((strstr((const char *)process_buffer,"GPIO "))) != NULL)) 
 363:Middlewares/ST/STM32_SPWF0xSy/wifi_module_uart_01.c ****           {
 364:Middlewares/ST/STM32_SPWF0xSy/wifi_module_uart_01.c ****               // Receive GPIO Read
 365:Middlewares/ST/STM32_SPWF0xSy/wifi_module_uart_01.c ****               pStr = (char *) strstr((const char *)process_buffer,"= 0,");                         
 366:Middlewares/ST/STM32_SPWF0xSy/wifi_module_uart_01.c ****               if(pStr != NULL)
 367:Middlewares/ST/STM32_SPWF0xSy/wifi_module_uart_01.c ****                 {
 368:Middlewares/ST/STM32_SPWF0xSy/wifi_module_uart_01.c ****                     WiFi_Counter_Variables.gpio_value = 0;
 369:Middlewares/ST/STM32_SPWF0xSy/wifi_module_uart_01.c ****                 } 
 370:Middlewares/ST/STM32_SPWF0xSy/wifi_module_uart_01.c ****               else 
 371:Middlewares/ST/STM32_SPWF0xSy/wifi_module_uart_01.c ****                 {
 372:Middlewares/ST/STM32_SPWF0xSy/wifi_module_uart_01.c ****                   WiFi_Counter_Variables.gpio_value = 1;   
 373:Middlewares/ST/STM32_SPWF0xSy/wifi_module_uart_01.c ****                 }
 374:Middlewares/ST/STM32_SPWF0xSy/wifi_module_uart_01.c ****               pStr = (char *) strstr((const char *)process_buffer,"out");                          
 375:Middlewares/ST/STM32_SPWF0xSy/wifi_module_uart_01.c ****               if(pStr != NULL)
 376:Middlewares/ST/STM32_SPWF0xSy/wifi_module_uart_01.c ****                 {
 377:Middlewares/ST/STM32_SPWF0xSy/wifi_module_uart_01.c ****                     WiFi_Counter_Variables.gpio_dir= 0;    //out
 378:Middlewares/ST/STM32_SPWF0xSy/wifi_module_uart_01.c ****                 }
 379:Middlewares/ST/STM32_SPWF0xSy/wifi_module_uart_01.c ****               else
 380:Middlewares/ST/STM32_SPWF0xSy/wifi_module_uart_01.c ****                 {
 381:Middlewares/ST/STM32_SPWF0xSy/wifi_module_uart_01.c ****                     WiFi_Counter_Variables.gpio_dir= 1;    //in
 382:Middlewares/ST/STM32_SPWF0xSy/wifi_module_uart_01.c ****                 }
 383:Middlewares/ST/STM32_SPWF0xSy/wifi_module_uart_01.c ****               //Push GPIO Read Event on Event_Queue
 384:Middlewares/ST/STM32_SPWF0xSy/wifi_module_uart_01.c ****               wifi_instances.wifi_event.event = WIFI_GPIO_EVENT;
 385:Middlewares/ST/STM32_SPWF0xSy/wifi_module_uart_01.c ****               __disable_irq();
 386:Middlewares/ST/STM32_SPWF0xSy/wifi_module_uart_01.c ****               push_eventbuffer_queue(&wifi_instances.event_buff, wifi_instances.wifi_event);
 387:Middlewares/ST/STM32_SPWF0xSy/wifi_module_uart_01.c ****                __enable_irq();
 388:Middlewares/ST/STM32_SPWF0xSy/wifi_module_uart_01.c ****               reset_event(&wifi_instances.wifi_event);
 389:Middlewares/ST/STM32_SPWF0xSy/wifi_module_uart_01.c ****               Fillptr=0;
 390:Middlewares/ST/STM32_SPWF0xSy/wifi_module_uart_01.c ****               memset(process_buffer, 0x00, MAX_BUFFER_GLOBAL);
 391:Middlewares/ST/STM32_SPWF0xSy/wifi_module_uart_01.c **** 
 392:Middlewares/ST/STM32_SPWF0xSy/wifi_module_uart_01.c ****               if(WiFi_Control_Variables.enable_sock_read && WiFi_Control_Variables.Q_Contains_Messa
 393:Middlewares/ST/STM32_SPWF0xSy/wifi_module_uart_01.c ****                 WiFi_Control_Variables.Q_Contains_Message = WIFI_FALSE;
 394:Middlewares/ST/STM32_SPWF0xSy/wifi_module_uart_01.c ****               else
 395:Middlewares/ST/STM32_SPWF0xSy/wifi_module_uart_01.c ****                 return;
 396:Middlewares/ST/STM32_SPWF0xSy/wifi_module_uart_01.c ****           }
 397:Middlewares/ST/STM32_SPWF0xSy/wifi_module_uart_01.c **** 
 398:Middlewares/ST/STM32_SPWF0xSy/wifi_module_uart_01.c ****          else
ARM GAS  D:\cygwin64\tmp\ccuGdUOt.s 			page 10


 399:Middlewares/ST/STM32_SPWF0xSy/wifi_module_uart_01.c ****            {
 400:Middlewares/ST/STM32_SPWF0xSy/wifi_module_uart_01.c ****              //the data of wind:55 has \r\n...\r\n or before the actual data arrival there is a mes
 401:Middlewares/ST/STM32_SPWF0xSy/wifi_module_uart_01.c ****              if(WiFi_Control_Variables.enable_sock_read && WiFi_Control_Variables.Q_Contains_Messag
 402:Middlewares/ST/STM32_SPWF0xSy/wifi_module_uart_01.c ****                 {
 403:Middlewares/ST/STM32_SPWF0xSy/wifi_module_uart_01.c ****                    /* data is D Q'ed in pop_buffer and we return from here(process_buffer()) withou
 404:Middlewares/ST/STM32_SPWF0xSy/wifi_module_uart_01.c ****                         To avoid this, rewinding is necessary. */
 405:Middlewares/ST/STM32_SPWF0xSy/wifi_module_uart_01.c ****                     if(WiFi_Counter_Variables.pop_buffer_size)
 406:Middlewares/ST/STM32_SPWF0xSy/wifi_module_uart_01.c ****                       {
 407:Middlewares/ST/STM32_SPWF0xSy/wifi_module_uart_01.c ****                         __disable_irq();
 408:Middlewares/ST/STM32_SPWF0xSy/wifi_module_uart_01.c ****                          rewind_buffer_queue(&wifi_instances.big_buff,WiFi_Counter_Variables.pop_bu
 409:Middlewares/ST/STM32_SPWF0xSy/wifi_module_uart_01.c ****                          __enable_irq();
 410:Middlewares/ST/STM32_SPWF0xSy/wifi_module_uart_01.c ****                          memset(ptr, 0x00, WiFi_Counter_Variables.pop_buffer_size);
 411:Middlewares/ST/STM32_SPWF0xSy/wifi_module_uart_01.c ****                       }
 412:Middlewares/ST/STM32_SPWF0xSy/wifi_module_uart_01.c ****                     //used for bypassing enable_receive_data_chunk part for the first time \r\n..\r
 413:Middlewares/ST/STM32_SPWF0xSy/wifi_module_uart_01.c ****                     WiFi_Control_Variables.enable_sock_data   = WIFI_TRUE;
 414:Middlewares/ST/STM32_SPWF0xSy/wifi_module_uart_01.c ****                     WiFi_Control_Variables.Q_Contains_Message = WIFI_FALSE;
 415:Middlewares/ST/STM32_SPWF0xSy/wifi_module_uart_01.c ****                     WiFi_Counter_Variables.pop_queue_length   = Fillptr;
 416:Middlewares/ST/STM32_SPWF0xSy/wifi_module_uart_01.c ****                 }
 417:Middlewares/ST/STM32_SPWF0xSy/wifi_module_uart_01.c ****              else if(WiFi_Control_Variables.parsing_wind_56_data == WIFI_TRUE)
 418:Middlewares/ST/STM32_SPWF0xSy/wifi_module_uart_01.c ****                 {
 419:Middlewares/ST/STM32_SPWF0xSy/wifi_module_uart_01.c ****                     memset(process_buffer,0x00,Fillptr);
 420:Middlewares/ST/STM32_SPWF0xSy/wifi_module_uart_01.c ****                     Fillptr = 0;
 421:Middlewares/ST/STM32_SPWF0xSy/wifi_module_uart_01.c ****                     WiFi_Control_Variables.parsing_wind_56_data = WIFI_FALSE;
 422:Middlewares/ST/STM32_SPWF0xSy/wifi_module_uart_01.c ****                 }
 423:Middlewares/ST/STM32_SPWF0xSy/wifi_module_uart_01.c **** 
 424:Middlewares/ST/STM32_SPWF0xSy/wifi_module_uart_01.c ****               //if in data mode, reset on \r\n
 425:Middlewares/ST/STM32_SPWF0xSy/wifi_module_uart_01.c ****               if(!IO_status_flag.sock_read_ongoing && IO_status_flag.data_mode)
 426:Middlewares/ST/STM32_SPWF0xSy/wifi_module_uart_01.c ****                 {
 427:Middlewares/ST/STM32_SPWF0xSy/wifi_module_uart_01.c ****                     Fillptr = 0;
 428:Middlewares/ST/STM32_SPWF0xSy/wifi_module_uart_01.c ****                     memset(process_buffer, 0x00, MAX_BUFFER_GLOBAL);
 429:Middlewares/ST/STM32_SPWF0xSy/wifi_module_uart_01.c ****                 }
 430:Middlewares/ST/STM32_SPWF0xSy/wifi_module_uart_01.c ****            }
 431:Middlewares/ST/STM32_SPWF0xSy/wifi_module_uart_01.c ****       }
 432:Middlewares/ST/STM32_SPWF0xSy/wifi_module_uart_01.c ****     
 433:Middlewares/ST/STM32_SPWF0xSy/wifi_module_uart_01.c ****     /* WIND 56 is of the form: +WIND:56:Insert message to client:<DATA that we send> */
 434:Middlewares/ST/STM32_SPWF0xSy/wifi_module_uart_01.c ****     else if(!WiFi_Control_Variables.parsing_wind_56_data && (strstr((const char *)process_buffer,"\
 435:Middlewares/ST/STM32_SPWF0xSy/wifi_module_uart_01.c ****       {
 436:Middlewares/ST/STM32_SPWF0xSy/wifi_module_uart_01.c ****         /* we've just 2 seconds to send data, 
 437:Middlewares/ST/STM32_SPWF0xSy/wifi_module_uart_01.c ****            directly return if +WIND:56:Insert message to client is not found */
 438:Middlewares/ST/STM32_SPWF0xSy/wifi_module_uart_01.c ****         if((strstr((const char *)process_buffer,"client:")) != NULL)
 439:Middlewares/ST/STM32_SPWF0xSy/wifi_module_uart_01.c ****         {
 440:Middlewares/ST/STM32_SPWF0xSy/wifi_module_uart_01.c ****           #if DEBUG_PRINT
 441:Middlewares/ST/STM32_SPWF0xSy/wifi_module_uart_01.c ****             printf((const char*)process_buffer);
 442:Middlewares/ST/STM32_SPWF0xSy/wifi_module_uart_01.c ****           #endif
 443:Middlewares/ST/STM32_SPWF0xSy/wifi_module_uart_01.c ****           /* Disable TIMx */
 444:Middlewares/ST/STM32_SPWF0xSy/wifi_module_uart_01.c ****           HAL_NVIC_DisableIRQ(TIMx_IRQn);
 445:Middlewares/ST/STM32_SPWF0xSy/wifi_module_uart_01.c ****           ind_wifi_inputssi_callback();
 446:Middlewares/ST/STM32_SPWF0xSy/wifi_module_uart_01.c ****           WiFi_Control_Variables.parsing_wind_56_data = WIFI_TRUE;
 447:Middlewares/ST/STM32_SPWF0xSy/wifi_module_uart_01.c ****           memset(process_buffer,0x00,Fillptr);
 448:Middlewares/ST/STM32_SPWF0xSy/wifi_module_uart_01.c ****           Fillptr=0;
 449:Middlewares/ST/STM32_SPWF0xSy/wifi_module_uart_01.c ****           return;
 450:Middlewares/ST/STM32_SPWF0xSy/wifi_module_uart_01.c ****         }
 451:Middlewares/ST/STM32_SPWF0xSy/wifi_module_uart_01.c ****         else
 452:Middlewares/ST/STM32_SPWF0xSy/wifi_module_uart_01.c ****           return;
 453:Middlewares/ST/STM32_SPWF0xSy/wifi_module_uart_01.c ****       }
 454:Middlewares/ST/STM32_SPWF0xSy/wifi_module_uart_01.c **** 
 455:Middlewares/ST/STM32_SPWF0xSy/wifi_module_uart_01.c ****     else if (WiFi_Control_Variables.Ok_terminated_data_request_pending)   //HTTP Response Check
ARM GAS  D:\cygwin64\tmp\ccuGdUOt.s 			page 11


 456:Middlewares/ST/STM32_SPWF0xSy/wifi_module_uart_01.c ****       {
 457:Middlewares/ST/STM32_SPWF0xSy/wifi_module_uart_01.c ****            if((strstr((const char *)&process_buffer[0],"200 OK\r")) != NULL || (strstr((const char 
 458:Middlewares/ST/STM32_SPWF0xSy/wifi_module_uart_01.c ****                   || (strstr((const char *)&process_buffer[0],"400 Bad Request\r")) != NULL || (str
 459:Middlewares/ST/STM32_SPWF0xSy/wifi_module_uart_01.c ****                   || (strstr((const char *)&process_buffer[0],"401 Unauthorized\r")) != NULL || (st
 460:Middlewares/ST/STM32_SPWF0xSy/wifi_module_uart_01.c ****                   || (strstr((const char *)&process_buffer[0],"404 Not Found\r")) != NULL || (strst
 461:Middlewares/ST/STM32_SPWF0xSy/wifi_module_uart_01.c ****                   || (strstr((const char *)&process_buffer[0],"500 Internal Server Error\r")) != NU
 462:Middlewares/ST/STM32_SPWF0xSy/wifi_module_uart_01.c ****                   || (strstr((const char *)&process_buffer[0],"504 Gateway Timeout\r")) != NULL)
 463:Middlewares/ST/STM32_SPWF0xSy/wifi_module_uart_01.c ****             {
 464:Middlewares/ST/STM32_SPWF0xSy/wifi_module_uart_01.c ****                 WiFi_Control_Variables.enable_receive_http_response = WIFI_TRUE;
 465:Middlewares/ST/STM32_SPWF0xSy/wifi_module_uart_01.c ****                 WiFi_Control_Variables.enable_receive_data_chunk    = WIFI_TRUE;
 466:Middlewares/ST/STM32_SPWF0xSy/wifi_module_uart_01.c ****                 WiFi_Control_Variables.Ok_terminated_data_request_pending = WIFI_FALSE;
 467:Middlewares/ST/STM32_SPWF0xSy/wifi_module_uart_01.c ****                 WiFi_Counter_Variables.last_process_buffer_index = 5;
 468:Middlewares/ST/STM32_SPWF0xSy/wifi_module_uart_01.c ****                 WiFi_Control_Variables.enable_timeout_timer      = WIFI_FALSE; //stop the timeout t
 469:Middlewares/ST/STM32_SPWF0xSy/wifi_module_uart_01.c ****                 WiFi_Counter_Variables.timeout_tick              = 0;
 470:Middlewares/ST/STM32_SPWF0xSy/wifi_module_uart_01.c ****                 return;
 471:Middlewares/ST/STM32_SPWF0xSy/wifi_module_uart_01.c ****             }
 472:Middlewares/ST/STM32_SPWF0xSy/wifi_module_uart_01.c ****       }
 473:Middlewares/ST/STM32_SPWF0xSy/wifi_module_uart_01.c **** 
 474:Middlewares/ST/STM32_SPWF0xSy/wifi_module_uart_01.c ****     else if ((process_buffer[Fillptr-1]==0x09) && (process_buffer[Fillptr-2]==':') && (process_buff
 475:Middlewares/ST/STM32_SPWF0xSy/wifi_module_uart_01.c ****       {
 476:Middlewares/ST/STM32_SPWF0xSy/wifi_module_uart_01.c ****           WiFi_Control_Variables.enable_receive_wifi_scan_response = WIFI_TRUE;
 477:Middlewares/ST/STM32_SPWF0xSy/wifi_module_uart_01.c ****       }
 478:Middlewares/ST/STM32_SPWF0xSy/wifi_module_uart_01.c ****     else if(WiFi_Control_Variables.in_standby_mode)
 479:Middlewares/ST/STM32_SPWF0xSy/wifi_module_uart_01.c ****       {
 480:Middlewares/ST/STM32_SPWF0xSy/wifi_module_uart_01.c ****         /* Eliminate the NULL values received after WIND:67:Going into Standby */
 481:Middlewares/ST/STM32_SPWF0xSy/wifi_module_uart_01.c ****         if(process_buffer[Fillptr-1] == '\0')
 482:Middlewares/ST/STM32_SPWF0xSy/wifi_module_uart_01.c ****            Fillptr = 0;
 483:Middlewares/ST/STM32_SPWF0xSy/wifi_module_uart_01.c ****       }
 484:Middlewares/ST/STM32_SPWF0xSy/wifi_module_uart_01.c ****     else if(Fillptr >= MAX_BUFFER_GLOBAL-1)
 485:Middlewares/ST/STM32_SPWF0xSy/wifi_module_uart_01.c ****       {
 486:Middlewares/ST/STM32_SPWF0xSy/wifi_module_uart_01.c ****         #if DEBUG_PRINT
 487:Middlewares/ST/STM32_SPWF0xSy/wifi_module_uart_01.c ****         printf("\rJust Looping with unhandled data!\r\n");
 488:Middlewares/ST/STM32_SPWF0xSy/wifi_module_uart_01.c ****         #endif          
 489:Middlewares/ST/STM32_SPWF0xSy/wifi_module_uart_01.c ****         Fillptr=0;          
 490:Middlewares/ST/STM32_SPWF0xSy/wifi_module_uart_01.c ****         memset(process_buffer, 0x00, MAX_BUFFER_GLOBAL); 
 491:Middlewares/ST/STM32_SPWF0xSy/wifi_module_uart_01.c ****       }
 492:Middlewares/ST/STM32_SPWF0xSy/wifi_module_uart_01.c ****     
 493:Middlewares/ST/STM32_SPWF0xSy/wifi_module_uart_01.c ****         //Check Process Buffer for any pending message
 494:Middlewares/ST/STM32_SPWF0xSy/wifi_module_uart_01.c ****         if(WiFi_Control_Variables.enable_receive_data_chunk && !WiFi_Control_Variables.enable_sock_
 495:Middlewares/ST/STM32_SPWF0xSy/wifi_module_uart_01.c ****           {
 496:Middlewares/ST/STM32_SPWF0xSy/wifi_module_uart_01.c ****             WiFi_Counter_Variables.pop_queue_length = WiFi_Counter_Variables.pop_buffer_size;
 497:Middlewares/ST/STM32_SPWF0xSy/wifi_module_uart_01.c ****             if(Fillptr + WiFi_Counter_Variables.pop_queue_length > MAX_BUFFER_GLOBAL-1)
 498:Middlewares/ST/STM32_SPWF0xSy/wifi_module_uart_01.c ****             {
 499:Middlewares/ST/STM32_SPWF0xSy/wifi_module_uart_01.c ****                uint32_t length = (Fillptr + WiFi_Counter_Variables.pop_queue_length) - (MAX_BUFFER_
 500:Middlewares/ST/STM32_SPWF0xSy/wifi_module_uart_01.c ****               __disable_irq();
 501:Middlewares/ST/STM32_SPWF0xSy/wifi_module_uart_01.c ****                rewind_buffer_queue(&wifi_instances.big_buff,length);
 502:Middlewares/ST/STM32_SPWF0xSy/wifi_module_uart_01.c ****                __enable_irq();
 503:Middlewares/ST/STM32_SPWF0xSy/wifi_module_uart_01.c ****                memset(ptr+((MAX_BUFFER_GLOBAL-1) - Fillptr), 0x00, length);
 504:Middlewares/ST/STM32_SPWF0xSy/wifi_module_uart_01.c ****                WiFi_Counter_Variables.pop_queue_length = (MAX_BUFFER_GLOBAL-1) - Fillptr;
 505:Middlewares/ST/STM32_SPWF0xSy/wifi_module_uart_01.c ****             }
 506:Middlewares/ST/STM32_SPWF0xSy/wifi_module_uart_01.c ****             memcpy(process_buffer+Fillptr,(char const *)pop_buffer, WiFi_Counter_Variables.pop_queu
 507:Middlewares/ST/STM32_SPWF0xSy/wifi_module_uart_01.c ****             Fillptr = Fillptr + WiFi_Counter_Variables.pop_queue_length;
 508:Middlewares/ST/STM32_SPWF0xSy/wifi_module_uart_01.c ****             
 509:Middlewares/ST/STM32_SPWF0xSy/wifi_module_uart_01.c ****              // do nothing in this case as we do not know what data is coming next.
 510:Middlewares/ST/STM32_SPWF0xSy/wifi_module_uart_01.c ****             if(Fillptr == 1 && process_buffer[0]=='\r')
 511:Middlewares/ST/STM32_SPWF0xSy/wifi_module_uart_01.c ****               return;
 512:Middlewares/ST/STM32_SPWF0xSy/wifi_module_uart_01.c **** 
ARM GAS  D:\cygwin64\tmp\ccuGdUOt.s 			page 12


 513:Middlewares/ST/STM32_SPWF0xSy/wifi_module_uart_01.c ****             if((strstr((const char *)process_buffer,"ERROR: ")) != NULL)
 514:Middlewares/ST/STM32_SPWF0xSy/wifi_module_uart_01.c ****             {
 515:Middlewares/ST/STM32_SPWF0xSy/wifi_module_uart_01.c ****                  WiFi_Control_Variables.Q_Contains_Message = WIFI_FALSE;
 516:Middlewares/ST/STM32_SPWF0xSy/wifi_module_uart_01.c ****                  WiFi_Control_Variables.message_pending = WIFI_FALSE;
 517:Middlewares/ST/STM32_SPWF0xSy/wifi_module_uart_01.c ****             }
 518:Middlewares/ST/STM32_SPWF0xSy/wifi_module_uart_01.c ****             else if(!IO_status_flag.sock_read_ongoing && !WiFi_Control_Variables.enable_receive_htt
 519:Middlewares/ST/STM32_SPWF0xSy/wifi_module_uart_01.c ****             {
 520:Middlewares/ST/STM32_SPWF0xSy/wifi_module_uart_01.c ****                 if(process_buffer[0]!='\0') 
 521:Middlewares/ST/STM32_SPWF0xSy/wifi_module_uart_01.c ****                 {
 522:Middlewares/ST/STM32_SPWF0xSy/wifi_module_uart_01.c ****                   // in case of space " " SockON_Data_Length = 2 as only \r\n, so No Q_contains_mes
 523:Middlewares/ST/STM32_SPWF0xSy/wifi_module_uart_01.c ****                   if(((process_buffer[0]==0xD) && (process_buffer[1]==0xA)) && WiFi_Counter_Variabl
 524:Middlewares/ST/STM32_SPWF0xSy/wifi_module_uart_01.c ****                   {
 525:Middlewares/ST/STM32_SPWF0xSy/wifi_module_uart_01.c ****                     WiFi_Control_Variables.message_pending = WIFI_TRUE;
 526:Middlewares/ST/STM32_SPWF0xSy/wifi_module_uart_01.c ****                     if((pStr = (strstr((const char *)process_buffer+2,"\r\n"))) != NULL) 
 527:Middlewares/ST/STM32_SPWF0xSy/wifi_module_uart_01.c ****                     {
 528:Middlewares/ST/STM32_SPWF0xSy/wifi_module_uart_01.c ****                           // process buffer has complete message
 529:Middlewares/ST/STM32_SPWF0xSy/wifi_module_uart_01.c ****                           int wind_length = ((uint8_t *)pStr - (uint8_t *)process_buffer)+2;
 530:Middlewares/ST/STM32_SPWF0xSy/wifi_module_uart_01.c ****                           if(strstr((const char *)process_buffer+2,"DATALEN:")) 
 531:Middlewares/ST/STM32_SPWF0xSy/wifi_module_uart_01.c ****                           {
 532:Middlewares/ST/STM32_SPWF0xSy/wifi_module_uart_01.c ****                                 pStr = strstr((const char *)process_buffer + wind_length,"\r\nOK\r\
 533:Middlewares/ST/STM32_SPWF0xSy/wifi_module_uart_01.c ****                                 if(pStr!=NULL)
 534:Middlewares/ST/STM32_SPWF0xSy/wifi_module_uart_01.c ****                                 {
 535:Middlewares/ST/STM32_SPWF0xSy/wifi_module_uart_01.c ****                                     wind_length = ((uint8_t *)pStr-(uint8_t *)process_buffer)+6;
 536:Middlewares/ST/STM32_SPWF0xSy/wifi_module_uart_01.c ****                                 }
 537:Middlewares/ST/STM32_SPWF0xSy/wifi_module_uart_01.c ****                           }
 538:Middlewares/ST/STM32_SPWF0xSy/wifi_module_uart_01.c **** 
 539:Middlewares/ST/STM32_SPWF0xSy/wifi_module_uart_01.c ****                           if(Fillptr - wind_length)  //rewind only if extra bytes present in proces
 540:Middlewares/ST/STM32_SPWF0xSy/wifi_module_uart_01.c ****                           {
 541:Middlewares/ST/STM32_SPWF0xSy/wifi_module_uart_01.c ****                                 __disable_irq();
 542:Middlewares/ST/STM32_SPWF0xSy/wifi_module_uart_01.c ****                               rewind_buffer_queue(&wifi_instances.big_buff, Fillptr - wind_length);
 543:Middlewares/ST/STM32_SPWF0xSy/wifi_module_uart_01.c ****                               __enable_irq();
 544:Middlewares/ST/STM32_SPWF0xSy/wifi_module_uart_01.c ****                               memset(process_buffer + wind_length,0x00,Fillptr - wind_length);
 545:Middlewares/ST/STM32_SPWF0xSy/wifi_module_uart_01.c ****                               Fillptr = wind_length;
 546:Middlewares/ST/STM32_SPWF0xSy/wifi_module_uart_01.c ****                           }
 547:Middlewares/ST/STM32_SPWF0xSy/wifi_module_uart_01.c ****                           WiFi_Control_Variables.message_pending = WIFI_FALSE;
 548:Middlewares/ST/STM32_SPWF0xSy/wifi_module_uart_01.c ****                       }
 549:Middlewares/ST/STM32_SPWF0xSy/wifi_module_uart_01.c ****                       WiFi_Control_Variables.Q_Contains_Message = WIFI_TRUE;
 550:Middlewares/ST/STM32_SPWF0xSy/wifi_module_uart_01.c ****                     
 551:Middlewares/ST/STM32_SPWF0xSy/wifi_module_uart_01.c ****                       //if in /r/n.../r/n the data between a pair of /r/n is more than 511
 552:Middlewares/ST/STM32_SPWF0xSy/wifi_module_uart_01.c ****                       if(Fillptr == 511 && WiFi_Control_Variables.message_pending)
 553:Middlewares/ST/STM32_SPWF0xSy/wifi_module_uart_01.c ****                         {
 554:Middlewares/ST/STM32_SPWF0xSy/wifi_module_uart_01.c ****                             WiFi_Control_Variables.message_pending    = WIFI_FALSE;
 555:Middlewares/ST/STM32_SPWF0xSy/wifi_module_uart_01.c ****                             WiFi_Control_Variables.Q_Contains_Message = WIFI_FALSE;
 556:Middlewares/ST/STM32_SPWF0xSy/wifi_module_uart_01.c ****                             WiFi_Counter_Variables.pop_queue_length   = 511;
 557:Middlewares/ST/STM32_SPWF0xSy/wifi_module_uart_01.c ****                         }
 558:Middlewares/ST/STM32_SPWF0xSy/wifi_module_uart_01.c ****                     }
 559:Middlewares/ST/STM32_SPWF0xSy/wifi_module_uart_01.c ****                 }
 560:Middlewares/ST/STM32_SPWF0xSy/wifi_module_uart_01.c ****             }
 561:Middlewares/ST/STM32_SPWF0xSy/wifi_module_uart_01.c ****           }
 562:Middlewares/ST/STM32_SPWF0xSy/wifi_module_uart_01.c **** 
 563:Middlewares/ST/STM32_SPWF0xSy/wifi_module_uart_01.c ****         /******************************************************************************************
 564:Middlewares/ST/STM32_SPWF0xSy/wifi_module_uart_01.c ****          *                                                                                         
 565:Middlewares/ST/STM32_SPWF0xSy/wifi_module_uart_01.c ****          *                          Socket Read Is Enabled.                                       *
 566:Middlewares/ST/STM32_SPWF0xSy/wifi_module_uart_01.c ****          *                                                                                         
 567:Middlewares/ST/STM32_SPWF0xSy/wifi_module_uart_01.c ****          ******************************************************************************************
 568:Middlewares/ST/STM32_SPWF0xSy/wifi_module_uart_01.c ****         
 569:Middlewares/ST/STM32_SPWF0xSy/wifi_module_uart_01.c ****         
ARM GAS  D:\cygwin64\tmp\ccuGdUOt.s 			page 13


 570:Middlewares/ST/STM32_SPWF0xSy/wifi_module_uart_01.c ****         if(!WiFi_Control_Variables.Q_Contains_Message && WiFi_Control_Variables.enable_sock_read)  
 571:Middlewares/ST/STM32_SPWF0xSy/wifi_module_uart_01.c ****         {
 572:Middlewares/ST/STM32_SPWF0xSy/wifi_module_uart_01.c ****             IO_status_flag.sock_read_ongoing = WIFI_TRUE;
 573:Middlewares/ST/STM32_SPWF0xSy/wifi_module_uart_01.c ****             WiFi_Counter_Variables.sock_total_count = WiFi_Counter_Variables.sock_total_count + WiF
 574:Middlewares/ST/STM32_SPWF0xSy/wifi_module_uart_01.c ****             
 575:Middlewares/ST/STM32_SPWF0xSy/wifi_module_uart_01.c ****             /* Check for "ERROR: Not enough data in buffer " */
 576:Middlewares/ST/STM32_SPWF0xSy/wifi_module_uart_01.c ****             pStr = (char *) strstr((const char *)&process_buffer + WiFi_Counter_Variables.last_proc
 577:Middlewares/ST/STM32_SPWF0xSy/wifi_module_uart_01.c ****             if (pStr != NULL)
 578:Middlewares/ST/STM32_SPWF0xSy/wifi_module_uart_01.c ****               {
 579:Middlewares/ST/STM32_SPWF0xSy/wifi_module_uart_01.c ****                   if((process_buffer[Fillptr-2]==0xD) && (process_buffer[Fillptr-1]==0xA)) //check 
 580:Middlewares/ST/STM32_SPWF0xSy/wifi_module_uart_01.c ****                     {
 581:Middlewares/ST/STM32_SPWF0xSy/wifi_module_uart_01.c ****                       if((pStr = (char *)strstr((const char *)&process_buffer,"\r\nERROR: Too many 
 582:Middlewares/ST/STM32_SPWF0xSy/wifi_module_uart_01.c ****                         {
 583:Middlewares/ST/STM32_SPWF0xSy/wifi_module_uart_01.c ****                            #if DEBUG_PRINT
 584:Middlewares/ST/STM32_SPWF0xSy/wifi_module_uart_01.c ****                              printf("\r\nERROR: TOO MANY SOCKETS \r\n");
 585:Middlewares/ST/STM32_SPWF0xSy/wifi_module_uart_01.c ****                            #endif
 586:Middlewares/ST/STM32_SPWF0xSy/wifi_module_uart_01.c **** 
 587:Middlewares/ST/STM32_SPWF0xSy/wifi_module_uart_01.c ****                             if(*(pStr+27)!='\0')
 588:Middlewares/ST/STM32_SPWF0xSy/wifi_module_uart_01.c ****                               {
 589:Middlewares/ST/STM32_SPWF0xSy/wifi_module_uart_01.c ****                                   int len = (uint8_t *)pStr - (uint8_t *)process_buffer;
 590:Middlewares/ST/STM32_SPWF0xSy/wifi_module_uart_01.c ****                                   int extra_bytes = Fillptr - (len+27);
 591:Middlewares/ST/STM32_SPWF0xSy/wifi_module_uart_01.c ****                                   __disable_irq();
 592:Middlewares/ST/STM32_SPWF0xSy/wifi_module_uart_01.c ****                                   rewind_buffer_queue(&wifi_instances.big_buff, extra_bytes);
 593:Middlewares/ST/STM32_SPWF0xSy/wifi_module_uart_01.c ****                                   __enable_irq();
 594:Middlewares/ST/STM32_SPWF0xSy/wifi_module_uart_01.c ****                               }
 595:Middlewares/ST/STM32_SPWF0xSy/wifi_module_uart_01.c ****                             IO_status_flag.AT_Response_Received = WIFI_TRUE;
 596:Middlewares/ST/STM32_SPWF0xSy/wifi_module_uart_01.c ****                             WiFi_Counter_Variables.AT_RESPONSE = WiFi_AT_CMD_RESP_ERROR;
 597:Middlewares/ST/STM32_SPWF0xSy/wifi_module_uart_01.c ****                         }
 598:Middlewares/ST/STM32_SPWF0xSy/wifi_module_uart_01.c ****                       else if((pStr = (char *)strstr((const char *)&process_buffer,"\r\nERROR: Pend
 599:Middlewares/ST/STM32_SPWF0xSy/wifi_module_uart_01.c ****                         {
 600:Middlewares/ST/STM32_SPWF0xSy/wifi_module_uart_01.c ****                            #if DEBUG_PRINT
 601:Middlewares/ST/STM32_SPWF0xSy/wifi_module_uart_01.c ****                              printf("\r\nERROR: PENDING DATA \r\n");
 602:Middlewares/ST/STM32_SPWF0xSy/wifi_module_uart_01.c ****                            #endif
 603:Middlewares/ST/STM32_SPWF0xSy/wifi_module_uart_01.c **** 
 604:Middlewares/ST/STM32_SPWF0xSy/wifi_module_uart_01.c ****                             if(*(pStr+23)!='\0')
 605:Middlewares/ST/STM32_SPWF0xSy/wifi_module_uart_01.c ****                               {
 606:Middlewares/ST/STM32_SPWF0xSy/wifi_module_uart_01.c ****                                   int len = (uint8_t *)pStr - (uint8_t *)process_buffer;
 607:Middlewares/ST/STM32_SPWF0xSy/wifi_module_uart_01.c ****                                   int extra_bytes = Fillptr - (len+23);
 608:Middlewares/ST/STM32_SPWF0xSy/wifi_module_uart_01.c ****                                   __disable_irq();
 609:Middlewares/ST/STM32_SPWF0xSy/wifi_module_uart_01.c ****                                   rewind_buffer_queue(&wifi_instances.big_buff, extra_bytes);
 610:Middlewares/ST/STM32_SPWF0xSy/wifi_module_uart_01.c ****                                   __enable_irq();
 611:Middlewares/ST/STM32_SPWF0xSy/wifi_module_uart_01.c ****                               }
 612:Middlewares/ST/STM32_SPWF0xSy/wifi_module_uart_01.c ****                             WiFi_Counter_Variables.socket_close_pending[WiFi_Counter_Variables.remo
 613:Middlewares/ST/STM32_SPWF0xSy/wifi_module_uart_01.c ****                         }
 614:Middlewares/ST/STM32_SPWF0xSy/wifi_module_uart_01.c ****                       
 615:Middlewares/ST/STM32_SPWF0xSy/wifi_module_uart_01.c ****                       else if((pStr = (char *)strstr((const char *)&process_buffer,"\r\nERROR: Sock
 616:Middlewares/ST/STM32_SPWF0xSy/wifi_module_uart_01.c ****                         {
 617:Middlewares/ST/STM32_SPWF0xSy/wifi_module_uart_01.c ****                             #if DEBUG_PRINT
 618:Middlewares/ST/STM32_SPWF0xSy/wifi_module_uart_01.c ****                              printf("\r\nERROR: Socket error\r\n");
 619:Middlewares/ST/STM32_SPWF0xSy/wifi_module_uart_01.c ****                             #endif
 620:Middlewares/ST/STM32_SPWF0xSy/wifi_module_uart_01.c **** 
 621:Middlewares/ST/STM32_SPWF0xSy/wifi_module_uart_01.c ****                            if(*(pStr+23)!='\0')
 622:Middlewares/ST/STM32_SPWF0xSy/wifi_module_uart_01.c ****                             {
 623:Middlewares/ST/STM32_SPWF0xSy/wifi_module_uart_01.c ****                                 int len = (uint8_t *)pStr - (uint8_t *)process_buffer;
 624:Middlewares/ST/STM32_SPWF0xSy/wifi_module_uart_01.c ****                                 int extra_bytes = Fillptr - (len+23);
 625:Middlewares/ST/STM32_SPWF0xSy/wifi_module_uart_01.c ****                                 __disable_irq();
 626:Middlewares/ST/STM32_SPWF0xSy/wifi_module_uart_01.c ****                                 rewind_buffer_queue(&wifi_instances.big_buff, extra_bytes);
ARM GAS  D:\cygwin64\tmp\ccuGdUOt.s 			page 14


 627:Middlewares/ST/STM32_SPWF0xSy/wifi_module_uart_01.c ****                                 __enable_irq();
 628:Middlewares/ST/STM32_SPWF0xSy/wifi_module_uart_01.c ****                             }
 629:Middlewares/ST/STM32_SPWF0xSy/wifi_module_uart_01.c ****                         }
 630:Middlewares/ST/STM32_SPWF0xSy/wifi_module_uart_01.c **** 
 631:Middlewares/ST/STM32_SPWF0xSy/wifi_module_uart_01.c ****                       #if DEBUG_PRINT
 632:Middlewares/ST/STM32_SPWF0xSy/wifi_module_uart_01.c ****                         printf("\rERROR DURING SOCK READ\r\n");
 633:Middlewares/ST/STM32_SPWF0xSy/wifi_module_uart_01.c ****                       #endif
 634:Middlewares/ST/STM32_SPWF0xSy/wifi_module_uart_01.c ****                       WiFi_Counter_Variables.sock_total_count = 0;
 635:Middlewares/ST/STM32_SPWF0xSy/wifi_module_uart_01.c ****                       WiFi_Counter_Variables.Socket_Data_Length = 0;
 636:Middlewares/ST/STM32_SPWF0xSy/wifi_module_uart_01.c ****                       WiFi_Counter_Variables.SockON_Data_Length = 0;
 637:Middlewares/ST/STM32_SPWF0xSy/wifi_module_uart_01.c ****                       WiFi_Counter_Variables.last_process_buffer_index = 5;
 638:Middlewares/ST/STM32_SPWF0xSy/wifi_module_uart_01.c ****                       WiFi_Control_Variables.enable_sock_read = WIFI_FALSE;
 639:Middlewares/ST/STM32_SPWF0xSy/wifi_module_uart_01.c ****                       WiFi_Control_Variables.stop_event_dequeue = WIFI_FALSE;
 640:Middlewares/ST/STM32_SPWF0xSy/wifi_module_uart_01.c ****                       WiFi_Control_Variables.enable_receive_data_chunk = WIFI_FALSE;
 641:Middlewares/ST/STM32_SPWF0xSy/wifi_module_uart_01.c ****                       IO_status_flag.WIND64_count=0;
 642:Middlewares/ST/STM32_SPWF0xSy/wifi_module_uart_01.c ****                       IO_status_flag.sock_read_ongoing = WIFI_FALSE;
 643:Middlewares/ST/STM32_SPWF0xSy/wifi_module_uart_01.c ****                       if(WiFi_Control_Variables.data_pending_sockD)
 644:Middlewares/ST/STM32_SPWF0xSy/wifi_module_uart_01.c ****                         {
 645:Middlewares/ST/STM32_SPWF0xSy/wifi_module_uart_01.c ****                           WiFi_Control_Variables.data_pending_sockD = WIFI_FALSE;
 646:Middlewares/ST/STM32_SPWF0xSy/wifi_module_uart_01.c ****                           WiFi_Counter_Variables.number_of_bytes=0;
 647:Middlewares/ST/STM32_SPWF0xSy/wifi_module_uart_01.c ****                           WiFi_Control_Variables.switch_by_default_to_command_mode=WIFI_TRUE;
 648:Middlewares/ST/STM32_SPWF0xSy/wifi_module_uart_01.c ****                           WiFi_switch_to_command_mode(); //switch by default
 649:Middlewares/ST/STM32_SPWF0xSy/wifi_module_uart_01.c ****                         }
 650:Middlewares/ST/STM32_SPWF0xSy/wifi_module_uart_01.c **** 
 651:Middlewares/ST/STM32_SPWF0xSy/wifi_module_uart_01.c ****                       memset(process_buffer, 0x00, Fillptr);
 652:Middlewares/ST/STM32_SPWF0xSy/wifi_module_uart_01.c ****                       Fillptr=0;
 653:Middlewares/ST/STM32_SPWF0xSy/wifi_module_uart_01.c ****                       return;
 654:Middlewares/ST/STM32_SPWF0xSy/wifi_module_uart_01.c ****                    }
 655:Middlewares/ST/STM32_SPWF0xSy/wifi_module_uart_01.c ****               }
 656:Middlewares/ST/STM32_SPWF0xSy/wifi_module_uart_01.c ****             
 657:Middlewares/ST/STM32_SPWF0xSy/wifi_module_uart_01.c ****             //In case of "ERROR" we wait till \r\n is received, till that do not update last_proces
 658:Middlewares/ST/STM32_SPWF0xSy/wifi_module_uart_01.c ****             if(Fillptr > 5 && pStr == NULL) 
 659:Middlewares/ST/STM32_SPWF0xSy/wifi_module_uart_01.c ****               WiFi_Counter_Variables.last_process_buffer_index = Fillptr;
 660:Middlewares/ST/STM32_SPWF0xSy/wifi_module_uart_01.c **** 
 661:Middlewares/ST/STM32_SPWF0xSy/wifi_module_uart_01.c ****             /*now check if end of msg received*/
 662:Middlewares/ST/STM32_SPWF0xSy/wifi_module_uart_01.c ****             if(WiFi_Counter_Variables.sock_total_count >= WiFi_Counter_Variables.SockON_Data_Length
 663:Middlewares/ST/STM32_SPWF0xSy/wifi_module_uart_01.c ****               {
 664:Middlewares/ST/STM32_SPWF0xSy/wifi_module_uart_01.c ****                 #if DEBUG_PRINT
 665:Middlewares/ST/STM32_SPWF0xSy/wifi_module_uart_01.c ****                  printf("\nReached SockON_Data_Length \r\n");
 666:Middlewares/ST/STM32_SPWF0xSy/wifi_module_uart_01.c ****                 #endif
 667:Middlewares/ST/STM32_SPWF0xSy/wifi_module_uart_01.c **** 
 668:Middlewares/ST/STM32_SPWF0xSy/wifi_module_uart_01.c ****                  //rewind the buffer, if some extra bytes along with required data
 669:Middlewares/ST/STM32_SPWF0xSy/wifi_module_uart_01.c ****                 if(WiFi_Counter_Variables.sock_total_count > WiFi_Counter_Variables.SockON_Data_Len
 670:Middlewares/ST/STM32_SPWF0xSy/wifi_module_uart_01.c ****                   {
 671:Middlewares/ST/STM32_SPWF0xSy/wifi_module_uart_01.c ****                     int databytes = WiFi_Counter_Variables.sock_total_count - WiFi_Counter_Variable
 672:Middlewares/ST/STM32_SPWF0xSy/wifi_module_uart_01.c ****                     
 673:Middlewares/ST/STM32_SPWF0xSy/wifi_module_uart_01.c ****                     __disable_irq();
 674:Middlewares/ST/STM32_SPWF0xSy/wifi_module_uart_01.c ****                     rewind_buffer_queue(&wifi_instances.big_buff, databytes);
 675:Middlewares/ST/STM32_SPWF0xSy/wifi_module_uart_01.c ****                     __enable_irq();
 676:Middlewares/ST/STM32_SPWF0xSy/wifi_module_uart_01.c **** 
 677:Middlewares/ST/STM32_SPWF0xSy/wifi_module_uart_01.c ****                     memset(process_buffer+(Fillptr - databytes), 0x00, databytes);
 678:Middlewares/ST/STM32_SPWF0xSy/wifi_module_uart_01.c ****                     Fillptr = Fillptr - databytes;
 679:Middlewares/ST/STM32_SPWF0xSy/wifi_module_uart_01.c ****                   }
 680:Middlewares/ST/STM32_SPWF0xSy/wifi_module_uart_01.c ****                 WiFi_Counter_Variables.chunk_size = Fillptr;
 681:Middlewares/ST/STM32_SPWF0xSy/wifi_module_uart_01.c ****                 WiFi_Counter_Variables.message_size = WiFi_Counter_Variables.SockON_Data_Length;
 682:Middlewares/ST/STM32_SPWF0xSy/wifi_module_uart_01.c ****                 memcpy(UserDataBuff, process_buffer, Fillptr);
 683:Middlewares/ST/STM32_SPWF0xSy/wifi_module_uart_01.c ****                 Fillptr = 0;
ARM GAS  D:\cygwin64\tmp\ccuGdUOt.s 			page 15


 684:Middlewares/ST/STM32_SPWF0xSy/wifi_module_uart_01.c ****                 WiFi_Counter_Variables.sock_total_count = 0;
 685:Middlewares/ST/STM32_SPWF0xSy/wifi_module_uart_01.c ****                 WiFi_Counter_Variables.Socket_Data_Length = 0;
 686:Middlewares/ST/STM32_SPWF0xSy/wifi_module_uart_01.c ****                 WiFi_Counter_Variables.SockON_Data_Length = 0;
 687:Middlewares/ST/STM32_SPWF0xSy/wifi_module_uart_01.c ****                 WiFi_Counter_Variables.pop_queue_length = 0;
 688:Middlewares/ST/STM32_SPWF0xSy/wifi_module_uart_01.c ****                 WiFi_Counter_Variables.last_process_buffer_index = 5;
 689:Middlewares/ST/STM32_SPWF0xSy/wifi_module_uart_01.c ****                 WiFi_Control_Variables.Q_Contains_Message = WIFI_FALSE;
 690:Middlewares/ST/STM32_SPWF0xSy/wifi_module_uart_01.c ****                 WiFi_Control_Variables.enable_receive_data_chunk = WIFI_FALSE;
 691:Middlewares/ST/STM32_SPWF0xSy/wifi_module_uart_01.c ****                 WiFi_Counter_Variables.sockdon_id_user = -1;
 692:Middlewares/ST/STM32_SPWF0xSy/wifi_module_uart_01.c **** 
 693:Middlewares/ST/STM32_SPWF0xSy/wifi_module_uart_01.c ****                 if(WiFi_Control_Variables.data_pending_sockD)
 694:Middlewares/ST/STM32_SPWF0xSy/wifi_module_uart_01.c ****                   {
 695:Middlewares/ST/STM32_SPWF0xSy/wifi_module_uart_01.c ****                     WiFi_Counter_Variables.number_of_bytes=0;
 696:Middlewares/ST/STM32_SPWF0xSy/wifi_module_uart_01.c ****                     WiFi_Counter_Variables.sockon_id_user = 0;
 697:Middlewares/ST/STM32_SPWF0xSy/wifi_module_uart_01.c ****                     if(IO_status_flag.WIND64_count>0)
 698:Middlewares/ST/STM32_SPWF0xSy/wifi_module_uart_01.c ****                         IO_status_flag.WIND64_count--;                         //decrease the numbe
 699:Middlewares/ST/STM32_SPWF0xSy/wifi_module_uart_01.c ****                     if(IO_status_flag.WIND64_count==0) 
 700:Middlewares/ST/STM32_SPWF0xSy/wifi_module_uart_01.c ****                       {
 701:Middlewares/ST/STM32_SPWF0xSy/wifi_module_uart_01.c ****                         WiFi_Control_Variables.switch_by_default_to_command_mode=WIFI_TRUE;
 702:Middlewares/ST/STM32_SPWF0xSy/wifi_module_uart_01.c ****                         WiFi_switch_to_command_mode();              //switch by default
 703:Middlewares/ST/STM32_SPWF0xSy/wifi_module_uart_01.c ****                       }
 704:Middlewares/ST/STM32_SPWF0xSy/wifi_module_uart_01.c ****                     WiFi_Control_Variables.enable_query = WIFI_FALSE;
 705:Middlewares/ST/STM32_SPWF0xSy/wifi_module_uart_01.c ****                   }
 706:Middlewares/ST/STM32_SPWF0xSy/wifi_module_uart_01.c ****                 else
 707:Middlewares/ST/STM32_SPWF0xSy/wifi_module_uart_01.c ****                   {
 708:Middlewares/ST/STM32_SPWF0xSy/wifi_module_uart_01.c ****                     //do we have more data?
 709:Middlewares/ST/STM32_SPWF0xSy/wifi_module_uart_01.c ****                     WiFi_Control_Variables.enable_query = WIFI_TRUE;
 710:Middlewares/ST/STM32_SPWF0xSy/wifi_module_uart_01.c ****                     WiFi_Counter_Variables.sockon_id_user = WiFi_Counter_Variables.sockon_query_id;
 711:Middlewares/ST/STM32_SPWF0xSy/wifi_module_uart_01.c ****                     /*@TODO: Do not need to prevent OK push in case of server socket*/
 712:Middlewares/ST/STM32_SPWF0xSy/wifi_module_uart_01.c ****                     IO_status_flag.prevent_push_OK_event = WIFI_TRUE; //prevent the qeueuing of the
 713:Middlewares/ST/STM32_SPWF0xSy/wifi_module_uart_01.c ****                   }
 714:Middlewares/ST/STM32_SPWF0xSy/wifi_module_uart_01.c **** 
 715:Middlewares/ST/STM32_SPWF0xSy/wifi_module_uart_01.c ****                 WiFi_Control_Variables.enable_sock_read = WIFI_FALSE;
 716:Middlewares/ST/STM32_SPWF0xSy/wifi_module_uart_01.c ****                 IO_status_flag.sock_read_ongoing = WIFI_FALSE;
 717:Middlewares/ST/STM32_SPWF0xSy/wifi_module_uart_01.c ****                 Stop_Dequeue();                           //Stop dequeue till user callback returns
 718:Middlewares/ST/STM32_SPWF0xSy/wifi_module_uart_01.c **** 
 719:Middlewares/ST/STM32_SPWF0xSy/wifi_module_uart_01.c ****                 if(WiFi_Control_Variables.data_pending_sockD)
 720:Middlewares/ST/STM32_SPWF0xSy/wifi_module_uart_01.c ****                   {
 721:Middlewares/ST/STM32_SPWF0xSy/wifi_module_uart_01.c ****                     WiFi_Control_Variables.Pending_SockD_Callback = WIFI_TRUE;
 722:Middlewares/ST/STM32_SPWF0xSy/wifi_module_uart_01.c ****                     WiFi_Control_Variables.stop_event_dequeue = WIFI_FALSE;
 723:Middlewares/ST/STM32_SPWF0xSy/wifi_module_uart_01.c ****                     WiFi_Control_Variables.data_pending_sockD = WIFI_FALSE;
 724:Middlewares/ST/STM32_SPWF0xSy/wifi_module_uart_01.c ****                   }
 725:Middlewares/ST/STM32_SPWF0xSy/wifi_module_uart_01.c ****                 else
 726:Middlewares/ST/STM32_SPWF0xSy/wifi_module_uart_01.c ****                   {
 727:Middlewares/ST/STM32_SPWF0xSy/wifi_module_uart_01.c ****                     WiFi_Control_Variables.Pending_SockON_Callback = WIFI_TRUE;   //set this to cal
 728:Middlewares/ST/STM32_SPWF0xSy/wifi_module_uart_01.c ****                   }
 729:Middlewares/ST/STM32_SPWF0xSy/wifi_module_uart_01.c ****                 memset(process_buffer, 0x00, MAX_BUFFER_GLOBAL);
 730:Middlewares/ST/STM32_SPWF0xSy/wifi_module_uart_01.c ****                 return;
 731:Middlewares/ST/STM32_SPWF0xSy/wifi_module_uart_01.c ****               }
 732:Middlewares/ST/STM32_SPWF0xSy/wifi_module_uart_01.c **** 
 733:Middlewares/ST/STM32_SPWF0xSy/wifi_module_uart_01.c ****             //if Process_buffer is completely filled, callback to user with User Buffer pointer
 734:Middlewares/ST/STM32_SPWF0xSy/wifi_module_uart_01.c ****             if(Fillptr >= MAX_BUFFER_GLOBAL-1)
 735:Middlewares/ST/STM32_SPWF0xSy/wifi_module_uart_01.c ****               {
 736:Middlewares/ST/STM32_SPWF0xSy/wifi_module_uart_01.c ****                 WiFi_Counter_Variables.last_process_buffer_index = 5;
 737:Middlewares/ST/STM32_SPWF0xSy/wifi_module_uart_01.c ****                 WiFi_Counter_Variables.message_size = WiFi_Counter_Variables.SockON_Data_Length;
 738:Middlewares/ST/STM32_SPWF0xSy/wifi_module_uart_01.c ****                 WiFi_Counter_Variables.chunk_size = MAX_BUFFER_GLOBAL-1;
 739:Middlewares/ST/STM32_SPWF0xSy/wifi_module_uart_01.c ****                 memcpy(UserDataBuff, process_buffer, Fillptr);
 740:Middlewares/ST/STM32_SPWF0xSy/wifi_module_uart_01.c ****                 Fillptr = 0;
ARM GAS  D:\cygwin64\tmp\ccuGdUOt.s 			page 16


 741:Middlewares/ST/STM32_SPWF0xSy/wifi_module_uart_01.c ****                 WiFi_Counter_Variables.last_process_buffer_index = 5;
 742:Middlewares/ST/STM32_SPWF0xSy/wifi_module_uart_01.c ****                 WiFi_Counter_Variables.sockdon_id_user = -1;
 743:Middlewares/ST/STM32_SPWF0xSy/wifi_module_uart_01.c ****                 Stop_Dequeue();
 744:Middlewares/ST/STM32_SPWF0xSy/wifi_module_uart_01.c ****                 memset(process_buffer, 0x00, MAX_BUFFER_GLOBAL);
 745:Middlewares/ST/STM32_SPWF0xSy/wifi_module_uart_01.c ****                 if(WiFi_Control_Variables.data_pending_sockD)
 746:Middlewares/ST/STM32_SPWF0xSy/wifi_module_uart_01.c ****                   {
 747:Middlewares/ST/STM32_SPWF0xSy/wifi_module_uart_01.c ****                     WiFi_Counter_Variables.sockon_id_user = 0;
 748:Middlewares/ST/STM32_SPWF0xSy/wifi_module_uart_01.c ****                     WiFi_Control_Variables.Pending_SockD_Callback = WIFI_TRUE; //callback to user w
 749:Middlewares/ST/STM32_SPWF0xSy/wifi_module_uart_01.c ****                   }
 750:Middlewares/ST/STM32_SPWF0xSy/wifi_module_uart_01.c ****                 else
 751:Middlewares/ST/STM32_SPWF0xSy/wifi_module_uart_01.c ****                   {
 752:Middlewares/ST/STM32_SPWF0xSy/wifi_module_uart_01.c ****                     WiFi_Counter_Variables.sockon_id_user = WiFi_Counter_Variables.sockon_query_id;
 753:Middlewares/ST/STM32_SPWF0xSy/wifi_module_uart_01.c ****                     WiFi_Control_Variables.Pending_SockON_Callback = WIFI_TRUE; //set this to callb
 754:Middlewares/ST/STM32_SPWF0xSy/wifi_module_uart_01.c ****                   }
 755:Middlewares/ST/STM32_SPWF0xSy/wifi_module_uart_01.c ****               }
 756:Middlewares/ST/STM32_SPWF0xSy/wifi_module_uart_01.c ****             return;
 757:Middlewares/ST/STM32_SPWF0xSy/wifi_module_uart_01.c ****         }
 758:Middlewares/ST/STM32_SPWF0xSy/wifi_module_uart_01.c **** 
 759:Middlewares/ST/STM32_SPWF0xSy/wifi_module_uart_01.c ****          /*****************************************************************************************
 760:Middlewares/ST/STM32_SPWF0xSy/wifi_module_uart_01.c ****          *                                                                                         
 761:Middlewares/ST/STM32_SPWF0xSy/wifi_module_uart_01.c ****          *                          HTTP Response Is Enabled.                                     *
 762:Middlewares/ST/STM32_SPWF0xSy/wifi_module_uart_01.c ****          *                                                                                         
 763:Middlewares/ST/STM32_SPWF0xSy/wifi_module_uart_01.c ****          ******************************************************************************************
 764:Middlewares/ST/STM32_SPWF0xSy/wifi_module_uart_01.c **** 
 765:Middlewares/ST/STM32_SPWF0xSy/wifi_module_uart_01.c ****         if (WiFi_Control_Variables.enable_receive_http_response) // http response enabled
 766:Middlewares/ST/STM32_SPWF0xSy/wifi_module_uart_01.c ****         {
 767:Middlewares/ST/STM32_SPWF0xSy/wifi_module_uart_01.c ****             IO_status_flag.sock_read_ongoing = WIFI_TRUE;
 768:Middlewares/ST/STM32_SPWF0xSy/wifi_module_uart_01.c ****             if((pStr = (strstr((const char *)process_buffer + WiFi_Counter_Variables.last_process_b
 769:Middlewares/ST/STM32_SPWF0xSy/wifi_module_uart_01.c ****               {
 770:Middlewares/ST/STM32_SPWF0xSy/wifi_module_uart_01.c ****                   #if DEBUG_PRINT
 771:Middlewares/ST/STM32_SPWF0xSy/wifi_module_uart_01.c ****                     printf("\r\nOK\r\n");         //http response completed
 772:Middlewares/ST/STM32_SPWF0xSy/wifi_module_uart_01.c ****                   #endif
 773:Middlewares/ST/STM32_SPWF0xSy/wifi_module_uart_01.c **** 
 774:Middlewares/ST/STM32_SPWF0xSy/wifi_module_uart_01.c ****                   if(*(pStr+7) != '\0') //extra data apart from the required HTTP Response
 775:Middlewares/ST/STM32_SPWF0xSy/wifi_module_uart_01.c ****                     {
 776:Middlewares/ST/STM32_SPWF0xSy/wifi_module_uart_01.c ****                         int len = (uint8_t *)pStr - (uint8_t *)process_buffer;
 777:Middlewares/ST/STM32_SPWF0xSy/wifi_module_uart_01.c ****                         int extra_bytes = Fillptr - (len+6);
 778:Middlewares/ST/STM32_SPWF0xSy/wifi_module_uart_01.c ****                         __disable_irq();
 779:Middlewares/ST/STM32_SPWF0xSy/wifi_module_uart_01.c ****                         rewind_buffer_queue(&wifi_instances.big_buff, extra_bytes);
 780:Middlewares/ST/STM32_SPWF0xSy/wifi_module_uart_01.c ****                         __enable_irq();
 781:Middlewares/ST/STM32_SPWF0xSy/wifi_module_uart_01.c ****                         
 782:Middlewares/ST/STM32_SPWF0xSy/wifi_module_uart_01.c ****                         memset(process_buffer+len+7, 0x00, extra_bytes);
 783:Middlewares/ST/STM32_SPWF0xSy/wifi_module_uart_01.c ****                         Fillptr = Fillptr - extra_bytes;
 784:Middlewares/ST/STM32_SPWF0xSy/wifi_module_uart_01.c ****                     }
 785:Middlewares/ST/STM32_SPWF0xSy/wifi_module_uart_01.c ****                   
 786:Middlewares/ST/STM32_SPWF0xSy/wifi_module_uart_01.c ****                   WiFi_Counter_Variables.chunk_size = Fillptr;
 787:Middlewares/ST/STM32_SPWF0xSy/wifi_module_uart_01.c ****                   memcpy(UserDataBuff, process_buffer, Fillptr);
 788:Middlewares/ST/STM32_SPWF0xSy/wifi_module_uart_01.c ****                   WiFi_Counter_Variables.UserDataBuff_index = Fillptr;
 789:Middlewares/ST/STM32_SPWF0xSy/wifi_module_uart_01.c ****                   IO_status_flag.AT_Response_Received = WIFI_TRUE;
 790:Middlewares/ST/STM32_SPWF0xSy/wifi_module_uart_01.c ****                   WiFi_Control_Variables.enable_receive_data_chunk = WIFI_FALSE;
 791:Middlewares/ST/STM32_SPWF0xSy/wifi_module_uart_01.c ****                   WiFi_Control_Variables.enable_receive_http_response = WIFI_FALSE;
 792:Middlewares/ST/STM32_SPWF0xSy/wifi_module_uart_01.c ****                   Stop_Dequeue();
 793:Middlewares/ST/STM32_SPWF0xSy/wifi_module_uart_01.c ****                   WiFi_Counter_Variables.AT_RESPONSE = WiFi_MODULE_SUCCESS;
 794:Middlewares/ST/STM32_SPWF0xSy/wifi_module_uart_01.c ****                   IO_status_flag.sock_read_ongoing = WIFI_FALSE;
 795:Middlewares/ST/STM32_SPWF0xSy/wifi_module_uart_01.c ****                   WiFi_Control_Variables.Q_Contains_Message = WIFI_FALSE;
 796:Middlewares/ST/STM32_SPWF0xSy/wifi_module_uart_01.c ****                   WiFi_Control_Variables.stop_event_dequeue = WIFI_FALSE;
 797:Middlewares/ST/STM32_SPWF0xSy/wifi_module_uart_01.c ****                   WiFi_Counter_Variables.last_process_buffer_index = 5;
ARM GAS  D:\cygwin64\tmp\ccuGdUOt.s 			page 17


 798:Middlewares/ST/STM32_SPWF0xSy/wifi_module_uart_01.c ****                   memset(process_buffer, 0x00, Fillptr);
 799:Middlewares/ST/STM32_SPWF0xSy/wifi_module_uart_01.c ****                   Fillptr=0;
 800:Middlewares/ST/STM32_SPWF0xSy/wifi_module_uart_01.c **** 
 801:Middlewares/ST/STM32_SPWF0xSy/wifi_module_uart_01.c ****                   if(WiFi_Control_Variables.enable_receive_file_response)
 802:Middlewares/ST/STM32_SPWF0xSy/wifi_module_uart_01.c ****                     WiFi_Control_Variables.FILE_Data_available = WIFI_TRUE;
 803:Middlewares/ST/STM32_SPWF0xSy/wifi_module_uart_01.c ****                   else
 804:Middlewares/ST/STM32_SPWF0xSy/wifi_module_uart_01.c ****                     WiFi_Control_Variables.HTTP_Data_available=WIFI_TRUE;
 805:Middlewares/ST/STM32_SPWF0xSy/wifi_module_uart_01.c ****               }
 806:Middlewares/ST/STM32_SPWF0xSy/wifi_module_uart_01.c **** 
 807:Middlewares/ST/STM32_SPWF0xSy/wifi_module_uart_01.c ****             else if(( pStr = (strstr((const char *)process_buffer + WiFi_Counter_Variables.last_pro
 808:Middlewares/ST/STM32_SPWF0xSy/wifi_module_uart_01.c ****               {
 809:Middlewares/ST/STM32_SPWF0xSy/wifi_module_uart_01.c ****                   /* wait for complete error message */
 810:Middlewares/ST/STM32_SPWF0xSy/wifi_module_uart_01.c ****                    WiFi_Control_Variables.enable_receive_data_chunk = WIFI_FALSE;
 811:Middlewares/ST/STM32_SPWF0xSy/wifi_module_uart_01.c ****                   if((process_buffer[Fillptr-2]==0xD) && (process_buffer[Fillptr-1]==0xA))
 812:Middlewares/ST/STM32_SPWF0xSy/wifi_module_uart_01.c ****                   {
 813:Middlewares/ST/STM32_SPWF0xSy/wifi_module_uart_01.c ****                       #if DEBUG_PRINT
 814:Middlewares/ST/STM32_SPWF0xSy/wifi_module_uart_01.c ****                       printf("\r\nERROR\r\n");
 815:Middlewares/ST/STM32_SPWF0xSy/wifi_module_uart_01.c ****                       #endif
 816:Middlewares/ST/STM32_SPWF0xSy/wifi_module_uart_01.c ****                       IO_status_flag.AT_Response_Received = WIFI_TRUE;
 817:Middlewares/ST/STM32_SPWF0xSy/wifi_module_uart_01.c ****                       WiFi_Counter_Variables.AT_RESPONSE = WiFi_AT_CMD_RESP_ERROR;
 818:Middlewares/ST/STM32_SPWF0xSy/wifi_module_uart_01.c ****                       IO_status_flag.sock_read_ongoing = WIFI_FALSE;
 819:Middlewares/ST/STM32_SPWF0xSy/wifi_module_uart_01.c ****                       WiFi_Control_Variables.enable_receive_data_chunk = WIFI_FALSE;
 820:Middlewares/ST/STM32_SPWF0xSy/wifi_module_uart_01.c ****                       WiFi_Control_Variables.Q_Contains_Message = WIFI_FALSE;
 821:Middlewares/ST/STM32_SPWF0xSy/wifi_module_uart_01.c ****                       Fillptr=0;
 822:Middlewares/ST/STM32_SPWF0xSy/wifi_module_uart_01.c ****                       WiFi_Counter_Variables.last_process_buffer_index = 5;
 823:Middlewares/ST/STM32_SPWF0xSy/wifi_module_uart_01.c ****                       WiFi_Control_Variables.enable_receive_http_response = WIFI_FALSE;
 824:Middlewares/ST/STM32_SPWF0xSy/wifi_module_uart_01.c ****                       WiFi_Control_Variables.stop_event_dequeue = WIFI_FALSE;
 825:Middlewares/ST/STM32_SPWF0xSy/wifi_module_uart_01.c ****                       memset(process_buffer, 0x00, MAX_BUFFER_GLOBAL);
 826:Middlewares/ST/STM32_SPWF0xSy/wifi_module_uart_01.c **** 
 827:Middlewares/ST/STM32_SPWF0xSy/wifi_module_uart_01.c ****                       if(WiFi_Control_Variables.enable_receive_file_response)
 828:Middlewares/ST/STM32_SPWF0xSy/wifi_module_uart_01.c ****                         WiFi_Control_Variables.FILE_Data_available = WIFI_FALSE;
 829:Middlewares/ST/STM32_SPWF0xSy/wifi_module_uart_01.c ****                       else
 830:Middlewares/ST/STM32_SPWF0xSy/wifi_module_uart_01.c ****                         WiFi_Control_Variables.HTTP_Data_available=WIFI_FALSE;
 831:Middlewares/ST/STM32_SPWF0xSy/wifi_module_uart_01.c ****                   }
 832:Middlewares/ST/STM32_SPWF0xSy/wifi_module_uart_01.c ****               }
 833:Middlewares/ST/STM32_SPWF0xSy/wifi_module_uart_01.c **** 
 834:Middlewares/ST/STM32_SPWF0xSy/wifi_module_uart_01.c ****             if((Fillptr > 5) & (pStr == NULL))
 835:Middlewares/ST/STM32_SPWF0xSy/wifi_module_uart_01.c ****                   WiFi_Counter_Variables.last_process_buffer_index = Fillptr;
 836:Middlewares/ST/STM32_SPWF0xSy/wifi_module_uart_01.c **** 
 837:Middlewares/ST/STM32_SPWF0xSy/wifi_module_uart_01.c ****             if(Fillptr == MAX_BUFFER_GLOBAL-1 )
 838:Middlewares/ST/STM32_SPWF0xSy/wifi_module_uart_01.c ****               {
 839:Middlewares/ST/STM32_SPWF0xSy/wifi_module_uart_01.c ****                   memcpy(UserDataBuff, process_buffer, Fillptr);
 840:Middlewares/ST/STM32_SPWF0xSy/wifi_module_uart_01.c ****                   memcpy(&HTTP_Runway_Buff, &UserDataBuff[505], 6); //for storing the last 6 bytes 
 841:Middlewares/ST/STM32_SPWF0xSy/wifi_module_uart_01.c ****                   memset(&UserDataBuff[505], 0x00, 6);
 842:Middlewares/ST/STM32_SPWF0xSy/wifi_module_uart_01.c ****                   memset(process_buffer, 0x00, MAX_BUFFER_GLOBAL);
 843:Middlewares/ST/STM32_SPWF0xSy/wifi_module_uart_01.c ****                   memcpy(&process_buffer, &HTTP_Runway_Buff, 6);
 844:Middlewares/ST/STM32_SPWF0xSy/wifi_module_uart_01.c ****                   memset(HTTP_Runway_Buff, 0x00, 6);
 845:Middlewares/ST/STM32_SPWF0xSy/wifi_module_uart_01.c ****                   Fillptr = 6;
 846:Middlewares/ST/STM32_SPWF0xSy/wifi_module_uart_01.c ****                   WiFi_Counter_Variables.last_process_buffer_index = 5;
 847:Middlewares/ST/STM32_SPWF0xSy/wifi_module_uart_01.c ****                   WiFi_Counter_Variables.UserDataBuff_index = 505;
 848:Middlewares/ST/STM32_SPWF0xSy/wifi_module_uart_01.c ****                   Stop_Dequeue();
 849:Middlewares/ST/STM32_SPWF0xSy/wifi_module_uart_01.c **** 
 850:Middlewares/ST/STM32_SPWF0xSy/wifi_module_uart_01.c ****                   if(WiFi_Control_Variables.enable_receive_file_response)
 851:Middlewares/ST/STM32_SPWF0xSy/wifi_module_uart_01.c ****                     WiFi_Control_Variables.FILE_Data_available = WIFI_TRUE;
 852:Middlewares/ST/STM32_SPWF0xSy/wifi_module_uart_01.c ****                   else
 853:Middlewares/ST/STM32_SPWF0xSy/wifi_module_uart_01.c ****                     WiFi_Control_Variables.HTTP_Data_available = WIFI_TRUE;
 854:Middlewares/ST/STM32_SPWF0xSy/wifi_module_uart_01.c ****               }
ARM GAS  D:\cygwin64\tmp\ccuGdUOt.s 			page 18


 855:Middlewares/ST/STM32_SPWF0xSy/wifi_module_uart_01.c ****             return;
 856:Middlewares/ST/STM32_SPWF0xSy/wifi_module_uart_01.c ****         }
 857:Middlewares/ST/STM32_SPWF0xSy/wifi_module_uart_01.c ****     
 858:Middlewares/ST/STM32_SPWF0xSy/wifi_module_uart_01.c ****      /*********************************************************************************************
 859:Middlewares/ST/STM32_SPWF0xSy/wifi_module_uart_01.c ****       *                                                                                           *
 860:Middlewares/ST/STM32_SPWF0xSy/wifi_module_uart_01.c ****       *                             WiFi Scan Is Enabled.                                       *
 861:Middlewares/ST/STM32_SPWF0xSy/wifi_module_uart_01.c ****       *                                                                                           *
 862:Middlewares/ST/STM32_SPWF0xSy/wifi_module_uart_01.c ****       ********************************************************************************************/
 863:Middlewares/ST/STM32_SPWF0xSy/wifi_module_uart_01.c ****     
 864:Middlewares/ST/STM32_SPWF0xSy/wifi_module_uart_01.c ****     if((!WiFi_Control_Variables.Q_Contains_Message) && WiFi_Control_Variables.enable_receive_wifi_s
 865:Middlewares/ST/STM32_SPWF0xSy/wifi_module_uart_01.c ****       {
 866:Middlewares/ST/STM32_SPWF0xSy/wifi_module_uart_01.c ****             /*now check if end of msg received*/
 867:Middlewares/ST/STM32_SPWF0xSy/wifi_module_uart_01.c ****             if((process_buffer[Fillptr-2]==0xD) && (process_buffer[Fillptr-1]==0xA))
 868:Middlewares/ST/STM32_SPWF0xSy/wifi_module_uart_01.c ****               {
 869:Middlewares/ST/STM32_SPWF0xSy/wifi_module_uart_01.c ****                 #if DEBUG_PRINT
 870:Middlewares/ST/STM32_SPWF0xSy/wifi_module_uart_01.c ****                   printf((char const *)process_buffer);
 871:Middlewares/ST/STM32_SPWF0xSy/wifi_module_uart_01.c ****                 #endif
 872:Middlewares/ST/STM32_SPWF0xSy/wifi_module_uart_01.c ****                 fflush(stdout);
 873:Middlewares/ST/STM32_SPWF0xSy/wifi_module_uart_01.c ****                 
 874:Middlewares/ST/STM32_SPWF0xSy/wifi_module_uart_01.c ****                 if(WiFi_Counter_Variables.scanned_ssids < WiFi_Counter_Variables.user_scan_number)
 875:Middlewares/ST/STM32_SPWF0xSy/wifi_module_uart_01.c ****                   {
 876:Middlewares/ST/STM32_SPWF0xSy/wifi_module_uart_01.c ****                       pStr = (char *) strstr((const char *)&process_buffer,"CHAN:");            
 877:Middlewares/ST/STM32_SPWF0xSy/wifi_module_uart_01.c ****                       if(pStr != NULL)
 878:Middlewares/ST/STM32_SPWF0xSy/wifi_module_uart_01.c ****                           {
 879:Middlewares/ST/STM32_SPWF0xSy/wifi_module_uart_01.c ****                               databytes_No[0] = *(pStr + 6) ;
 880:Middlewares/ST/STM32_SPWF0xSy/wifi_module_uart_01.c ****                               databytes_No[1] = *(pStr + 7) ;
 881:Middlewares/ST/STM32_SPWF0xSy/wifi_module_uart_01.c ****                     
 882:Middlewares/ST/STM32_SPWF0xSy/wifi_module_uart_01.c ****                               chan_value = (((databytes_No[0] - '0') * 10 ) + (databytes_No[1] - '0
 883:Middlewares/ST/STM32_SPWF0xSy/wifi_module_uart_01.c ****                           }
 884:Middlewares/ST/STM32_SPWF0xSy/wifi_module_uart_01.c **** 
 885:Middlewares/ST/STM32_SPWF0xSy/wifi_module_uart_01.c ****                       wifi_scanned_list[WiFi_Counter_Variables.scanned_ssids].channel_num = chan_va
 886:Middlewares/ST/STM32_SPWF0xSy/wifi_module_uart_01.c **** 
 887:Middlewares/ST/STM32_SPWF0xSy/wifi_module_uart_01.c ****                       pStr = (char *) strstr((const char *)&process_buffer,"RSSI:");            
 888:Middlewares/ST/STM32_SPWF0xSy/wifi_module_uart_01.c ****                       if(pStr != NULL)
 889:Middlewares/ST/STM32_SPWF0xSy/wifi_module_uart_01.c ****                           {
 890:Middlewares/ST/STM32_SPWF0xSy/wifi_module_uart_01.c ****                               databytes_No[0] = *(pStr + 7) ;
 891:Middlewares/ST/STM32_SPWF0xSy/wifi_module_uart_01.c ****                               databytes_No[1] = *(pStr + 8) ;
 892:Middlewares/ST/STM32_SPWF0xSy/wifi_module_uart_01.c ****                     
 893:Middlewares/ST/STM32_SPWF0xSy/wifi_module_uart_01.c ****                               rssi_value = (((databytes_No[0] - '0') * 10 ) + (databytes_No[1] - '0
 894:Middlewares/ST/STM32_SPWF0xSy/wifi_module_uart_01.c ****                           }
 895:Middlewares/ST/STM32_SPWF0xSy/wifi_module_uart_01.c **** 
 896:Middlewares/ST/STM32_SPWF0xSy/wifi_module_uart_01.c ****                       wifi_scanned_list[WiFi_Counter_Variables.scanned_ssids].rssi = -(rssi_value);
 897:Middlewares/ST/STM32_SPWF0xSy/wifi_module_uart_01.c **** 
 898:Middlewares/ST/STM32_SPWF0xSy/wifi_module_uart_01.c ****                       pStr = (char *) strstr((const char *)&process_buffer,"SSID:");
 899:Middlewares/ST/STM32_SPWF0xSy/wifi_module_uart_01.c ****                       if(pStr != NULL)
 900:Middlewares/ST/STM32_SPWF0xSy/wifi_module_uart_01.c ****                           {
 901:Middlewares/ST/STM32_SPWF0xSy/wifi_module_uart_01.c ****                               index = 7;
 902:Middlewares/ST/STM32_SPWF0xSy/wifi_module_uart_01.c ****                               while(*(pStr + index) != 0x27)
 903:Middlewares/ST/STM32_SPWF0xSy/wifi_module_uart_01.c ****                                   {
 904:Middlewares/ST/STM32_SPWF0xSy/wifi_module_uart_01.c ****                                       wifi_scanned_list[WiFi_Counter_Variables.scanned_ssids].ssid[
 905:Middlewares/ST/STM32_SPWF0xSy/wifi_module_uart_01.c ****                                       index++;
 906:Middlewares/ST/STM32_SPWF0xSy/wifi_module_uart_01.c ****                                       if(index==35) break; //max ssid lenght is 30 characters
 907:Middlewares/ST/STM32_SPWF0xSy/wifi_module_uart_01.c ****                                   }                                
 908:Middlewares/ST/STM32_SPWF0xSy/wifi_module_uart_01.c ****                           }
 909:Middlewares/ST/STM32_SPWF0xSy/wifi_module_uart_01.c **** 
 910:Middlewares/ST/STM32_SPWF0xSy/wifi_module_uart_01.c ****                       pStr = (char *) strstr((const char *)&process_buffer,"WPA ");            
 911:Middlewares/ST/STM32_SPWF0xSy/wifi_module_uart_01.c ****                       if(pStr != NULL)
ARM GAS  D:\cygwin64\tmp\ccuGdUOt.s 			page 19


 912:Middlewares/ST/STM32_SPWF0xSy/wifi_module_uart_01.c ****                           {
 913:Middlewares/ST/STM32_SPWF0xSy/wifi_module_uart_01.c ****                               wifi_scanned_list[WiFi_Counter_Variables.scanned_ssids].sec_type.wpa 
 914:Middlewares/ST/STM32_SPWF0xSy/wifi_module_uart_01.c ****                           } else
 915:Middlewares/ST/STM32_SPWF0xSy/wifi_module_uart_01.c ****                               wifi_scanned_list[WiFi_Counter_Variables.scanned_ssids].sec_type.wpa 
 916:Middlewares/ST/STM32_SPWF0xSy/wifi_module_uart_01.c ****                       
 917:Middlewares/ST/STM32_SPWF0xSy/wifi_module_uart_01.c ****                       pStr = (char *) strstr((const char *)&process_buffer,"WPA2 ");            
 918:Middlewares/ST/STM32_SPWF0xSy/wifi_module_uart_01.c ****                       if(pStr != NULL)
 919:Middlewares/ST/STM32_SPWF0xSy/wifi_module_uart_01.c ****                           {
 920:Middlewares/ST/STM32_SPWF0xSy/wifi_module_uart_01.c ****                               wifi_scanned_list[WiFi_Counter_Variables.scanned_ssids].sec_type.wpa2
 921:Middlewares/ST/STM32_SPWF0xSy/wifi_module_uart_01.c ****                           } else
 922:Middlewares/ST/STM32_SPWF0xSy/wifi_module_uart_01.c ****                               wifi_scanned_list[WiFi_Counter_Variables.scanned_ssids].sec_type.wpa2
 923:Middlewares/ST/STM32_SPWF0xSy/wifi_module_uart_01.c ****                       
 924:Middlewares/ST/STM32_SPWF0xSy/wifi_module_uart_01.c ****                       pStr = (char *) strstr((const char *)&process_buffer,"WPS ");            
 925:Middlewares/ST/STM32_SPWF0xSy/wifi_module_uart_01.c ****                       if(pStr != NULL)
 926:Middlewares/ST/STM32_SPWF0xSy/wifi_module_uart_01.c ****                           {
 927:Middlewares/ST/STM32_SPWF0xSy/wifi_module_uart_01.c ****                               wifi_scanned_list[WiFi_Counter_Variables.scanned_ssids].sec_type.wps 
 928:Middlewares/ST/STM32_SPWF0xSy/wifi_module_uart_01.c ****                           } else
 929:Middlewares/ST/STM32_SPWF0xSy/wifi_module_uart_01.c ****                               wifi_scanned_list[WiFi_Counter_Variables.scanned_ssids].sec_type.wps 
 930:Middlewares/ST/STM32_SPWF0xSy/wifi_module_uart_01.c **** 
 931:Middlewares/ST/STM32_SPWF0xSy/wifi_module_uart_01.c ****                       WiFi_Counter_Variables.scanned_ssids++;//increment total_networks
 932:Middlewares/ST/STM32_SPWF0xSy/wifi_module_uart_01.c ****                   }
 933:Middlewares/ST/STM32_SPWF0xSy/wifi_module_uart_01.c **** 
 934:Middlewares/ST/STM32_SPWF0xSy/wifi_module_uart_01.c ****                 //end of one line from SCAN result       
 935:Middlewares/ST/STM32_SPWF0xSy/wifi_module_uart_01.c ****                 pStr = (char *) strstr((const char *)&process_buffer,"ERROR");
 936:Middlewares/ST/STM32_SPWF0xSy/wifi_module_uart_01.c ****                 if(pStr != NULL)
 937:Middlewares/ST/STM32_SPWF0xSy/wifi_module_uart_01.c ****                   {
 938:Middlewares/ST/STM32_SPWF0xSy/wifi_module_uart_01.c ****                       #if DEBUG_PRINT
 939:Middlewares/ST/STM32_SPWF0xSy/wifi_module_uart_01.c ****                         printf("ERROR Scan Failed"); 
 940:Middlewares/ST/STM32_SPWF0xSy/wifi_module_uart_01.c ****                       #endif
 941:Middlewares/ST/STM32_SPWF0xSy/wifi_module_uart_01.c ****                       memset(process_buffer, 0x00, MAX_BUFFER_GLOBAL);
 942:Middlewares/ST/STM32_SPWF0xSy/wifi_module_uart_01.c ****                       Fillptr=0;
 943:Middlewares/ST/STM32_SPWF0xSy/wifi_module_uart_01.c ****                       IO_status_flag.AT_Response_Received = WIFI_TRUE;
 944:Middlewares/ST/STM32_SPWF0xSy/wifi_module_uart_01.c ****                       WiFi_Control_Variables.enable_receive_wifi_scan_response = WIFI_FALSE;
 945:Middlewares/ST/STM32_SPWF0xSy/wifi_module_uart_01.c ****                       WiFi_Control_Variables.Scan_Ongoing = WIFI_FALSE; //Enable next scan
 946:Middlewares/ST/STM32_SPWF0xSy/wifi_module_uart_01.c ****                       WiFi_Counter_Variables.AT_RESPONSE = WiFi_AT_CMD_RESP_ERROR;     
 947:Middlewares/ST/STM32_SPWF0xSy/wifi_module_uart_01.c ****                       return;
 948:Middlewares/ST/STM32_SPWF0xSy/wifi_module_uart_01.c ****                   }
 949:Middlewares/ST/STM32_SPWF0xSy/wifi_module_uart_01.c **** 
 950:Middlewares/ST/STM32_SPWF0xSy/wifi_module_uart_01.c ****                 #if DEBUG_PRINT
 951:Middlewares/ST/STM32_SPWF0xSy/wifi_module_uart_01.c ****                 printf((const char*)process_buffer);
 952:Middlewares/ST/STM32_SPWF0xSy/wifi_module_uart_01.c ****                 #endif
 953:Middlewares/ST/STM32_SPWF0xSy/wifi_module_uart_01.c **** 
 954:Middlewares/ST/STM32_SPWF0xSy/wifi_module_uart_01.c ****                 if(((strstr((const char *)process_buffer,"OK\r\n"))) != NULL /*|| scanned_ssids==10
 955:Middlewares/ST/STM32_SPWF0xSy/wifi_module_uart_01.c ****                   {
 956:Middlewares/ST/STM32_SPWF0xSy/wifi_module_uart_01.c ****                       //print and go for next line
 957:Middlewares/ST/STM32_SPWF0xSy/wifi_module_uart_01.c ****                       //If Any part of scan line contains "OK" this will exit!!
 958:Middlewares/ST/STM32_SPWF0xSy/wifi_module_uart_01.c ****                       #if DEBUG_PRINT
 959:Middlewares/ST/STM32_SPWF0xSy/wifi_module_uart_01.c ****                         printf("\nOK\r\n");   
 960:Middlewares/ST/STM32_SPWF0xSy/wifi_module_uart_01.c ****                       #endif
 961:Middlewares/ST/STM32_SPWF0xSy/wifi_module_uart_01.c ****                       WiFi_Control_Variables.Scan_Ongoing = WIFI_FALSE; //Enable next scan         
 962:Middlewares/ST/STM32_SPWF0xSy/wifi_module_uart_01.c ****                       WiFi_Counter_Variables.scanned_ssids=0;                       
 963:Middlewares/ST/STM32_SPWF0xSy/wifi_module_uart_01.c ****                       Fillptr=0;
 964:Middlewares/ST/STM32_SPWF0xSy/wifi_module_uart_01.c ****                       IO_status_flag.AT_Response_Received = WIFI_TRUE;
 965:Middlewares/ST/STM32_SPWF0xSy/wifi_module_uart_01.c ****                       WiFi_Control_Variables.enable_receive_wifi_scan_response = WIFI_FALSE;
 966:Middlewares/ST/STM32_SPWF0xSy/wifi_module_uart_01.c ****                       WiFi_Counter_Variables.AT_RESPONSE = WiFi_MODULE_SUCCESS;
 967:Middlewares/ST/STM32_SPWF0xSy/wifi_module_uart_01.c ****                       memset(process_buffer, 0x00, MAX_BUFFER_GLOBAL);    
 968:Middlewares/ST/STM32_SPWF0xSy/wifi_module_uart_01.c ****                       return;
ARM GAS  D:\cygwin64\tmp\ccuGdUOt.s 			page 20


 969:Middlewares/ST/STM32_SPWF0xSy/wifi_module_uart_01.c ****                   }
 970:Middlewares/ST/STM32_SPWF0xSy/wifi_module_uart_01.c **** 
 971:Middlewares/ST/STM32_SPWF0xSy/wifi_module_uart_01.c ****                 Fillptr=0;
 972:Middlewares/ST/STM32_SPWF0xSy/wifi_module_uart_01.c ****                 memset(process_buffer, 0x00, MAX_BUFFER_GLOBAL);          
 973:Middlewares/ST/STM32_SPWF0xSy/wifi_module_uart_01.c ****               }
 974:Middlewares/ST/STM32_SPWF0xSy/wifi_module_uart_01.c **** 
 975:Middlewares/ST/STM32_SPWF0xSy/wifi_module_uart_01.c ****             if(Fillptr>=MAX_BUFFER_GLOBAL-1)
 976:Middlewares/ST/STM32_SPWF0xSy/wifi_module_uart_01.c ****               {
 977:Middlewares/ST/STM32_SPWF0xSy/wifi_module_uart_01.c ****                 #if DEBUG_PRINT
 978:Middlewares/ST/STM32_SPWF0xSy/wifi_module_uart_01.c ****                 printf("\rHTTP: process_buffer Max Buffer Size reached\r\n");
 979:Middlewares/ST/STM32_SPWF0xSy/wifi_module_uart_01.c ****                 #endif          
 980:Middlewares/ST/STM32_SPWF0xSy/wifi_module_uart_01.c ****                 Fillptr=0;          
 981:Middlewares/ST/STM32_SPWF0xSy/wifi_module_uart_01.c ****                 memset(process_buffer, 0x00, MAX_BUFFER_GLOBAL); 
 982:Middlewares/ST/STM32_SPWF0xSy/wifi_module_uart_01.c ****               }
 983:Middlewares/ST/STM32_SPWF0xSy/wifi_module_uart_01.c ****       }
 984:Middlewares/ST/STM32_SPWF0xSy/wifi_module_uart_01.c **** 
 985:Middlewares/ST/STM32_SPWF0xSy/wifi_module_uart_01.c ****     
 986:Middlewares/ST/STM32_SPWF0xSy/wifi_module_uart_01.c ****      /*********************************************************************************************
 987:Middlewares/ST/STM32_SPWF0xSy/wifi_module_uart_01.c ****       *                                                                                           *
 988:Middlewares/ST/STM32_SPWF0xSy/wifi_module_uart_01.c ****       *                             FW Update Is Enabled.                                         *
 989:Middlewares/ST/STM32_SPWF0xSy/wifi_module_uart_01.c ****       *                                                                                           *
 990:Middlewares/ST/STM32_SPWF0xSy/wifi_module_uart_01.c ****       ********************************************************************************************/
 991:Middlewares/ST/STM32_SPWF0xSy/wifi_module_uart_01.c ****     
 992:Middlewares/ST/STM32_SPWF0xSy/wifi_module_uart_01.c ****     if((!WiFi_Control_Variables.Q_Contains_Message) && WiFi_Control_Variables.enable_fw_update_read
 993:Middlewares/ST/STM32_SPWF0xSy/wifi_module_uart_01.c ****       {
 994:Middlewares/ST/STM32_SPWF0xSy/wifi_module_uart_01.c ****             #ifdef DEBUG_PRINT
 995:Middlewares/ST/STM32_SPWF0xSy/wifi_module_uart_01.c ****             printf("*");     //print * till finish    
 996:Middlewares/ST/STM32_SPWF0xSy/wifi_module_uart_01.c ****             #endif
 997:Middlewares/ST/STM32_SPWF0xSy/wifi_module_uart_01.c **** 
 998:Middlewares/ST/STM32_SPWF0xSy/wifi_module_uart_01.c ****             if((pStr = (char *) strstr((const char *)process_buffer,"Complete!")) != NULL)
 999:Middlewares/ST/STM32_SPWF0xSy/wifi_module_uart_01.c ****               {
1000:Middlewares/ST/STM32_SPWF0xSy/wifi_module_uart_01.c ****                 /* wait for complete message */
1001:Middlewares/ST/STM32_SPWF0xSy/wifi_module_uart_01.c ****                 WiFi_Control_Variables.enable_receive_data_chunk = WIFI_FALSE;
1002:Middlewares/ST/STM32_SPWF0xSy/wifi_module_uart_01.c ****                 if((process_buffer[Fillptr-2]==0xD) && (process_buffer[Fillptr-1]==0xA))
1003:Middlewares/ST/STM32_SPWF0xSy/wifi_module_uart_01.c ****                 {
1004:Middlewares/ST/STM32_SPWF0xSy/wifi_module_uart_01.c ****                   #ifdef DEBUG_PRINT
1005:Middlewares/ST/STM32_SPWF0xSy/wifi_module_uart_01.c ****                   printf("\r\nUpdate complete\r\n");
1006:Middlewares/ST/STM32_SPWF0xSy/wifi_module_uart_01.c ****                   #endif
1007:Middlewares/ST/STM32_SPWF0xSy/wifi_module_uart_01.c **** //                  IO_status_flag.AT_Response_Received = WIFI_TRUE;
1008:Middlewares/ST/STM32_SPWF0xSy/wifi_module_uart_01.c **** //                  WiFi_Counter_Variables.AT_RESPONSE = WiFi_MODULE_SUCCESS;
1009:Middlewares/ST/STM32_SPWF0xSy/wifi_module_uart_01.c ****                   WiFi_Control_Variables.enable_fw_update_read = WIFI_FALSE;
1010:Middlewares/ST/STM32_SPWF0xSy/wifi_module_uart_01.c ****                   Fillptr=0;
1011:Middlewares/ST/STM32_SPWF0xSy/wifi_module_uart_01.c ****                   memset(process_buffer, 0x00, MAX_BUFFER_GLOBAL);
1012:Middlewares/ST/STM32_SPWF0xSy/wifi_module_uart_01.c ****                 }
1013:Middlewares/ST/STM32_SPWF0xSy/wifi_module_uart_01.c ****               }
1014:Middlewares/ST/STM32_SPWF0xSy/wifi_module_uart_01.c ****             if(Fillptr == MAX_BUFFER_GLOBAL-1)
1015:Middlewares/ST/STM32_SPWF0xSy/wifi_module_uart_01.c ****               {
1016:Middlewares/ST/STM32_SPWF0xSy/wifi_module_uart_01.c ****                 Fillptr=0;
1017:Middlewares/ST/STM32_SPWF0xSy/wifi_module_uart_01.c ****                 memset(process_buffer, 0x00, MAX_BUFFER_GLOBAL);
1018:Middlewares/ST/STM32_SPWF0xSy/wifi_module_uart_01.c ****               }
1019:Middlewares/ST/STM32_SPWF0xSy/wifi_module_uart_01.c ****             //No change of state till we get "+WIND:17:F/W update complete!"
1020:Middlewares/ST/STM32_SPWF0xSy/wifi_module_uart_01.c ****       }    
1021:Middlewares/ST/STM32_SPWF0xSy/wifi_module_uart_01.c **** 
1022:Middlewares/ST/STM32_SPWF0xSy/wifi_module_uart_01.c **** }
1023:Middlewares/ST/STM32_SPWF0xSy/wifi_module_uart_01.c **** 
1024:Middlewares/ST/STM32_SPWF0xSy/wifi_module_uart_01.c **** 
1025:Middlewares/ST/STM32_SPWF0xSy/wifi_module_uart_01.c **** 
ARM GAS  D:\cygwin64\tmp\ccuGdUOt.s 			page 21


1026:Middlewares/ST/STM32_SPWF0xSy/wifi_module_uart_01.c **** /**
1027:Middlewares/ST/STM32_SPWF0xSy/wifi_module_uart_01.c **** * @brief  Process_Wind_Indication_Cmd
1028:Middlewares/ST/STM32_SPWF0xSy/wifi_module_uart_01.c **** *         Process Wind indication before queueing
1029:Middlewares/ST/STM32_SPWF0xSy/wifi_module_uart_01.c **** * @param  process_buff_ptr: pointer of WiFi indication buffer
1030:Middlewares/ST/STM32_SPWF0xSy/wifi_module_uart_01.c **** * @retval None
1031:Middlewares/ST/STM32_SPWF0xSy/wifi_module_uart_01.c **** */
1032:Middlewares/ST/STM32_SPWF0xSy/wifi_module_uart_01.c **** 
1033:Middlewares/ST/STM32_SPWF0xSy/wifi_module_uart_01.c **** void Process_Wind_Indication(uint8_t *process_buff_ptr)
1034:Middlewares/ST/STM32_SPWF0xSy/wifi_module_uart_01.c **** {
 115              		.loc 1 1034 0
 116              		.cfi_startproc
 117              		@ args = 0, pretend = 0, frame = 8
 118              		@ frame_needed = 0, uses_anonymous_args = 0
 119              	.LVL8:
1035:Middlewares/ST/STM32_SPWF0xSy/wifi_module_uart_01.c ****   char * process_buffer_ptr = (char*)process_buff_ptr; //stores the starting address of process_buf
1036:Middlewares/ST/STM32_SPWF0xSy/wifi_module_uart_01.c ****   char * ptr_offset = (char*)process_buff_ptr;
1037:Middlewares/ST/STM32_SPWF0xSy/wifi_module_uart_01.c ****   char Indication_No[2];
1038:Middlewares/ST/STM32_SPWF0xSy/wifi_module_uart_01.c ****   char databytes_No[4];
1039:Middlewares/ST/STM32_SPWF0xSy/wifi_module_uart_01.c ****   #if DEBUG_PRINT
1040:Middlewares/ST/STM32_SPWF0xSy/wifi_module_uart_01.c ****   printf((const char*)process_buff_ptr);
1041:Middlewares/ST/STM32_SPWF0xSy/wifi_module_uart_01.c ****   #endif
1042:Middlewares/ST/STM32_SPWF0xSy/wifi_module_uart_01.c ****   int i;
1043:Middlewares/ST/STM32_SPWF0xSy/wifi_module_uart_01.c **** 
1044:Middlewares/ST/STM32_SPWF0xSy/wifi_module_uart_01.c ****   WiFi_Indication_t Wind_No = Undefine_Indication;
1045:Middlewares/ST/STM32_SPWF0xSy/wifi_module_uart_01.c **** 
1046:Middlewares/ST/STM32_SPWF0xSy/wifi_module_uart_01.c ****   if(ptr_offset != NULL)
 120              		.loc 1 1046 0
 121 0000 0028     		cmp	r0, #0
 122 0002 00F0F081 		beq	.L46
1034:Middlewares/ST/STM32_SPWF0xSy/wifi_module_uart_01.c ****   char * process_buffer_ptr = (char*)process_buff_ptr; //stores the starting address of process_buf
 123              		.loc 1 1034 0
 124 0006 30B5     		push	{r4, r5, lr}
 125              	.LCFI1:
 126              		.cfi_def_cfa_offset 12
 127              		.cfi_offset 4, -12
 128              		.cfi_offset 5, -8
 129              		.cfi_offset 14, -4
 130 0008 83B0     		sub	sp, sp, #12
 131              	.LCFI2:
 132              		.cfi_def_cfa_offset 24
 133 000a 0446     		mov	r4, r0
1047:Middlewares/ST/STM32_SPWF0xSy/wifi_module_uart_01.c ****     {
1048:Middlewares/ST/STM32_SPWF0xSy/wifi_module_uart_01.c ****       ptr_offset = (char *) strstr((const char *)process_buffer_ptr,"WIND:");
 134              		.loc 1 1048 0
 135 000c A149     		ldr	r1, .L58
 136 000e FFF7FEFF 		bl	strstr
 137              	.LVL9:
1049:Middlewares/ST/STM32_SPWF0xSy/wifi_module_uart_01.c **** 
1050:Middlewares/ST/STM32_SPWF0xSy/wifi_module_uart_01.c ****       if(ptr_offset != NULL)
 138              		.loc 1 1050 0
 139 0012 0146     		mov	r1, r0
 140 0014 0028     		cmp	r0, #0
 141 0016 72D0     		beq	.L9
1051:Middlewares/ST/STM32_SPWF0xSy/wifi_module_uart_01.c ****         {
1052:Middlewares/ST/STM32_SPWF0xSy/wifi_module_uart_01.c ****             Indication_No[0] = *(ptr_offset + 5);
 142              		.loc 1 1052 0
 143 0018 4379     		ldrb	r3, [r0, #5]	@ zero_extendqisi2
ARM GAS  D:\cygwin64\tmp\ccuGdUOt.s 			page 22


1053:Middlewares/ST/STM32_SPWF0xSy/wifi_module_uart_01.c ****             Indication_No[1] = *(ptr_offset + 6);
 144              		.loc 1 1053 0
 145 001a 8279     		ldrb	r2, [r0, #6]	@ zero_extendqisi2
1054:Middlewares/ST/STM32_SPWF0xSy/wifi_module_uart_01.c **** 
1055:Middlewares/ST/STM32_SPWF0xSy/wifi_module_uart_01.c ****             if( Indication_No[1] == ':')
 146              		.loc 1 1055 0
 147 001c 3A2A     		cmp	r2, #58
 148 001e 5AD0     		beq	.L49
1056:Middlewares/ST/STM32_SPWF0xSy/wifi_module_uart_01.c ****               {
1057:Middlewares/ST/STM32_SPWF0xSy/wifi_module_uart_01.c ****                 /* Convert char to integer */
1058:Middlewares/ST/STM32_SPWF0xSy/wifi_module_uart_01.c ****                 Wind_No = (WiFi_Indication_t)(Indication_No[0] - '0'); 
1059:Middlewares/ST/STM32_SPWF0xSy/wifi_module_uart_01.c ****               }
1060:Middlewares/ST/STM32_SPWF0xSy/wifi_module_uart_01.c ****             else
1061:Middlewares/ST/STM32_SPWF0xSy/wifi_module_uart_01.c ****               {
1062:Middlewares/ST/STM32_SPWF0xSy/wifi_module_uart_01.c ****                 /* Convert char to integer */
1063:Middlewares/ST/STM32_SPWF0xSy/wifi_module_uart_01.c ****                 Wind_No = (WiFi_Indication_t)(((Indication_No[0] - '0') * 10 ) + (Indication_No[1] 
 149              		.loc 1 1063 0
 150 0020 303B     		subs	r3, r3, #48
 151 0022 03EB8303 		add	r3, r3, r3, lsl #2
 152 0026 02EB4303 		add	r3, r2, r3, lsl #1
 153 002a 303B     		subs	r3, r3, #48
 154              	.LVL10:
 155              	.L12:
1064:Middlewares/ST/STM32_SPWF0xSy/wifi_module_uart_01.c ****               }
1065:Middlewares/ST/STM32_SPWF0xSy/wifi_module_uart_01.c **** 
1066:Middlewares/ST/STM32_SPWF0xSy/wifi_module_uart_01.c ****             wifi_instances.wifi_event.wind = Wind_No;
 156              		.loc 1 1066 0
 157 002c 9A4A     		ldr	r2, .L58+4
 158 002e 82F82030 		strb	r3, [r2, #32]
1067:Middlewares/ST/STM32_SPWF0xSy/wifi_module_uart_01.c ****             wifi_instances.wifi_event.event = WIFI_WIND_EVENT;
 159              		.loc 1 1067 0
 160 0032 0120     		movs	r0, #1
 161              	.LVL11:
 162 0034 82F82600 		strb	r0, [r2, #38]
1068:Middlewares/ST/STM32_SPWF0xSy/wifi_module_uart_01.c **** 
1069:Middlewares/ST/STM32_SPWF0xSy/wifi_module_uart_01.c ****             switch (Wind_No)
 163              		.loc 1 1069 0
 164 0038 4A2B     		cmp	r3, #74
 165 003a 5AD8     		bhi	.L13
 166 003c DFE813F0 		tbh	[pc, r3, lsl #1]
 167              	.L15:
 168 0040 BD01     		.2byte	(.L14-.L15)/2
 169 0042 BD01     		.2byte	(.L14-.L15)/2
 170 0044 BD01     		.2byte	(.L14-.L15)/2
 171 0046 BD01     		.2byte	(.L14-.L15)/2
 172 0048 5900     		.2byte	(.L13-.L15)/2
 173 004a 5900     		.2byte	(.L13-.L15)/2
 174 004c BD01     		.2byte	(.L14-.L15)/2
 175 004e BD01     		.2byte	(.L14-.L15)/2
 176 0050 5900     		.2byte	(.L13-.L15)/2
 177 0052 5900     		.2byte	(.L13-.L15)/2
 178 0054 C701     		.2byte	(.L16-.L15)/2
 179 0056 5900     		.2byte	(.L13-.L15)/2
 180 0058 5900     		.2byte	(.L13-.L15)/2
 181 005a BD01     		.2byte	(.L14-.L15)/2
 182 005c BD01     		.2byte	(.L14-.L15)/2
 183 005e 5900     		.2byte	(.L13-.L15)/2
ARM GAS  D:\cygwin64\tmp\ccuGdUOt.s 			page 23


 184 0060 BD01     		.2byte	(.L14-.L15)/2
 185 0062 BD01     		.2byte	(.L14-.L15)/2
 186 0064 BD01     		.2byte	(.L14-.L15)/2
 187 0066 BD01     		.2byte	(.L14-.L15)/2
 188 0068 5900     		.2byte	(.L13-.L15)/2
 189 006a BD01     		.2byte	(.L14-.L15)/2
 190 006c 5900     		.2byte	(.L13-.L15)/2
 191 006e 5900     		.2byte	(.L13-.L15)/2
 192 0070 5900     		.2byte	(.L13-.L15)/2
 193 0072 BD01     		.2byte	(.L14-.L15)/2
 194 0074 5900     		.2byte	(.L13-.L15)/2
 195 0076 5900     		.2byte	(.L13-.L15)/2
 196 0078 6801     		.2byte	(.L17-.L15)/2
 197 007a 5900     		.2byte	(.L13-.L15)/2
 198 007c BD01     		.2byte	(.L14-.L15)/2
 199 007e 5900     		.2byte	(.L13-.L15)/2
 200 0080 5900     		.2byte	(.L13-.L15)/2
 201 0082 BD01     		.2byte	(.L14-.L15)/2
 202 0084 BD01     		.2byte	(.L14-.L15)/2
 203 0086 5900     		.2byte	(.L13-.L15)/2
 204 0088 5900     		.2byte	(.L13-.L15)/2
 205 008a BD01     		.2byte	(.L14-.L15)/2
 206 008c 5900     		.2byte	(.L13-.L15)/2
 207 008e BD01     		.2byte	(.L14-.L15)/2
 208 0090 5900     		.2byte	(.L13-.L15)/2
 209 0092 5900     		.2byte	(.L13-.L15)/2
 210 0094 5900     		.2byte	(.L13-.L15)/2
 211 0096 5900     		.2byte	(.L13-.L15)/2
 212 0098 5900     		.2byte	(.L13-.L15)/2
 213 009a BD01     		.2byte	(.L14-.L15)/2
 214 009c BD01     		.2byte	(.L14-.L15)/2
 215 009e 5900     		.2byte	(.L13-.L15)/2
 216 00a0 5900     		.2byte	(.L13-.L15)/2
 217 00a2 BD01     		.2byte	(.L14-.L15)/2
 218 00a4 BD01     		.2byte	(.L14-.L15)/2
 219 00a6 BD01     		.2byte	(.L14-.L15)/2
 220 00a8 BD01     		.2byte	(.L14-.L15)/2
 221 00aa BD01     		.2byte	(.L14-.L15)/2
 222 00ac BD01     		.2byte	(.L14-.L15)/2
 223 00ae 4D00     		.2byte	(.L18-.L15)/2
 224 00b0 5900     		.2byte	(.L13-.L15)/2
 225 00b2 9C01     		.2byte	(.L19-.L15)/2
 226 00b4 6100     		.2byte	(.L20-.L15)/2
 227 00b6 1401     		.2byte	(.L21-.L15)/2
 228 00b8 3801     		.2byte	(.L22-.L15)/2
 229 00ba 9001     		.2byte	(.L23-.L15)/2
 230 00bc 9001     		.2byte	(.L23-.L15)/2
 231 00be 5900     		.2byte	(.L13-.L15)/2
 232 00c0 6A00     		.2byte	(.L24-.L15)/2
 233 00c2 5900     		.2byte	(.L13-.L15)/2
 234 00c4 BD01     		.2byte	(.L14-.L15)/2
 235 00c6 A901     		.2byte	(.L25-.L15)/2
 236 00c8 B301     		.2byte	(.L26-.L15)/2
 237 00ca 5900     		.2byte	(.L13-.L15)/2
 238 00cc 5900     		.2byte	(.L13-.L15)/2
 239 00ce 5900     		.2byte	(.L13-.L15)/2
 240 00d0 7C01     		.2byte	(.L27-.L15)/2
ARM GAS  D:\cygwin64\tmp\ccuGdUOt.s 			page 24


 241 00d2 5900     		.2byte	(.L13-.L15)/2
 242 00d4 BD01     		.2byte	(.L14-.L15)/2
 243              	.LVL12:
 244              		.p2align 1
 245              	.L49:
1058:Middlewares/ST/STM32_SPWF0xSy/wifi_module_uart_01.c ****               }
 246              		.loc 1 1058 0
 247 00d6 303B     		subs	r3, r3, #48
 248              	.LVL13:
 249 00d8 A8E7     		b	.L12
 250              	.LVL14:
 251              	.L18:
1070:Middlewares/ST/STM32_SPWF0xSy/wifi_module_uart_01.c ****             {
1071:Middlewares/ST/STM32_SPWF0xSy/wifi_module_uart_01.c ****                 case SockON_Data_Pending: /*WIND:55*/
1072:Middlewares/ST/STM32_SPWF0xSy/wifi_module_uart_01.c ****                     /*+WIND:55:Pending Data:%d:%d*/   
1073:Middlewares/ST/STM32_SPWF0xSy/wifi_module_uart_01.c ****                     ptr_offset = (char *) strstr((const char *)process_buffer_ptr,"Data:");
 252              		.loc 1 1073 0
 253 00da 7049     		ldr	r1, .L58+8
 254              	.LVL15:
 255 00dc 2046     		mov	r0, r4
 256 00de FFF7FEFF 		bl	strstr
 257              	.LVL16:
1074:Middlewares/ST/STM32_SPWF0xSy/wifi_module_uart_01.c **** 
1075:Middlewares/ST/STM32_SPWF0xSy/wifi_module_uart_01.c ****                     /*Need to find out which socket ID has data pending*/
1076:Middlewares/ST/STM32_SPWF0xSy/wifi_module_uart_01.c ****                     databytes_No[0] = *(ptr_offset + 5);
 258              		.loc 1 1076 0
 259 00e2 4179     		ldrb	r1, [r0, #5]	@ zero_extendqisi2
1077:Middlewares/ST/STM32_SPWF0xSy/wifi_module_uart_01.c **** 
1078:Middlewares/ST/STM32_SPWF0xSy/wifi_module_uart_01.c ****                     wifi_instances.wifi_event.socket_id = (databytes_No[0] - '0'); //Max number of 
 260              		.loc 1 1078 0
 261 00e4 6C4B     		ldr	r3, .L58+4
 262 00e6 93F82120 		ldrb	r2, [r3, #33]	@ zero_extendqisi2
 263 00ea 61F30302 		bfi	r2, r1, #0, #4
 264 00ee 83F82120 		strb	r2, [r3, #33]
 265              	.LVL17:
 266              	.L13:
1079:Middlewares/ST/STM32_SPWF0xSy/wifi_module_uart_01.c ****                     break;
1080:Middlewares/ST/STM32_SPWF0xSy/wifi_module_uart_01.c **** 
1081:Middlewares/ST/STM32_SPWF0xSy/wifi_module_uart_01.c ****                 case SockON_Server_Socket_Closed:
1082:Middlewares/ST/STM32_SPWF0xSy/wifi_module_uart_01.c ****                     //Find the id of the socket closed
1083:Middlewares/ST/STM32_SPWF0xSy/wifi_module_uart_01.c ****                     databytes_No[0] = *(ptr_offset + 22) ;
1084:Middlewares/ST/STM32_SPWF0xSy/wifi_module_uart_01.c ****                     wifi_instances.wifi_event.socket_id = databytes_No[0] - '0'; //Max number of so
1085:Middlewares/ST/STM32_SPWF0xSy/wifi_module_uart_01.c ****                     break;      
1086:Middlewares/ST/STM32_SPWF0xSy/wifi_module_uart_01.c **** 
1087:Middlewares/ST/STM32_SPWF0xSy/wifi_module_uart_01.c ****                 case SockD_Pending_Data:
1088:Middlewares/ST/STM32_SPWF0xSy/wifi_module_uart_01.c ****                     if(WiFi_Control_Variables.prevent_push_WIFI_event) 
1089:Middlewares/ST/STM32_SPWF0xSy/wifi_module_uart_01.c ****                       {
1090:Middlewares/ST/STM32_SPWF0xSy/wifi_module_uart_01.c ****                         #ifdef DEBUG_PRINT
1091:Middlewares/ST/STM32_SPWF0xSy/wifi_module_uart_01.c ****                         printf(">>IG\r\n");
1092:Middlewares/ST/STM32_SPWF0xSy/wifi_module_uart_01.c ****                         #endif
1093:Middlewares/ST/STM32_SPWF0xSy/wifi_module_uart_01.c ****                         return; ///exit if push is prevented
1094:Middlewares/ST/STM32_SPWF0xSy/wifi_module_uart_01.c ****                       }
1095:Middlewares/ST/STM32_SPWF0xSy/wifi_module_uart_01.c **** 
1096:Middlewares/ST/STM32_SPWF0xSy/wifi_module_uart_01.c ****                     /* @TODO: Do something to delay the de-Q of pending packets so that any further
1097:Middlewares/ST/STM32_SPWF0xSy/wifi_module_uart_01.c ****                               pending WIND64 packets are allowed to arrive and get Q-ed */
1098:Middlewares/ST/STM32_SPWF0xSy/wifi_module_uart_01.c **** 
1099:Middlewares/ST/STM32_SPWF0xSy/wifi_module_uart_01.c ****                     if(WiFi_Control_Variables.event_deQ_x_wind64)      //which means there is alrea
ARM GAS  D:\cygwin64\tmp\ccuGdUOt.s 			page 25


1100:Middlewares/ST/STM32_SPWF0xSy/wifi_module_uart_01.c ****                       {
1101:Middlewares/ST/STM32_SPWF0xSy/wifi_module_uart_01.c ****                         WiFi_Counter_Variables.wind64_DQ_wait=0;         //reset the timer
1102:Middlewares/ST/STM32_SPWF0xSy/wifi_module_uart_01.c ****                       }
1103:Middlewares/ST/STM32_SPWF0xSy/wifi_module_uart_01.c ****                     else
1104:Middlewares/ST/STM32_SPWF0xSy/wifi_module_uart_01.c ****                       {
1105:Middlewares/ST/STM32_SPWF0xSy/wifi_module_uart_01.c ****                         WiFi_Control_Variables.stop_event_dequeue = WIFI_TRUE;//Stop the event de-Q
1106:Middlewares/ST/STM32_SPWF0xSy/wifi_module_uart_01.c ****                         WiFi_Control_Variables.event_deQ_x_wind64 = WIFI_TRUE;//Set the flag
1107:Middlewares/ST/STM32_SPWF0xSy/wifi_module_uart_01.c ****                       }
1108:Middlewares/ST/STM32_SPWF0xSy/wifi_module_uart_01.c **** 
1109:Middlewares/ST/STM32_SPWF0xSy/wifi_module_uart_01.c ****                     //Start Reading data from Client Here.    
1110:Middlewares/ST/STM32_SPWF0xSy/wifi_module_uart_01.c ****                     // +WIND:64:Sockd Pending Data:1:130:130
1111:Middlewares/ST/STM32_SPWF0xSy/wifi_module_uart_01.c ****                     ptr_offset = (char *) strstr((const char *)process_buffer_ptr,"Data:");
1112:Middlewares/ST/STM32_SPWF0xSy/wifi_module_uart_01.c ****                     if(ptr_offset != NULL)
1113:Middlewares/ST/STM32_SPWF0xSy/wifi_module_uart_01.c ****                       {
1114:Middlewares/ST/STM32_SPWF0xSy/wifi_module_uart_01.c ****                         //Store the packet number
1115:Middlewares/ST/STM32_SPWF0xSy/wifi_module_uart_01.c ****                         databytes_No[0] = *(ptr_offset + 5) ;
1116:Middlewares/ST/STM32_SPWF0xSy/wifi_module_uart_01.c ****                         wifi_instances.wifi_event.wind64_pending_packet_no = databytes_No[0] - '0';
1117:Middlewares/ST/STM32_SPWF0xSy/wifi_module_uart_01.c **** 
1118:Middlewares/ST/STM32_SPWF0xSy/wifi_module_uart_01.c ****                         //And now find the data length
1119:Middlewares/ST/STM32_SPWF0xSy/wifi_module_uart_01.c ****                         databytes_No[0] = *(ptr_offset + 8) ;//points to number just after 2nd colo
1120:Middlewares/ST/STM32_SPWF0xSy/wifi_module_uart_01.c ****                         databytes_No[1] = *(ptr_offset + 9) ;
1121:Middlewares/ST/STM32_SPWF0xSy/wifi_module_uart_01.c ****                         databytes_No[2] = *(ptr_offset + 10) ;
1122:Middlewares/ST/STM32_SPWF0xSy/wifi_module_uart_01.c ****                         databytes_No[3] = *(ptr_offset + 11) ;
1123:Middlewares/ST/STM32_SPWF0xSy/wifi_module_uart_01.c ****               
1124:Middlewares/ST/STM32_SPWF0xSy/wifi_module_uart_01.c ****                         if( databytes_No[0] == ':')//then it is a 1 digit number
1125:Middlewares/ST/STM32_SPWF0xSy/wifi_module_uart_01.c ****                           {
1126:Middlewares/ST/STM32_SPWF0xSy/wifi_module_uart_01.c ****                             databytes_No[0] = *(ptr_offset + 7) ;
1127:Middlewares/ST/STM32_SPWF0xSy/wifi_module_uart_01.c ****                             databytes_No[1] = *(ptr_offset + 8) ;
1128:Middlewares/ST/STM32_SPWF0xSy/wifi_module_uart_01.c ****                           }
1129:Middlewares/ST/STM32_SPWF0xSy/wifi_module_uart_01.c ****                         else if(databytes_No[1] == ':')//two digit number
1130:Middlewares/ST/STM32_SPWF0xSy/wifi_module_uart_01.c ****                           {
1131:Middlewares/ST/STM32_SPWF0xSy/wifi_module_uart_01.c ****                             databytes_No[0] = *(ptr_offset + 7) ;
1132:Middlewares/ST/STM32_SPWF0xSy/wifi_module_uart_01.c ****                             databytes_No[1] = *(ptr_offset + 8) ;
1133:Middlewares/ST/STM32_SPWF0xSy/wifi_module_uart_01.c ****                             databytes_No[2] = *(ptr_offset + 9) ;
1134:Middlewares/ST/STM32_SPWF0xSy/wifi_module_uart_01.c ****                           }
1135:Middlewares/ST/STM32_SPWF0xSy/wifi_module_uart_01.c ****                         else if(databytes_No[2] == ':')//three digit number
1136:Middlewares/ST/STM32_SPWF0xSy/wifi_module_uart_01.c ****                           {
1137:Middlewares/ST/STM32_SPWF0xSy/wifi_module_uart_01.c ****                             databytes_No[0] = *(ptr_offset + 7) ;
1138:Middlewares/ST/STM32_SPWF0xSy/wifi_module_uart_01.c ****                             databytes_No[1] = *(ptr_offset + 8) ;
1139:Middlewares/ST/STM32_SPWF0xSy/wifi_module_uart_01.c ****                             databytes_No[2] = *(ptr_offset + 9) ;
1140:Middlewares/ST/STM32_SPWF0xSy/wifi_module_uart_01.c ****                             databytes_No[3] = *(ptr_offset + 10) ;
1141:Middlewares/ST/STM32_SPWF0xSy/wifi_module_uart_01.c ****                           }
1142:Middlewares/ST/STM32_SPWF0xSy/wifi_module_uart_01.c ****                         else if(databytes_No[3] == ':')//four digit number
1143:Middlewares/ST/STM32_SPWF0xSy/wifi_module_uart_01.c ****                           {
1144:Middlewares/ST/STM32_SPWF0xSy/wifi_module_uart_01.c ****                             databytes_No[0] = *(ptr_offset + 7) ;
1145:Middlewares/ST/STM32_SPWF0xSy/wifi_module_uart_01.c ****                             databytes_No[1] = *(ptr_offset + 8) ;
1146:Middlewares/ST/STM32_SPWF0xSy/wifi_module_uart_01.c ****                             databytes_No[2] = *(ptr_offset + 9) ;
1147:Middlewares/ST/STM32_SPWF0xSy/wifi_module_uart_01.c ****                             databytes_No[3] = *(ptr_offset + 10) ;
1148:Middlewares/ST/STM32_SPWF0xSy/wifi_module_uart_01.c ****                           }
1149:Middlewares/ST/STM32_SPWF0xSy/wifi_module_uart_01.c **** 
1150:Middlewares/ST/STM32_SPWF0xSy/wifi_module_uart_01.c ****                         if( databytes_No[1] == ':')
1151:Middlewares/ST/STM32_SPWF0xSy/wifi_module_uart_01.c ****                           {
1152:Middlewares/ST/STM32_SPWF0xSy/wifi_module_uart_01.c ****                             wifi_instances.wifi_event.data_length = databytes_No[0] - '0'; 
1153:Middlewares/ST/STM32_SPWF0xSy/wifi_module_uart_01.c ****                           }
1154:Middlewares/ST/STM32_SPWF0xSy/wifi_module_uart_01.c ****                         else if( databytes_No[2] == ':')
1155:Middlewares/ST/STM32_SPWF0xSy/wifi_module_uart_01.c ****                           {
1156:Middlewares/ST/STM32_SPWF0xSy/wifi_module_uart_01.c ****                             wifi_instances.wifi_event.data_length = (((databytes_No[0] - '0') * 10 
ARM GAS  D:\cygwin64\tmp\ccuGdUOt.s 			page 26


1157:Middlewares/ST/STM32_SPWF0xSy/wifi_module_uart_01.c ****                           }
1158:Middlewares/ST/STM32_SPWF0xSy/wifi_module_uart_01.c ****                         else if( databytes_No[3] == ':')
1159:Middlewares/ST/STM32_SPWF0xSy/wifi_module_uart_01.c ****                           {
1160:Middlewares/ST/STM32_SPWF0xSy/wifi_module_uart_01.c ****                             wifi_instances.wifi_event.data_length = (((databytes_No[0] - '0') * 100
1161:Middlewares/ST/STM32_SPWF0xSy/wifi_module_uart_01.c ****                           }
1162:Middlewares/ST/STM32_SPWF0xSy/wifi_module_uart_01.c ****                         else //it's a 4-digit number
1163:Middlewares/ST/STM32_SPWF0xSy/wifi_module_uart_01.c ****                           {
1164:Middlewares/ST/STM32_SPWF0xSy/wifi_module_uart_01.c ****                             wifi_instances.wifi_event.data_length = (((databytes_No[0] - '0') * 100
1165:Middlewares/ST/STM32_SPWF0xSy/wifi_module_uart_01.c ****                           }            
1166:Middlewares/ST/STM32_SPWF0xSy/wifi_module_uart_01.c **** 
1167:Middlewares/ST/STM32_SPWF0xSy/wifi_module_uart_01.c ****                         /*WIND:64 came after pop of previous event and switch to data mode was issu
1168:Middlewares/ST/STM32_SPWF0xSy/wifi_module_uart_01.c ****                         IO_status_flag.WIND64_count++;           //Count of the number of queued WI
1169:Middlewares/ST/STM32_SPWF0xSy/wifi_module_uart_01.c ****                       }
1170:Middlewares/ST/STM32_SPWF0xSy/wifi_module_uart_01.c ****                     break;
1171:Middlewares/ST/STM32_SPWF0xSy/wifi_module_uart_01.c **** 
1172:Middlewares/ST/STM32_SPWF0xSy/wifi_module_uart_01.c ****                 case In_Command_Mode:
1173:Middlewares/ST/STM32_SPWF0xSy/wifi_module_uart_01.c ****                     IO_status_flag.command_mode= WIFI_TRUE;
1174:Middlewares/ST/STM32_SPWF0xSy/wifi_module_uart_01.c ****                     IO_status_flag.data_mode= WIFI_FALSE;
1175:Middlewares/ST/STM32_SPWF0xSy/wifi_module_uart_01.c ****                     IO_status_flag.WIND64_count=0;     //reset the WIND64 count since the previous 
1176:Middlewares/ST/STM32_SPWF0xSy/wifi_module_uart_01.c ****                     WiFi_Control_Variables.queue_wifi_wind_message = WIFI_FALSE;
1177:Middlewares/ST/STM32_SPWF0xSy/wifi_module_uart_01.c ****                     WiFi_Control_Variables.prevent_push_WIFI_event = WIFI_TRUE;
1178:Middlewares/ST/STM32_SPWF0xSy/wifi_module_uart_01.c ****                     break;
1179:Middlewares/ST/STM32_SPWF0xSy/wifi_module_uart_01.c **** 
1180:Middlewares/ST/STM32_SPWF0xSy/wifi_module_uart_01.c ****                 case In_Data_Mode:
1181:Middlewares/ST/STM32_SPWF0xSy/wifi_module_uart_01.c ****                     IO_status_flag.command_mode = WIFI_FALSE;
1182:Middlewares/ST/STM32_SPWF0xSy/wifi_module_uart_01.c ****                     IO_status_flag.data_mode = WIFI_TRUE;
1183:Middlewares/ST/STM32_SPWF0xSy/wifi_module_uart_01.c ****                     WiFi_Control_Variables.queue_wifi_wind_message = WIFI_FALSE;
1184:Middlewares/ST/STM32_SPWF0xSy/wifi_module_uart_01.c ****                     WiFi_Control_Variables.prevent_push_WIFI_event = WIFI_TRUE;
1185:Middlewares/ST/STM32_SPWF0xSy/wifi_module_uart_01.c **** 
1186:Middlewares/ST/STM32_SPWF0xSy/wifi_module_uart_01.c ****                     if(WiFi_Control_Variables.switch_by_default_to_command_mode == WIFI_TRUE)
1187:Middlewares/ST/STM32_SPWF0xSy/wifi_module_uart_01.c ****                       {
1188:Middlewares/ST/STM32_SPWF0xSy/wifi_module_uart_01.c ****                         if(!IO_status_flag.command_mode)
1189:Middlewares/ST/STM32_SPWF0xSy/wifi_module_uart_01.c ****                           {
1190:Middlewares/ST/STM32_SPWF0xSy/wifi_module_uart_01.c ****                             WiFi_switch_to_command_mode();//switch by default
1191:Middlewares/ST/STM32_SPWF0xSy/wifi_module_uart_01.c ****                           }    
1192:Middlewares/ST/STM32_SPWF0xSy/wifi_module_uart_01.c ****                       }
1193:Middlewares/ST/STM32_SPWF0xSy/wifi_module_uart_01.c ****                     if(WiFi_Control_Variables.data_pending_sockD == WIFI_TRUE)
1194:Middlewares/ST/STM32_SPWF0xSy/wifi_module_uart_01.c ****                       {
1195:Middlewares/ST/STM32_SPWF0xSy/wifi_module_uart_01.c ****                          WiFi_Counter_Variables.last_process_buffer_index =5;
1196:Middlewares/ST/STM32_SPWF0xSy/wifi_module_uart_01.c ****                          WiFi_Control_Variables.enable_receive_data_chunk = WIFI_TRUE;       // rea
1197:Middlewares/ST/STM32_SPWF0xSy/wifi_module_uart_01.c ****                          WiFi_Control_Variables.enable_sock_read = WIFI_TRUE;//now data will start 
1198:Middlewares/ST/STM32_SPWF0xSy/wifi_module_uart_01.c ****                         //Set the data-length to read
1199:Middlewares/ST/STM32_SPWF0xSy/wifi_module_uart_01.c ****                         WiFi_Counter_Variables.SockON_Data_Length = WiFi_Counter_Variables.number_o
1200:Middlewares/ST/STM32_SPWF0xSy/wifi_module_uart_01.c ****                       }
1201:Middlewares/ST/STM32_SPWF0xSy/wifi_module_uart_01.c ****                     break;
1202:Middlewares/ST/STM32_SPWF0xSy/wifi_module_uart_01.c **** 
1203:Middlewares/ST/STM32_SPWF0xSy/wifi_module_uart_01.c ****                 case WiFi__MiniAP_Associated:
1204:Middlewares/ST/STM32_SPWF0xSy/wifi_module_uart_01.c ****                     //Find out which client joined by parsing the WIND //+WIND:28
1205:Middlewares/ST/STM32_SPWF0xSy/wifi_module_uart_01.c ****                     ptr_offset = (char *) strstr((const char *)process_buffer_ptr,"+WIND:28");
1206:Middlewares/ST/STM32_SPWF0xSy/wifi_module_uart_01.c ****                     for(i=17;i<=33;i++)
1207:Middlewares/ST/STM32_SPWF0xSy/wifi_module_uart_01.c ****                     WiFi_Counter_Variables.client_MAC_address[i-17] = *(ptr_offset + i) ;    
1208:Middlewares/ST/STM32_SPWF0xSy/wifi_module_uart_01.c ****                     IO_status_flag.WiFi_WIND_State = WiFiAPClientJoined;
1209:Middlewares/ST/STM32_SPWF0xSy/wifi_module_uart_01.c ****                     break;
1210:Middlewares/ST/STM32_SPWF0xSy/wifi_module_uart_01.c **** 
1211:Middlewares/ST/STM32_SPWF0xSy/wifi_module_uart_01.c ****                 case WiFi_MiniAP_Disassociated:
1212:Middlewares/ST/STM32_SPWF0xSy/wifi_module_uart_01.c ****                     //Find out which client left by parsing the WIND //+WIND:72
1213:Middlewares/ST/STM32_SPWF0xSy/wifi_module_uart_01.c ****                     ptr_offset = (char *) strstr((const char *)process_buffer_ptr,"+WIND:72");
ARM GAS  D:\cygwin64\tmp\ccuGdUOt.s 			page 27


1214:Middlewares/ST/STM32_SPWF0xSy/wifi_module_uart_01.c ****                     for(i=17;i<=33;i++)
1215:Middlewares/ST/STM32_SPWF0xSy/wifi_module_uart_01.c ****                     WiFi_Counter_Variables.client_MAC_address[i-17] = *(ptr_offset + i) ;
1216:Middlewares/ST/STM32_SPWF0xSy/wifi_module_uart_01.c ****                     IO_status_flag.WiFi_WIND_State = WiFiAPClientLeft;
1217:Middlewares/ST/STM32_SPWF0xSy/wifi_module_uart_01.c ****                     break;
1218:Middlewares/ST/STM32_SPWF0xSy/wifi_module_uart_01.c ****                     
1219:Middlewares/ST/STM32_SPWF0xSy/wifi_module_uart_01.c ****                 case Incoming_socket_client:
1220:Middlewares/ST/STM32_SPWF0xSy/wifi_module_uart_01.c ****                 case Outgoing_socket_client:
1221:Middlewares/ST/STM32_SPWF0xSy/wifi_module_uart_01.c ****                     if(WiFi_Control_Variables.prevent_push_WIFI_event)
1222:Middlewares/ST/STM32_SPWF0xSy/wifi_module_uart_01.c ****                       WiFi_Control_Variables.prevent_push_WIFI_event = WIFI_FALSE;
1223:Middlewares/ST/STM32_SPWF0xSy/wifi_module_uart_01.c ****                      break;
1224:Middlewares/ST/STM32_SPWF0xSy/wifi_module_uart_01.c **** 
1225:Middlewares/ST/STM32_SPWF0xSy/wifi_module_uart_01.c ****                 case Remote_Configuration:
1226:Middlewares/ST/STM32_SPWF0xSy/wifi_module_uart_01.c ****                     wifi_connected = 0;
1227:Middlewares/ST/STM32_SPWF0xSy/wifi_module_uart_01.c ****                     WiFi_Control_Variables.queue_wifi_wind_message = WIFI_FALSE;
1228:Middlewares/ST/STM32_SPWF0xSy/wifi_module_uart_01.c ****                     WiFi_Control_Variables.prevent_push_WIFI_event = WIFI_TRUE;
1229:Middlewares/ST/STM32_SPWF0xSy/wifi_module_uart_01.c ****                     break;
1230:Middlewares/ST/STM32_SPWF0xSy/wifi_module_uart_01.c ****                     
1231:Middlewares/ST/STM32_SPWF0xSy/wifi_module_uart_01.c ****                 case Going_Into_Standby:
1232:Middlewares/ST/STM32_SPWF0xSy/wifi_module_uart_01.c ****                     wifi_instances.wifi_event.event = WIFI_STANDBY_CONFIG_EVENT;
1233:Middlewares/ST/STM32_SPWF0xSy/wifi_module_uart_01.c ****                     WiFi_Control_Variables.in_standby_mode = WIFI_TRUE;
1234:Middlewares/ST/STM32_SPWF0xSy/wifi_module_uart_01.c ****                     break;
1235:Middlewares/ST/STM32_SPWF0xSy/wifi_module_uart_01.c ****                     
1236:Middlewares/ST/STM32_SPWF0xSy/wifi_module_uart_01.c ****                 case Resuming_From_Standby:
1237:Middlewares/ST/STM32_SPWF0xSy/wifi_module_uart_01.c ****                     wifi_instances.wifi_event.event = WIFI_RESUME_CONFIG_EVENT;
1238:Middlewares/ST/STM32_SPWF0xSy/wifi_module_uart_01.c ****                     WiFi_Control_Variables.in_standby_mode = WIFI_FALSE;
1239:Middlewares/ST/STM32_SPWF0xSy/wifi_module_uart_01.c ****                     break;
1240:Middlewares/ST/STM32_SPWF0xSy/wifi_module_uart_01.c ****                     
1241:Middlewares/ST/STM32_SPWF0xSy/wifi_module_uart_01.c ****                 case Console_Active:           // Queueing of these events not required.
1242:Middlewares/ST/STM32_SPWF0xSy/wifi_module_uart_01.c ****                 case Poweron:
1243:Middlewares/ST/STM32_SPWF0xSy/wifi_module_uart_01.c ****                 case WiFi_Reset:
1244:Middlewares/ST/STM32_SPWF0xSy/wifi_module_uart_01.c ****                 case Watchdog_Running:
1245:Middlewares/ST/STM32_SPWF0xSy/wifi_module_uart_01.c ****                 case Watchdog_Terminating:
1246:Middlewares/ST/STM32_SPWF0xSy/wifi_module_uart_01.c ****                 case SysTickConfigure:
1247:Middlewares/ST/STM32_SPWF0xSy/wifi_module_uart_01.c ****                 case CopyrightInfo:
1248:Middlewares/ST/STM32_SPWF0xSy/wifi_module_uart_01.c ****                 case WiFi_BSS_Regained:
1249:Middlewares/ST/STM32_SPWF0xSy/wifi_module_uart_01.c ****                 case WiFi_Signal_OK:
1250:Middlewares/ST/STM32_SPWF0xSy/wifi_module_uart_01.c ****                 case FW_update:
1251:Middlewares/ST/STM32_SPWF0xSy/wifi_module_uart_01.c ****                 case Encryption_key_Not_Recognized:
1252:Middlewares/ST/STM32_SPWF0xSy/wifi_module_uart_01.c ****                 case WiFi_Join:
1253:Middlewares/ST/STM32_SPWF0xSy/wifi_module_uart_01.c ****                 case WiFi_Scanning:
1254:Middlewares/ST/STM32_SPWF0xSy/wifi_module_uart_01.c ****                 case WiFi_Association_Successful:
1255:Middlewares/ST/STM32_SPWF0xSy/wifi_module_uart_01.c ****                 case WiFi_BSS_LOST:
1256:Middlewares/ST/STM32_SPWF0xSy/wifi_module_uart_01.c ****                 case WiFi_NETWORK_LOST:
1257:Middlewares/ST/STM32_SPWF0xSy/wifi_module_uart_01.c ****                 case WiFi_Unhandled_Event:
1258:Middlewares/ST/STM32_SPWF0xSy/wifi_module_uart_01.c ****                 case WiFi_UNHANDLED:
1259:Middlewares/ST/STM32_SPWF0xSy/wifi_module_uart_01.c ****                 case WiFi_MiniAP_Mode :
1260:Middlewares/ST/STM32_SPWF0xSy/wifi_module_uart_01.c ****                 case DOT11_AUTHILLEGAL:
1261:Middlewares/ST/STM32_SPWF0xSy/wifi_module_uart_01.c ****                 case Creating_PSK:
1262:Middlewares/ST/STM32_SPWF0xSy/wifi_module_uart_01.c ****                 case WPA_Terminated :
1263:Middlewares/ST/STM32_SPWF0xSy/wifi_module_uart_01.c ****                 case WPA_Supplicant_Failed:
1264:Middlewares/ST/STM32_SPWF0xSy/wifi_module_uart_01.c ****                 case WPA_Handshake_Complete:
1265:Middlewares/ST/STM32_SPWF0xSy/wifi_module_uart_01.c ****                 case GPIO_line:
1266:Middlewares/ST/STM32_SPWF0xSy/wifi_module_uart_01.c ****                 case Wakeup:
1267:Middlewares/ST/STM32_SPWF0xSy/wifi_module_uart_01.c ****                 case Factory_debug:
1268:Middlewares/ST/STM32_SPWF0xSy/wifi_module_uart_01.c ****                 case Low_Power_Mode_Enabled:
1269:Middlewares/ST/STM32_SPWF0xSy/wifi_module_uart_01.c ****                 case Rejected_Found_Network:
1270:Middlewares/ST/STM32_SPWF0xSy/wifi_module_uart_01.c ****                     WiFi_Control_Variables.queue_wifi_wind_message = WIFI_FALSE;
ARM GAS  D:\cygwin64\tmp\ccuGdUOt.s 			page 28


1271:Middlewares/ST/STM32_SPWF0xSy/wifi_module_uart_01.c ****                     WiFi_Control_Variables.prevent_push_WIFI_event = WIFI_TRUE;
1272:Middlewares/ST/STM32_SPWF0xSy/wifi_module_uart_01.c ****                     break;
1273:Middlewares/ST/STM32_SPWF0xSy/wifi_module_uart_01.c **** 
1274:Middlewares/ST/STM32_SPWF0xSy/wifi_module_uart_01.c ****                   //Queue these Events.
1275:Middlewares/ST/STM32_SPWF0xSy/wifi_module_uart_01.c ****                 case MallocFailed:                                          
1276:Middlewares/ST/STM32_SPWF0xSy/wifi_module_uart_01.c ****                     if(WiFi_Control_Variables.stop_event_dequeue)
1277:Middlewares/ST/STM32_SPWF0xSy/wifi_module_uart_01.c ****                       WiFi_Control_Variables.stop_event_dequeue = WIFI_FALSE;
1278:Middlewares/ST/STM32_SPWF0xSy/wifi_module_uart_01.c ****                     break;
1279:Middlewares/ST/STM32_SPWF0xSy/wifi_module_uart_01.c ****                 case Heap_Too_Small:            
1280:Middlewares/ST/STM32_SPWF0xSy/wifi_module_uart_01.c ****                 case WiFi_Hardware_Dead:
1281:Middlewares/ST/STM32_SPWF0xSy/wifi_module_uart_01.c ****                 case Hard_Fault:
1282:Middlewares/ST/STM32_SPWF0xSy/wifi_module_uart_01.c ****                 case StackOverflow:                   
1283:Middlewares/ST/STM32_SPWF0xSy/wifi_module_uart_01.c ****                 case Error:
1284:Middlewares/ST/STM32_SPWF0xSy/wifi_module_uart_01.c ****                 case WiFi_PS_Mode_Failure:
1285:Middlewares/ST/STM32_SPWF0xSy/wifi_module_uart_01.c ****                 case WiFi_Signal_LOW:
1286:Middlewares/ST/STM32_SPWF0xSy/wifi_module_uart_01.c ****                 case JOINFAILED:
1287:Middlewares/ST/STM32_SPWF0xSy/wifi_module_uart_01.c ****                 case SCANBLEWUP:
1288:Middlewares/ST/STM32_SPWF0xSy/wifi_module_uart_01.c ****                 case SCANFAILED:
1289:Middlewares/ST/STM32_SPWF0xSy/wifi_module_uart_01.c ****                 case WiFi_Started_MiniAP_Mode:
1290:Middlewares/ST/STM32_SPWF0xSy/wifi_module_uart_01.c ****                 case Start_Failed :
1291:Middlewares/ST/STM32_SPWF0xSy/wifi_module_uart_01.c ****                 case WiFi_EXCEPTION :
1292:Middlewares/ST/STM32_SPWF0xSy/wifi_module_uart_01.c ****                 case WiFi_Hardware_Started :
1293:Middlewares/ST/STM32_SPWF0xSy/wifi_module_uart_01.c ****                 case Scan_Complete:
1294:Middlewares/ST/STM32_SPWF0xSy/wifi_module_uart_01.c ****                 case WiFi_UNHANDLED_IND:
1295:Middlewares/ST/STM32_SPWF0xSy/wifi_module_uart_01.c ****                 case WiFi_Powered_Down:
1296:Middlewares/ST/STM32_SPWF0xSy/wifi_module_uart_01.c ****                 case WiFi_Deauthentication:
1297:Middlewares/ST/STM32_SPWF0xSy/wifi_module_uart_01.c ****                 case WiFi_Disassociation:
1298:Middlewares/ST/STM32_SPWF0xSy/wifi_module_uart_01.c ****                 case RX_MGMT:
1299:Middlewares/ST/STM32_SPWF0xSy/wifi_module_uart_01.c ****                 case RX_DATA:
1300:Middlewares/ST/STM32_SPWF0xSy/wifi_module_uart_01.c ****                 case RX_UNK:
1301:Middlewares/ST/STM32_SPWF0xSy/wifi_module_uart_01.c ****                      break;
1302:Middlewares/ST/STM32_SPWF0xSy/wifi_module_uart_01.c ****                 default:
1303:Middlewares/ST/STM32_SPWF0xSy/wifi_module_uart_01.c ****                      break;
1304:Middlewares/ST/STM32_SPWF0xSy/wifi_module_uart_01.c ****               }
1305:Middlewares/ST/STM32_SPWF0xSy/wifi_module_uart_01.c ****            memset(process_buffer_ptr, 0x00, MAX_BUFFER_GLOBAL);
 267              		.loc 1 1305 0
 268 00f2 4FF40072 		mov	r2, #512
 269 00f6 0021     		movs	r1, #0
 270 00f8 2046     		mov	r0, r4
 271 00fa FFF7FEFF 		bl	memset
 272              	.LVL18:
 273              	.L9:
1306:Middlewares/ST/STM32_SPWF0xSy/wifi_module_uart_01.c ****         }
1307:Middlewares/ST/STM32_SPWF0xSy/wifi_module_uart_01.c ****      }
1308:Middlewares/ST/STM32_SPWF0xSy/wifi_module_uart_01.c **** }
 274              		.loc 1 1308 0
 275 00fe 03B0     		add	sp, sp, #12
 276              	.LCFI3:
 277              		.cfi_remember_state
 278              		.cfi_def_cfa_offset 12
 279              		@ sp needed
 280 0100 30BD     		pop	{r4, r5, pc}
 281              	.LVL19:
 282              	.L20:
 283              	.LCFI4:
 284              		.cfi_restore_state
1083:Middlewares/ST/STM32_SPWF0xSy/wifi_module_uart_01.c ****                     wifi_instances.wifi_event.socket_id = databytes_No[0] - '0'; //Max number of so
ARM GAS  D:\cygwin64\tmp\ccuGdUOt.s 			page 29


 285              		.loc 1 1083 0
 286 0102 897D     		ldrb	r1, [r1, #22]	@ zero_extendqisi2
 287              	.LVL20:
1084:Middlewares/ST/STM32_SPWF0xSy/wifi_module_uart_01.c ****                     break;      
 288              		.loc 1 1084 0
 289 0104 644B     		ldr	r3, .L58+4
 290              	.LVL21:
 291 0106 93F82120 		ldrb	r2, [r3, #33]	@ zero_extendqisi2
 292 010a 61F30302 		bfi	r2, r1, #0, #4
 293 010e 83F82120 		strb	r2, [r3, #33]
1085:Middlewares/ST/STM32_SPWF0xSy/wifi_module_uart_01.c **** 
 294              		.loc 1 1085 0
 295 0112 EEE7     		b	.L13
 296              	.LVL22:
 297              	.L24:
1088:Middlewares/ST/STM32_SPWF0xSy/wifi_module_uart_01.c ****                       {
 298              		.loc 1 1088 0
 299 0114 624B     		ldr	r3, .L58+12
 300              	.LVL23:
 301 0116 1B79     		ldrb	r3, [r3, #4]	@ zero_extendqisi2
 302 0118 13F0010F 		tst	r3, #1
 303 011c 30D1     		bne	.L50
1099:Middlewares/ST/STM32_SPWF0xSy/wifi_module_uart_01.c ****                       {
 304              		.loc 1 1099 0
 305 011e 13F0020F 		tst	r3, #2
 306 0122 31D0     		beq	.L30
1101:Middlewares/ST/STM32_SPWF0xSy/wifi_module_uart_01.c ****                       }
 307              		.loc 1 1101 0
 308 0124 0022     		movs	r2, #0
 309 0126 5F4B     		ldr	r3, .L58+16
 310 0128 C3F8AC20 		str	r2, [r3, #172]
 311              	.L31:
1111:Middlewares/ST/STM32_SPWF0xSy/wifi_module_uart_01.c ****                     if(ptr_offset != NULL)
 312              		.loc 1 1111 0
 313 012c 5B49     		ldr	r1, .L58+8
 314              	.LVL24:
 315 012e 2046     		mov	r0, r4
 316 0130 FFF7FEFF 		bl	strstr
 317              	.LVL25:
1112:Middlewares/ST/STM32_SPWF0xSy/wifi_module_uart_01.c ****                       {
 318              		.loc 1 1112 0
 319 0134 0346     		mov	r3, r0
 320 0136 0028     		cmp	r0, #0
 321 0138 DBD0     		beq	.L13
1115:Middlewares/ST/STM32_SPWF0xSy/wifi_module_uart_01.c ****                         wifi_instances.wifi_event.wind64_pending_packet_no = databytes_No[0] - '0';
 322              		.loc 1 1115 0
 323 013a 4279     		ldrb	r2, [r0, #5]	@ zero_extendqisi2
1116:Middlewares/ST/STM32_SPWF0xSy/wifi_module_uart_01.c **** 
 324              		.loc 1 1116 0
 325 013c 303A     		subs	r2, r2, #48
 326 013e 5649     		ldr	r1, .L58+4
 327 0140 81F82220 		strb	r2, [r1, #34]
1119:Middlewares/ST/STM32_SPWF0xSy/wifi_module_uart_01.c ****                         databytes_No[1] = *(ptr_offset + 9) ;
 328              		.loc 1 1119 0
 329 0144 027A     		ldrb	r2, [r0, #8]	@ zero_extendqisi2
 330 0146 8DF80420 		strb	r2, [sp, #4]
1120:Middlewares/ST/STM32_SPWF0xSy/wifi_module_uart_01.c ****                         databytes_No[2] = *(ptr_offset + 10) ;
ARM GAS  D:\cygwin64\tmp\ccuGdUOt.s 			page 30


 331              		.loc 1 1120 0
 332 014a 417A     		ldrb	r1, [r0, #9]	@ zero_extendqisi2
 333 014c 8DF80510 		strb	r1, [sp, #5]
1121:Middlewares/ST/STM32_SPWF0xSy/wifi_module_uart_01.c ****                         databytes_No[3] = *(ptr_offset + 11) ;
 334              		.loc 1 1121 0
 335 0150 807A     		ldrb	r0, [r0, #10]	@ zero_extendqisi2
 336              	.LVL26:
 337 0152 8DF80600 		strb	r0, [sp, #6]
1122:Middlewares/ST/STM32_SPWF0xSy/wifi_module_uart_01.c ****               
 338              		.loc 1 1122 0
 339 0156 DD7A     		ldrb	r5, [r3, #11]	@ zero_extendqisi2
 340 0158 8DF80750 		strb	r5, [sp, #7]
1124:Middlewares/ST/STM32_SPWF0xSy/wifi_module_uart_01.c ****                           {
 341              		.loc 1 1124 0
 342 015c 3A2A     		cmp	r2, #58
 343 015e 1DD0     		beq	.L51
1129:Middlewares/ST/STM32_SPWF0xSy/wifi_module_uart_01.c ****                           {
 344              		.loc 1 1129 0
 345 0160 3A29     		cmp	r1, #58
 346 0162 4BD0     		beq	.L52
1135:Middlewares/ST/STM32_SPWF0xSy/wifi_module_uart_01.c ****                           {
 347              		.loc 1 1135 0
 348 0164 3A28     		cmp	r0, #58
 349 0166 51D0     		beq	.L53
1142:Middlewares/ST/STM32_SPWF0xSy/wifi_module_uart_01.c ****                           {
 350              		.loc 1 1142 0
 351 0168 3A2D     		cmp	r5, #58
 352 016a 1CD1     		bne	.L33
1144:Middlewares/ST/STM32_SPWF0xSy/wifi_module_uart_01.c ****                             databytes_No[1] = *(ptr_offset + 8) ;
 353              		.loc 1 1144 0
 354 016c DB79     		ldrb	r3, [r3, #7]	@ zero_extendqisi2
 355              	.LVL27:
 356 016e 8DF80430 		strb	r3, [sp, #4]
1145:Middlewares/ST/STM32_SPWF0xSy/wifi_module_uart_01.c ****                             databytes_No[2] = *(ptr_offset + 9) ;
 357              		.loc 1 1145 0
 358 0172 8DF80520 		strb	r2, [sp, #5]
1146:Middlewares/ST/STM32_SPWF0xSy/wifi_module_uart_01.c ****                             databytes_No[3] = *(ptr_offset + 10) ;
 359              		.loc 1 1146 0
 360 0176 8DF80610 		strb	r1, [sp, #6]
1147:Middlewares/ST/STM32_SPWF0xSy/wifi_module_uart_01.c ****                           }
 361              		.loc 1 1147 0
 362 017a 8DF80700 		strb	r0, [sp, #7]
 363 017e 12E0     		b	.L33
 364              	.LVL28:
 365              	.L50:
1091:Middlewares/ST/STM32_SPWF0xSy/wifi_module_uart_01.c ****                         #endif
 366              		.loc 1 1091 0
 367 0180 4948     		ldr	r0, .L58+20
 368 0182 FFF7FEFF 		bl	puts
 369              	.LVL29:
 370 0186 BAE7     		b	.L9
 371              	.LVL30:
 372              	.L30:
1105:Middlewares/ST/STM32_SPWF0xSy/wifi_module_uart_01.c ****                         WiFi_Control_Variables.event_deQ_x_wind64 = WIFI_TRUE;//Set the flag
 373              		.loc 1 1105 0
 374 0188 454B     		ldr	r3, .L58+12
 375 018a 1A78     		ldrb	r2, [r3]	@ zero_extendqisi2
ARM GAS  D:\cygwin64\tmp\ccuGdUOt.s 			page 31


 376 018c 42F00802 		orr	r2, r2, #8
 377 0190 1A70     		strb	r2, [r3]
1106:Middlewares/ST/STM32_SPWF0xSy/wifi_module_uart_01.c ****                       }
 378              		.loc 1 1106 0
 379 0192 1A79     		ldrb	r2, [r3, #4]	@ zero_extendqisi2
 380 0194 42F00202 		orr	r2, r2, #2
 381 0198 1A71     		strb	r2, [r3, #4]
 382 019a C7E7     		b	.L31
 383              	.LVL31:
 384              	.L51:
1126:Middlewares/ST/STM32_SPWF0xSy/wifi_module_uart_01.c ****                             databytes_No[1] = *(ptr_offset + 8) ;
 385              		.loc 1 1126 0
 386 019c DB79     		ldrb	r3, [r3, #7]	@ zero_extendqisi2
 387              	.LVL32:
 388 019e 8DF80430 		strb	r3, [sp, #4]
1127:Middlewares/ST/STM32_SPWF0xSy/wifi_module_uart_01.c ****                           }
 389              		.loc 1 1127 0
 390 01a2 8DF80520 		strb	r2, [sp, #5]
 391              	.L33:
1150:Middlewares/ST/STM32_SPWF0xSy/wifi_module_uart_01.c ****                           {
 392              		.loc 1 1150 0
 393 01a6 9DF80530 		ldrb	r3, [sp, #5]	@ zero_extendqisi2
 394 01aa 3A2B     		cmp	r3, #58
 395 01ac 38D0     		beq	.L54
1154:Middlewares/ST/STM32_SPWF0xSy/wifi_module_uart_01.c ****                           {
 396              		.loc 1 1154 0
 397 01ae 9DF80620 		ldrb	r2, [sp, #6]	@ zero_extendqisi2
 398 01b2 3A2A     		cmp	r2, #58
 399 01b4 3AD0     		beq	.L55
1158:Middlewares/ST/STM32_SPWF0xSy/wifi_module_uart_01.c ****                           {
 400              		.loc 1 1158 0
 401 01b6 9DF80710 		ldrb	r1, [sp, #7]	@ zero_extendqisi2
 402 01ba 3A29     		cmp	r1, #58
 403 01bc 41D0     		beq	.L56
1164:Middlewares/ST/STM32_SPWF0xSy/wifi_module_uart_01.c ****                           }            
 404              		.loc 1 1164 0
 405 01be 9DF80400 		ldrb	r0, [sp, #4]	@ zero_extendqisi2
 406 01c2 3038     		subs	r0, r0, #48
 407 01c4 303B     		subs	r3, r3, #48
 408 01c6 C0EB4015 		rsb	r5, r0, r0, lsl #5
 409 01ca 00EB8500 		add	r0, r0, r5, lsl #2
 410 01ce 03EB8303 		add	r3, r3, r3, lsl #2
 411 01d2 03EB8303 		add	r3, r3, r3, lsl #2
 412 01d6 9B00     		lsls	r3, r3, #2
 413 01d8 03EBC003 		add	r3, r3, r0, lsl #3
 414 01dc 9BB2     		uxth	r3, r3
 415 01de 303A     		subs	r2, r2, #48
 416 01e0 02EB8202 		add	r2, r2, r2, lsl #2
 417 01e4 03EB4203 		add	r3, r3, r2, lsl #1
 418 01e8 9BB2     		uxth	r3, r3
 419 01ea 0B44     		add	r3, r3, r1
 420 01ec 303B     		subs	r3, r3, #48
 421 01ee 2A4A     		ldr	r2, .L58+4
 422 01f0 9384     		strh	r3, [r2, #36]	@ movhi
 423              	.L37:
1168:Middlewares/ST/STM32_SPWF0xSy/wifi_module_uart_01.c ****                       }
 424              		.loc 1 1168 0
ARM GAS  D:\cygwin64\tmp\ccuGdUOt.s 			page 32


 425 01f2 2E4A     		ldr	r2, .L58+24
 426 01f4 5368     		ldr	r3, [r2, #4]
 427 01f6 0133     		adds	r3, r3, #1
 428 01f8 5360     		str	r3, [r2, #4]
 429 01fa 7AE7     		b	.L13
 430              	.LVL33:
 431              	.L52:
1131:Middlewares/ST/STM32_SPWF0xSy/wifi_module_uart_01.c ****                             databytes_No[1] = *(ptr_offset + 8) ;
 432              		.loc 1 1131 0
 433 01fc DB79     		ldrb	r3, [r3, #7]	@ zero_extendqisi2
 434              	.LVL34:
 435 01fe 8DF80430 		strb	r3, [sp, #4]
1132:Middlewares/ST/STM32_SPWF0xSy/wifi_module_uart_01.c ****                             databytes_No[2] = *(ptr_offset + 9) ;
 436              		.loc 1 1132 0
 437 0202 8DF80520 		strb	r2, [sp, #5]
1133:Middlewares/ST/STM32_SPWF0xSy/wifi_module_uart_01.c ****                           }
 438              		.loc 1 1133 0
 439 0206 8DF80610 		strb	r1, [sp, #6]
 440 020a CCE7     		b	.L33
 441              	.LVL35:
 442              	.L53:
1137:Middlewares/ST/STM32_SPWF0xSy/wifi_module_uart_01.c ****                             databytes_No[1] = *(ptr_offset + 8) ;
 443              		.loc 1 1137 0
 444 020c DB79     		ldrb	r3, [r3, #7]	@ zero_extendqisi2
 445              	.LVL36:
 446 020e 8DF80430 		strb	r3, [sp, #4]
1138:Middlewares/ST/STM32_SPWF0xSy/wifi_module_uart_01.c ****                             databytes_No[2] = *(ptr_offset + 9) ;
 447              		.loc 1 1138 0
 448 0212 8DF80520 		strb	r2, [sp, #5]
1139:Middlewares/ST/STM32_SPWF0xSy/wifi_module_uart_01.c ****                             databytes_No[3] = *(ptr_offset + 10) ;
 449              		.loc 1 1139 0
 450 0216 8DF80610 		strb	r1, [sp, #6]
1140:Middlewares/ST/STM32_SPWF0xSy/wifi_module_uart_01.c ****                           }
 451              		.loc 1 1140 0
 452 021a 8DF80700 		strb	r0, [sp, #7]
 453 021e C2E7     		b	.L33
 454              	.L54:
1152:Middlewares/ST/STM32_SPWF0xSy/wifi_module_uart_01.c ****                           }
 455              		.loc 1 1152 0
 456 0220 9DF80430 		ldrb	r3, [sp, #4]	@ zero_extendqisi2
 457 0224 303B     		subs	r3, r3, #48
 458 0226 1C4A     		ldr	r2, .L58+4
 459 0228 9384     		strh	r3, [r2, #36]	@ movhi
 460 022a E2E7     		b	.L37
 461              	.L55:
1156:Middlewares/ST/STM32_SPWF0xSy/wifi_module_uart_01.c ****                           }
 462              		.loc 1 1156 0
 463 022c 9DF80420 		ldrb	r2, [sp, #4]	@ zero_extendqisi2
 464 0230 303A     		subs	r2, r2, #48
 465 0232 02EB8202 		add	r2, r2, r2, lsl #2
 466 0236 03EB4203 		add	r3, r3, r2, lsl #1
 467 023a 303B     		subs	r3, r3, #48
 468 023c 164A     		ldr	r2, .L58+4
 469 023e 9384     		strh	r3, [r2, #36]	@ movhi
 470 0240 D7E7     		b	.L37
 471              	.L56:
1160:Middlewares/ST/STM32_SPWF0xSy/wifi_module_uart_01.c ****                           }
ARM GAS  D:\cygwin64\tmp\ccuGdUOt.s 			page 33


 472              		.loc 1 1160 0
 473 0242 9DF80410 		ldrb	r1, [sp, #4]	@ zero_extendqisi2
 474 0246 3039     		subs	r1, r1, #48
 475 0248 303B     		subs	r3, r3, #48
 476 024a 01EB8101 		add	r1, r1, r1, lsl #2
 477 024e 01EB8101 		add	r1, r1, r1, lsl #2
 478 0252 03EB8303 		add	r3, r3, r3, lsl #2
 479 0256 5B00     		lsls	r3, r3, #1
 480 0258 03EB8103 		add	r3, r3, r1, lsl #2
 481 025c 9BB2     		uxth	r3, r3
 482 025e 1344     		add	r3, r3, r2
 483 0260 303B     		subs	r3, r3, #48
 484 0262 0D4A     		ldr	r2, .L58+4
 485 0264 9384     		strh	r3, [r2, #36]	@ movhi
 486 0266 C4E7     		b	.L37
 487              	.LVL37:
 488              	.L21:
1173:Middlewares/ST/STM32_SPWF0xSy/wifi_module_uart_01.c ****                     IO_status_flag.data_mode= WIFI_FALSE;
 489              		.loc 1 1173 0
 490 0268 104B     		ldr	r3, .L58+24
 491              	.LVL38:
 492 026a 1A78     		ldrb	r2, [r3]	@ zero_extendqisi2
 493 026c 42F08002 		orr	r2, r2, #128
 494 0270 1A70     		strb	r2, [r3]
1174:Middlewares/ST/STM32_SPWF0xSy/wifi_module_uart_01.c ****                     IO_status_flag.WIND64_count=0;     //reset the WIND64 count since the previous 
 495              		.loc 1 1174 0
 496 0272 1A78     		ldrb	r2, [r3]	@ zero_extendqisi2
 497 0274 6FF34512 		bfc	r2, #5, #1
 498 0278 1A70     		strb	r2, [r3]
1175:Middlewares/ST/STM32_SPWF0xSy/wifi_module_uart_01.c ****                     WiFi_Control_Variables.queue_wifi_wind_message = WIFI_FALSE;
 499              		.loc 1 1175 0
 500 027a 0021     		movs	r1, #0
 501              	.LVL39:
 502 027c 5960     		str	r1, [r3, #4]
1176:Middlewares/ST/STM32_SPWF0xSy/wifi_module_uart_01.c ****                     WiFi_Control_Variables.prevent_push_WIFI_event = WIFI_TRUE;
 503              		.loc 1 1176 0
 504 027e 084B     		ldr	r3, .L58+12
 505 0280 1A78     		ldrb	r2, [r3]	@ zero_extendqisi2
 506 0282 61F34102 		bfi	r2, r1, #1, #1
 507 0286 1A70     		strb	r2, [r3]
1177:Middlewares/ST/STM32_SPWF0xSy/wifi_module_uart_01.c ****                     break;
 508              		.loc 1 1177 0
 509 0288 1A79     		ldrb	r2, [r3, #4]	@ zero_extendqisi2
 510 028a 42F00102 		orr	r2, r2, #1
 511 028e 1A71     		strb	r2, [r3, #4]
1178:Middlewares/ST/STM32_SPWF0xSy/wifi_module_uart_01.c **** 
 512              		.loc 1 1178 0
 513 0290 2FE7     		b	.L13
 514              	.L59:
 515 0292 00BF     		.align	2
 516              	.L58:
 517 0294 00000000 		.word	.LC1
 518 0298 00000000 		.word	wifi_instances
 519 029c 08000000 		.word	.LC2
 520 02a0 00000000 		.word	WiFi_Control_Variables
 521 02a4 00000000 		.word	WiFi_Counter_Variables
 522 02a8 10000000 		.word	.LC3
ARM GAS  D:\cygwin64\tmp\ccuGdUOt.s 			page 34


 523 02ac 00000000 		.word	IO_status_flag
 524              	.LVL40:
 525              	.L22:
1181:Middlewares/ST/STM32_SPWF0xSy/wifi_module_uart_01.c ****                     IO_status_flag.data_mode = WIFI_TRUE;
 526              		.loc 1 1181 0
 527 02b0 4D4B     		ldr	r3, .L60
 528              	.LVL41:
 529 02b2 1A78     		ldrb	r2, [r3]	@ zero_extendqisi2
 530 02b4 6FF3C712 		bfc	r2, #7, #1
 531 02b8 1A70     		strb	r2, [r3]
1182:Middlewares/ST/STM32_SPWF0xSy/wifi_module_uart_01.c ****                     WiFi_Control_Variables.queue_wifi_wind_message = WIFI_FALSE;
 532              		.loc 1 1182 0
 533 02ba 1A78     		ldrb	r2, [r3]	@ zero_extendqisi2
 534 02bc 42F02002 		orr	r2, r2, #32
 535 02c0 1A70     		strb	r2, [r3]
1183:Middlewares/ST/STM32_SPWF0xSy/wifi_module_uart_01.c ****                     WiFi_Control_Variables.prevent_push_WIFI_event = WIFI_TRUE;
 536              		.loc 1 1183 0
 537 02c2 4A4B     		ldr	r3, .L60+4
 538 02c4 1A78     		ldrb	r2, [r3]	@ zero_extendqisi2
 539 02c6 6FF34102 		bfc	r2, #1, #1
 540 02ca 1A70     		strb	r2, [r3]
1184:Middlewares/ST/STM32_SPWF0xSy/wifi_module_uart_01.c **** 
 541              		.loc 1 1184 0
 542 02cc 1979     		ldrb	r1, [r3, #4]	@ zero_extendqisi2
 543              	.LVL42:
 544 02ce 41F00101 		orr	r1, r1, #1
 545 02d2 1971     		strb	r1, [r3, #4]
1186:Middlewares/ST/STM32_SPWF0xSy/wifi_module_uart_01.c ****                       {
 546              		.loc 1 1186 0
 547 02d4 12F0010F 		tst	r2, #1
 548 02d8 03D0     		beq	.L40
1188:Middlewares/ST/STM32_SPWF0xSy/wifi_module_uart_01.c ****                           {
 549              		.loc 1 1188 0
 550 02da 434B     		ldr	r3, .L60
 551 02dc 1B78     		ldrb	r3, [r3]	@ zero_extendqisi2
 552 02de DB09     		lsrs	r3, r3, #7
 553 02e0 13D0     		beq	.L57
 554              	.L40:
1193:Middlewares/ST/STM32_SPWF0xSy/wifi_module_uart_01.c ****                       {
 555              		.loc 1 1193 0
 556 02e2 424B     		ldr	r3, .L60+4
 557 02e4 9B78     		ldrb	r3, [r3, #2]	@ zero_extendqisi2
 558 02e6 13F0080F 		tst	r3, #8
 559 02ea 3FF402AF 		beq	.L13
1195:Middlewares/ST/STM32_SPWF0xSy/wifi_module_uart_01.c ****                          WiFi_Control_Variables.enable_receive_data_chunk = WIFI_TRUE;       // rea
 560              		.loc 1 1195 0
 561 02ee 404B     		ldr	r3, .L60+8
 562 02f0 0522     		movs	r2, #5
 563 02f2 A3F89A20 		strh	r2, [r3, #154]	@ movhi
1196:Middlewares/ST/STM32_SPWF0xSy/wifi_module_uart_01.c ****                          WiFi_Control_Variables.enable_sock_read = WIFI_TRUE;//now data will start 
 564              		.loc 1 1196 0
 565 02f6 3D49     		ldr	r1, .L60+4
 566 02f8 8A78     		ldrb	r2, [r1, #2]	@ zero_extendqisi2
1197:Middlewares/ST/STM32_SPWF0xSy/wifi_module_uart_01.c ****                         //Set the data-length to read
 567              		.loc 1 1197 0
 568 02fa 42F02402 		orr	r2, r2, #36
 569 02fe 8A70     		strb	r2, [r1, #2]
ARM GAS  D:\cygwin64\tmp\ccuGdUOt.s 			page 35


1199:Middlewares/ST/STM32_SPWF0xSy/wifi_module_uart_01.c ****                       }
 570              		.loc 1 1199 0
 571 0300 D3F8A820 		ldr	r2, [r3, #168]
 572 0304 C3F8A420 		str	r2, [r3, #164]
 573 0308 F3E6     		b	.L13
 574              	.L57:
1190:Middlewares/ST/STM32_SPWF0xSy/wifi_module_uart_01.c ****                           }    
 575              		.loc 1 1190 0
 576 030a FFF7FEFF 		bl	WiFi_switch_to_command_mode
 577              	.LVL43:
 578 030e E8E7     		b	.L40
 579              	.LVL44:
 580              	.L17:
1205:Middlewares/ST/STM32_SPWF0xSy/wifi_module_uart_01.c ****                     for(i=17;i<=33;i++)
 581              		.loc 1 1205 0
 582 0310 3849     		ldr	r1, .L60+12
 583              	.LVL45:
 584 0312 2046     		mov	r0, r4
 585 0314 FFF7FEFF 		bl	strstr
 586              	.LVL46:
1206:Middlewares/ST/STM32_SPWF0xSy/wifi_module_uart_01.c ****                     WiFi_Counter_Variables.client_MAC_address[i-17] = *(ptr_offset + i) ;    
 587              		.loc 1 1206 0
 588 0318 1123     		movs	r3, #17
 589 031a 07E0     		b	.L41
 590              	.LVL47:
 591              	.L42:
1207:Middlewares/ST/STM32_SPWF0xSy/wifi_module_uart_01.c ****                     IO_status_flag.WiFi_WIND_State = WiFiAPClientJoined;
 592              		.loc 1 1207 0 discriminator 3
 593 031c A3F11105 		sub	r5, r3, #17
 594 0320 C15C     		ldrb	r1, [r0, r3]	@ zero_extendqisi2
 595 0322 334A     		ldr	r2, .L60+8
 596 0324 2A44     		add	r2, r2, r5
 597 0326 82F84F10 		strb	r1, [r2, #79]
1206:Middlewares/ST/STM32_SPWF0xSy/wifi_module_uart_01.c ****                     WiFi_Counter_Variables.client_MAC_address[i-17] = *(ptr_offset + i) ;    
 598              		.loc 1 1206 0 discriminator 3
 599 032a 0133     		adds	r3, r3, #1
 600              	.LVL48:
 601              	.L41:
1206:Middlewares/ST/STM32_SPWF0xSy/wifi_module_uart_01.c ****                     WiFi_Counter_Variables.client_MAC_address[i-17] = *(ptr_offset + i) ;    
 602              		.loc 1 1206 0 is_stmt 0 discriminator 1
 603 032c 212B     		cmp	r3, #33
 604 032e F5DD     		ble	.L42
1208:Middlewares/ST/STM32_SPWF0xSy/wifi_module_uart_01.c ****                     break;
 605              		.loc 1 1208 0 is_stmt 1
 606 0330 0B22     		movs	r2, #11
 607 0332 2D4B     		ldr	r3, .L60
 608              	.LVL49:
 609 0334 9A75     		strb	r2, [r3, #22]
1209:Middlewares/ST/STM32_SPWF0xSy/wifi_module_uart_01.c **** 
 610              		.loc 1 1209 0
 611 0336 DCE6     		b	.L13
 612              	.LVL50:
 613              	.L27:
1213:Middlewares/ST/STM32_SPWF0xSy/wifi_module_uart_01.c ****                     for(i=17;i<=33;i++)
 614              		.loc 1 1213 0
 615 0338 2F49     		ldr	r1, .L60+16
 616              	.LVL51:
ARM GAS  D:\cygwin64\tmp\ccuGdUOt.s 			page 36


 617 033a 2046     		mov	r0, r4
 618 033c FFF7FEFF 		bl	strstr
 619              	.LVL52:
1214:Middlewares/ST/STM32_SPWF0xSy/wifi_module_uart_01.c ****                     WiFi_Counter_Variables.client_MAC_address[i-17] = *(ptr_offset + i) ;
 620              		.loc 1 1214 0
 621 0340 1123     		movs	r3, #17
 622 0342 07E0     		b	.L43
 623              	.LVL53:
 624              	.L44:
1215:Middlewares/ST/STM32_SPWF0xSy/wifi_module_uart_01.c ****                     IO_status_flag.WiFi_WIND_State = WiFiAPClientLeft;
 625              		.loc 1 1215 0 discriminator 3
 626 0344 A3F11105 		sub	r5, r3, #17
 627 0348 C15C     		ldrb	r1, [r0, r3]	@ zero_extendqisi2
 628 034a 294A     		ldr	r2, .L60+8
 629 034c 2A44     		add	r2, r2, r5
 630 034e 82F84F10 		strb	r1, [r2, #79]
1214:Middlewares/ST/STM32_SPWF0xSy/wifi_module_uart_01.c ****                     WiFi_Counter_Variables.client_MAC_address[i-17] = *(ptr_offset + i) ;
 631              		.loc 1 1214 0 discriminator 3
 632 0352 0133     		adds	r3, r3, #1
 633              	.LVL54:
 634              	.L43:
1214:Middlewares/ST/STM32_SPWF0xSy/wifi_module_uart_01.c ****                     WiFi_Counter_Variables.client_MAC_address[i-17] = *(ptr_offset + i) ;
 635              		.loc 1 1214 0 is_stmt 0 discriminator 1
 636 0354 212B     		cmp	r3, #33
 637 0356 F5DD     		ble	.L44
1216:Middlewares/ST/STM32_SPWF0xSy/wifi_module_uart_01.c ****                     break;
 638              		.loc 1 1216 0 is_stmt 1
 639 0358 0C22     		movs	r2, #12
 640 035a 234B     		ldr	r3, .L60
 641              	.LVL55:
 642 035c 9A75     		strb	r2, [r3, #22]
1217:Middlewares/ST/STM32_SPWF0xSy/wifi_module_uart_01.c ****                     
 643              		.loc 1 1217 0
 644 035e C8E6     		b	.L13
 645              	.LVL56:
 646              	.L23:
1221:Middlewares/ST/STM32_SPWF0xSy/wifi_module_uart_01.c ****                       WiFi_Control_Variables.prevent_push_WIFI_event = WIFI_FALSE;
 647              		.loc 1 1221 0
 648 0360 224B     		ldr	r3, .L60+4
 649              	.LVL57:
 650 0362 1B79     		ldrb	r3, [r3, #4]	@ zero_extendqisi2
 651 0364 13F0010F 		tst	r3, #1
 652 0368 3FF4C3AE 		beq	.L13
1222:Middlewares/ST/STM32_SPWF0xSy/wifi_module_uart_01.c ****                      break;
 653              		.loc 1 1222 0
 654 036c 1F4B     		ldr	r3, .L60+4
 655 036e 1A79     		ldrb	r2, [r3, #4]	@ zero_extendqisi2
 656 0370 6FF30002 		bfc	r2, #0, #1
 657 0374 1A71     		strb	r2, [r3, #4]
 658 0376 BCE6     		b	.L13
 659              	.LVL58:
 660              	.L19:
1226:Middlewares/ST/STM32_SPWF0xSy/wifi_module_uart_01.c ****                     WiFi_Control_Variables.queue_wifi_wind_message = WIFI_FALSE;
 661              		.loc 1 1226 0
 662 0378 0021     		movs	r1, #0
 663              	.LVL59:
 664 037a 204B     		ldr	r3, .L60+20
ARM GAS  D:\cygwin64\tmp\ccuGdUOt.s 			page 37


 665              	.LVL60:
 666 037c 1970     		strb	r1, [r3]
1227:Middlewares/ST/STM32_SPWF0xSy/wifi_module_uart_01.c ****                     WiFi_Control_Variables.prevent_push_WIFI_event = WIFI_TRUE;
 667              		.loc 1 1227 0
 668 037e 1B4B     		ldr	r3, .L60+4
 669 0380 1A78     		ldrb	r2, [r3]	@ zero_extendqisi2
 670 0382 61F34102 		bfi	r2, r1, #1, #1
 671 0386 1A70     		strb	r2, [r3]
1228:Middlewares/ST/STM32_SPWF0xSy/wifi_module_uart_01.c ****                     break;
 672              		.loc 1 1228 0
 673 0388 1A79     		ldrb	r2, [r3, #4]	@ zero_extendqisi2
 674 038a 42F00102 		orr	r2, r2, #1
 675 038e 1A71     		strb	r2, [r3, #4]
1229:Middlewares/ST/STM32_SPWF0xSy/wifi_module_uart_01.c ****                     
 676              		.loc 1 1229 0
 677 0390 AFE6     		b	.L13
 678              	.LVL61:
 679              	.L25:
1232:Middlewares/ST/STM32_SPWF0xSy/wifi_module_uart_01.c ****                     WiFi_Control_Variables.in_standby_mode = WIFI_TRUE;
 680              		.loc 1 1232 0
 681 0392 0A22     		movs	r2, #10
 682 0394 1A4B     		ldr	r3, .L60+24
 683              	.LVL62:
 684 0396 83F82620 		strb	r2, [r3, #38]
1233:Middlewares/ST/STM32_SPWF0xSy/wifi_module_uart_01.c ****                     break;
 685              		.loc 1 1233 0
 686 039a 144A     		ldr	r2, .L60+4
 687 039c D379     		ldrb	r3, [r2, #7]	@ zero_extendqisi2
 688 039e 43F00403 		orr	r3, r3, #4
 689 03a2 D371     		strb	r3, [r2, #7]
1234:Middlewares/ST/STM32_SPWF0xSy/wifi_module_uart_01.c ****                     
 690              		.loc 1 1234 0
 691 03a4 A5E6     		b	.L13
 692              	.LVL63:
 693              	.L26:
1237:Middlewares/ST/STM32_SPWF0xSy/wifi_module_uart_01.c ****                     WiFi_Control_Variables.in_standby_mode = WIFI_FALSE;
 694              		.loc 1 1237 0
 695 03a6 0922     		movs	r2, #9
 696 03a8 154B     		ldr	r3, .L60+24
 697              	.LVL64:
 698 03aa 83F82620 		strb	r2, [r3, #38]
1238:Middlewares/ST/STM32_SPWF0xSy/wifi_module_uart_01.c ****                     break;
 699              		.loc 1 1238 0
 700 03ae 0F4B     		ldr	r3, .L60+4
 701 03b0 DA79     		ldrb	r2, [r3, #7]	@ zero_extendqisi2
 702 03b2 6FF38202 		bfc	r2, #2, #1
 703 03b6 DA71     		strb	r2, [r3, #7]
1239:Middlewares/ST/STM32_SPWF0xSy/wifi_module_uart_01.c ****                     
 704              		.loc 1 1239 0
 705 03b8 9BE6     		b	.L13
 706              	.LVL65:
 707              	.L14:
1270:Middlewares/ST/STM32_SPWF0xSy/wifi_module_uart_01.c ****                     WiFi_Control_Variables.prevent_push_WIFI_event = WIFI_TRUE;
 708              		.loc 1 1270 0
 709 03ba 0C4B     		ldr	r3, .L60+4
 710              	.LVL66:
 711 03bc 1A78     		ldrb	r2, [r3]	@ zero_extendqisi2
ARM GAS  D:\cygwin64\tmp\ccuGdUOt.s 			page 38


 712 03be 6FF34102 		bfc	r2, #1, #1
 713 03c2 1A70     		strb	r2, [r3]
1271:Middlewares/ST/STM32_SPWF0xSy/wifi_module_uart_01.c ****                     break;
 714              		.loc 1 1271 0
 715 03c4 1A79     		ldrb	r2, [r3, #4]	@ zero_extendqisi2
 716 03c6 42F00102 		orr	r2, r2, #1
 717 03ca 1A71     		strb	r2, [r3, #4]
1272:Middlewares/ST/STM32_SPWF0xSy/wifi_module_uart_01.c **** 
 718              		.loc 1 1272 0
 719 03cc 91E6     		b	.L13
 720              	.LVL67:
 721              	.L16:
1276:Middlewares/ST/STM32_SPWF0xSy/wifi_module_uart_01.c ****                       WiFi_Control_Variables.stop_event_dequeue = WIFI_FALSE;
 722              		.loc 1 1276 0
 723 03ce 074B     		ldr	r3, .L60+4
 724              	.LVL68:
 725 03d0 1B78     		ldrb	r3, [r3]	@ zero_extendqisi2
 726 03d2 13F0080F 		tst	r3, #8
 727 03d6 3FF48CAE 		beq	.L13
1277:Middlewares/ST/STM32_SPWF0xSy/wifi_module_uart_01.c ****                     break;
 728              		.loc 1 1277 0
 729 03da 044B     		ldr	r3, .L60+4
 730 03dc 1A78     		ldrb	r2, [r3]	@ zero_extendqisi2
 731 03de 6FF3C302 		bfc	r2, #3, #1
 732 03e2 1A70     		strb	r2, [r3]
 733 03e4 85E6     		b	.L13
 734              	.LVL69:
 735              	.L46:
 736              	.LCFI5:
 737              		.cfi_def_cfa_offset 0
 738              		.cfi_restore 4
 739              		.cfi_restore 5
 740              		.cfi_restore 14
 741 03e6 7047     		bx	lr
 742              	.L61:
 743              		.align	2
 744              	.L60:
 745 03e8 00000000 		.word	IO_status_flag
 746 03ec 00000000 		.word	WiFi_Control_Variables
 747 03f0 00000000 		.word	WiFi_Counter_Variables
 748 03f4 18000000 		.word	.LC4
 749 03f8 24000000 		.word	.LC5
 750 03fc 00000000 		.word	wifi_connected
 751 0400 00000000 		.word	wifi_instances
 752              		.cfi_endproc
 753              	.LFE277:
 755              		.section	.text.Process_Buffer,"ax",%progbits
 756              		.align	1
 757              		.global	Process_Buffer
 758              		.syntax unified
 759              		.thumb
 760              		.thumb_func
 761              		.fpu fpv4-sp-d16
 763              	Process_Buffer:
 764              	.LFB276:
 109:Middlewares/ST/STM32_SPWF0xSy/wifi_module_uart_01.c ****   static uint32_t Fillptr=0;
 765              		.loc 1 109 0
ARM GAS  D:\cygwin64\tmp\ccuGdUOt.s 			page 39


 766              		.cfi_startproc
 767              		@ args = 0, pretend = 0, frame = 0
 768              		@ frame_needed = 0, uses_anonymous_args = 0
 769              	.LVL70:
 770 0000 2DE9F047 		push	{r4, r5, r6, r7, r8, r9, r10, lr}
 771              	.LCFI6:
 772              		.cfi_def_cfa_offset 32
 773              		.cfi_offset 4, -32
 774              		.cfi_offset 5, -28
 775              		.cfi_offset 6, -24
 776              		.cfi_offset 7, -20
 777              		.cfi_offset 8, -16
 778              		.cfi_offset 9, -12
 779              		.cfi_offset 10, -8
 780              		.cfi_offset 14, -4
 781 0004 0646     		mov	r6, r0
 782              	.LVL71:
 120:Middlewares/ST/STM32_SPWF0xSy/wifi_module_uart_01.c ****   //printf(&rxdata);    //check prints for debug...to be removed or kept in DEBUG statement
 783              		.loc 1 120 0
 784 0006 0278     		ldrb	r2, [r0]	@ zero_extendqisi2
 785              	.LVL72:
 122:Middlewares/ST/STM32_SPWF0xSy/wifi_module_uart_01.c ****     process_buffer[Fillptr++] = rxdata;
 786              		.loc 1 122 0
 787 0008 B44B     		ldr	r3, .L188
 788 000a 9B78     		ldrb	r3, [r3, #2]	@ zero_extendqisi2
 789 000c 13F0040F 		tst	r3, #4
 790 0010 06D1     		bne	.L63
 122:Middlewares/ST/STM32_SPWF0xSy/wifi_module_uart_01.c ****     process_buffer[Fillptr++] = rxdata;
 791              		.loc 1 122 0 is_stmt 0 discriminator 1
 792 0012 2AB1     		cbz	r2, .L63
 123:Middlewares/ST/STM32_SPWF0xSy/wifi_module_uart_01.c ****    reset_event(&wifi_instances.wifi_event);
 793              		.loc 1 123 0 is_stmt 1
 794 0014 B249     		ldr	r1, .L188+4
 795 0016 0B68     		ldr	r3, [r1]
 796 0018 581C     		adds	r0, r3, #1
 797              	.LVL73:
 798 001a 0860     		str	r0, [r1]
 799 001c B149     		ldr	r1, .L188+8
 800 001e CA54     		strb	r2, [r1, r3]
 801              	.L63:
 124:Middlewares/ST/STM32_SPWF0xSy/wifi_module_uart_01.c **** 
 802              		.loc 1 124 0
 803 0020 B148     		ldr	r0, .L188+12
 804 0022 FFF7FEFF 		bl	reset_event
 805              	.LVL74:
 126:Middlewares/ST/STM32_SPWF0xSy/wifi_module_uart_01.c ****        && !WiFi_Control_Variables.enable_receive_http_response && !IO_status_flag.sock_read_ongoing
 806              		.loc 1 126 0
 807 0026 AE4B     		ldr	r3, .L188+4
 808 0028 1C68     		ldr	r4, [r3]
 809 002a A31E     		subs	r3, r4, #2
 810 002c AD4A     		ldr	r2, .L188+8
 811 002e D55C     		ldrb	r5, [r2, r3]	@ zero_extendqisi2
 812 0030 0D2D     		cmp	r5, #13
 813 0032 27D0     		beq	.L163
 814              	.L64:
 434:Middlewares/ST/STM32_SPWF0xSy/wifi_module_uart_01.c ****       {
 815              		.loc 1 434 0
ARM GAS  D:\cygwin64\tmp\ccuGdUOt.s 			page 40


 816 0034 A94B     		ldr	r3, .L188
 817 0036 5B7A     		ldrb	r3, [r3, #9]	@ zero_extendqisi2
 818 0038 13F0040F 		tst	r3, #4
 819 003c 40F01F83 		bne	.L104
 434:Middlewares/ST/STM32_SPWF0xSy/wifi_module_uart_01.c ****       {
 820              		.loc 1 434 0 is_stmt 0 discriminator 1
 821 0040 AA49     		ldr	r1, .L188+16
 822 0042 A848     		ldr	r0, .L188+8
 823 0044 FFF7FEFF 		bl	strstr
 824              	.LVL75:
 825 0048 0028     		cmp	r0, #0
 826 004a 00F01883 		beq	.L104
 438:Middlewares/ST/STM32_SPWF0xSy/wifi_module_uart_01.c ****         {
 827              		.loc 1 438 0 is_stmt 1
 828 004e A849     		ldr	r1, .L188+20
 829 0050 A448     		ldr	r0, .L188+8
 830 0052 FFF7FEFF 		bl	strstr
 831              	.LVL76:
 832 0056 0028     		cmp	r0, #0
 833 0058 00F0B386 		beq	.L62
 444:Middlewares/ST/STM32_SPWF0xSy/wifi_module_uart_01.c ****           ind_wifi_inputssi_callback();
 834              		.loc 1 444 0
 835 005c 1D20     		movs	r0, #29
 836 005e FFF7FEFF 		bl	HAL_NVIC_DisableIRQ
 837              	.LVL77:
 445:Middlewares/ST/STM32_SPWF0xSy/wifi_module_uart_01.c ****           WiFi_Control_Variables.parsing_wind_56_data = WIFI_TRUE;
 838              		.loc 1 445 0
 839 0062 FFF7FEFF 		bl	ind_wifi_inputssi_callback
 840              	.LVL78:
 446:Middlewares/ST/STM32_SPWF0xSy/wifi_module_uart_01.c ****           memset(process_buffer,0x00,Fillptr);
 841              		.loc 1 446 0
 842 0066 9D4A     		ldr	r2, .L188
 843 0068 537A     		ldrb	r3, [r2, #9]	@ zero_extendqisi2
 844 006a 43F00403 		orr	r3, r3, #4
 845 006e 5372     		strb	r3, [r2, #9]
 447:Middlewares/ST/STM32_SPWF0xSy/wifi_module_uart_01.c ****           Fillptr=0;
 846              		.loc 1 447 0
 847 0070 9B4C     		ldr	r4, .L188+4
 848 0072 2268     		ldr	r2, [r4]
 849 0074 0021     		movs	r1, #0
 850 0076 9B48     		ldr	r0, .L188+8
 851 0078 FFF7FEFF 		bl	memset
 852              	.LVL79:
 448:Middlewares/ST/STM32_SPWF0xSy/wifi_module_uart_01.c ****           return;
 853              		.loc 1 448 0
 854 007c 0023     		movs	r3, #0
 855 007e 2360     		str	r3, [r4]
 449:Middlewares/ST/STM32_SPWF0xSy/wifi_module_uart_01.c ****         }
 856              		.loc 1 449 0
 857 0080 BDE8F087 		pop	{r4, r5, r6, r7, r8, r9, r10, pc}
 858              	.LVL80:
 859              	.L163:
 126:Middlewares/ST/STM32_SPWF0xSy/wifi_module_uart_01.c ****        && !WiFi_Control_Variables.enable_receive_http_response && !IO_status_flag.sock_read_ongoing
 860              		.loc 1 126 0 discriminator 1
 861 0084 631E     		subs	r3, r4, #1
 862 0086 D35C     		ldrb	r3, [r2, r3]	@ zero_extendqisi2
 863 0088 0A2B     		cmp	r3, #10
ARM GAS  D:\cygwin64\tmp\ccuGdUOt.s 			page 41


 864 008a D3D1     		bne	.L64
 127:Middlewares/ST/STM32_SPWF0xSy/wifi_module_uart_01.c ****       {
 865              		.loc 1 127 0
 866 008c 934B     		ldr	r3, .L188
 867 008e DF78     		ldrb	r7, [r3, #3]	@ zero_extendqisi2
 868 0090 17F0100F 		tst	r7, #16
 869 0094 CED1     		bne	.L64
 127:Middlewares/ST/STM32_SPWF0xSy/wifi_module_uart_01.c ****       {
 870              		.loc 1 127 0 is_stmt 0 discriminator 1
 871 0096 974B     		ldr	r3, .L188+24
 872 0098 1B78     		ldrb	r3, [r3]	@ zero_extendqisi2
 873 009a 13F0010F 		tst	r3, #1
 874 009e C9D1     		bne	.L64
 129:Middlewares/ST/STM32_SPWF0xSy/wifi_module_uart_01.c ****           {
 875              		.loc 1 129 0 is_stmt 1
 876 00a0 9549     		ldr	r1, .L188+28
 877 00a2 1046     		mov	r0, r2
 878 00a4 FFF7FEFF 		bl	strstr
 879              	.LVL81:
 880 00a8 0028     		cmp	r0, #0
 881 00aa 4CD0     		beq	.L65
 132:Middlewares/ST/STM32_SPWF0xSy/wifi_module_uart_01.c ****               #if defined (USE_STM32L0XX_NUCLEO) || (USE_STM32F4XX_NUCLEO) || (USE_STM32L4XX_NUCLEO
 882              		.loc 1 132 0
 883 00ac FFF7FEFF 		bl	Stop_Timer
 884              	.LVL82:
 885              	.LBB69:
 886              	.LBB70:
 887              		.file 2 "Drivers/CMSIS/Include/cmsis_gcc.h"
   1:Drivers/CMSIS/Include/cmsis_gcc.h **** /**************************************************************************//**
   2:Drivers/CMSIS/Include/cmsis_gcc.h ****  * @file     cmsis_gcc.h
   3:Drivers/CMSIS/Include/cmsis_gcc.h ****  * @brief    CMSIS compiler GCC header file
   4:Drivers/CMSIS/Include/cmsis_gcc.h ****  * @version  V5.0.4
   5:Drivers/CMSIS/Include/cmsis_gcc.h ****  * @date     09. April 2018
   6:Drivers/CMSIS/Include/cmsis_gcc.h ****  ******************************************************************************/
   7:Drivers/CMSIS/Include/cmsis_gcc.h **** /*
   8:Drivers/CMSIS/Include/cmsis_gcc.h ****  * Copyright (c) 2009-2018 Arm Limited. All rights reserved.
   9:Drivers/CMSIS/Include/cmsis_gcc.h ****  *
  10:Drivers/CMSIS/Include/cmsis_gcc.h ****  * SPDX-License-Identifier: Apache-2.0
  11:Drivers/CMSIS/Include/cmsis_gcc.h ****  *
  12:Drivers/CMSIS/Include/cmsis_gcc.h ****  * Licensed under the Apache License, Version 2.0 (the License); you may
  13:Drivers/CMSIS/Include/cmsis_gcc.h ****  * not use this file except in compliance with the License.
  14:Drivers/CMSIS/Include/cmsis_gcc.h ****  * You may obtain a copy of the License at
  15:Drivers/CMSIS/Include/cmsis_gcc.h ****  *
  16:Drivers/CMSIS/Include/cmsis_gcc.h ****  * www.apache.org/licenses/LICENSE-2.0
  17:Drivers/CMSIS/Include/cmsis_gcc.h ****  *
  18:Drivers/CMSIS/Include/cmsis_gcc.h ****  * Unless required by applicable law or agreed to in writing, software
  19:Drivers/CMSIS/Include/cmsis_gcc.h ****  * distributed under the License is distributed on an AS IS BASIS, WITHOUT
  20:Drivers/CMSIS/Include/cmsis_gcc.h ****  * WARRANTIES OR CONDITIONS OF ANY KIND, either express or implied.
  21:Drivers/CMSIS/Include/cmsis_gcc.h ****  * See the License for the specific language governing permissions and
  22:Drivers/CMSIS/Include/cmsis_gcc.h ****  * limitations under the License.
  23:Drivers/CMSIS/Include/cmsis_gcc.h ****  */
  24:Drivers/CMSIS/Include/cmsis_gcc.h **** 
  25:Drivers/CMSIS/Include/cmsis_gcc.h **** #ifndef __CMSIS_GCC_H
  26:Drivers/CMSIS/Include/cmsis_gcc.h **** #define __CMSIS_GCC_H
  27:Drivers/CMSIS/Include/cmsis_gcc.h **** 
  28:Drivers/CMSIS/Include/cmsis_gcc.h **** /* ignore some GCC warnings */
  29:Drivers/CMSIS/Include/cmsis_gcc.h **** #pragma GCC diagnostic push
ARM GAS  D:\cygwin64\tmp\ccuGdUOt.s 			page 42


  30:Drivers/CMSIS/Include/cmsis_gcc.h **** #pragma GCC diagnostic ignored "-Wsign-conversion"
  31:Drivers/CMSIS/Include/cmsis_gcc.h **** #pragma GCC diagnostic ignored "-Wconversion"
  32:Drivers/CMSIS/Include/cmsis_gcc.h **** #pragma GCC diagnostic ignored "-Wunused-parameter"
  33:Drivers/CMSIS/Include/cmsis_gcc.h **** 
  34:Drivers/CMSIS/Include/cmsis_gcc.h **** /* Fallback for __has_builtin */
  35:Drivers/CMSIS/Include/cmsis_gcc.h **** #ifndef __has_builtin
  36:Drivers/CMSIS/Include/cmsis_gcc.h ****   #define __has_builtin(x) (0)
  37:Drivers/CMSIS/Include/cmsis_gcc.h **** #endif
  38:Drivers/CMSIS/Include/cmsis_gcc.h **** 
  39:Drivers/CMSIS/Include/cmsis_gcc.h **** /* CMSIS compiler specific defines */
  40:Drivers/CMSIS/Include/cmsis_gcc.h **** #ifndef   __ASM
  41:Drivers/CMSIS/Include/cmsis_gcc.h ****   #define __ASM                                  __asm
  42:Drivers/CMSIS/Include/cmsis_gcc.h **** #endif
  43:Drivers/CMSIS/Include/cmsis_gcc.h **** #ifndef   __INLINE
  44:Drivers/CMSIS/Include/cmsis_gcc.h ****   #define __INLINE                               inline
  45:Drivers/CMSIS/Include/cmsis_gcc.h **** #endif
  46:Drivers/CMSIS/Include/cmsis_gcc.h **** #ifndef   __STATIC_INLINE
  47:Drivers/CMSIS/Include/cmsis_gcc.h ****   #define __STATIC_INLINE                        static inline
  48:Drivers/CMSIS/Include/cmsis_gcc.h **** #endif
  49:Drivers/CMSIS/Include/cmsis_gcc.h **** #ifndef   __STATIC_FORCEINLINE                 
  50:Drivers/CMSIS/Include/cmsis_gcc.h ****   #define __STATIC_FORCEINLINE                   __attribute__((always_inline)) static inline
  51:Drivers/CMSIS/Include/cmsis_gcc.h **** #endif                                           
  52:Drivers/CMSIS/Include/cmsis_gcc.h **** #ifndef   __NO_RETURN
  53:Drivers/CMSIS/Include/cmsis_gcc.h ****   #define __NO_RETURN                            __attribute__((__noreturn__))
  54:Drivers/CMSIS/Include/cmsis_gcc.h **** #endif
  55:Drivers/CMSIS/Include/cmsis_gcc.h **** #ifndef   __USED
  56:Drivers/CMSIS/Include/cmsis_gcc.h ****   #define __USED                                 __attribute__((used))
  57:Drivers/CMSIS/Include/cmsis_gcc.h **** #endif
  58:Drivers/CMSIS/Include/cmsis_gcc.h **** #ifndef   __WEAK
  59:Drivers/CMSIS/Include/cmsis_gcc.h ****   #define __WEAK                                 __attribute__((weak))
  60:Drivers/CMSIS/Include/cmsis_gcc.h **** #endif
  61:Drivers/CMSIS/Include/cmsis_gcc.h **** #ifndef   __PACKED
  62:Drivers/CMSIS/Include/cmsis_gcc.h ****   #define __PACKED                               __attribute__((packed, aligned(1)))
  63:Drivers/CMSIS/Include/cmsis_gcc.h **** #endif
  64:Drivers/CMSIS/Include/cmsis_gcc.h **** #ifndef   __PACKED_STRUCT
  65:Drivers/CMSIS/Include/cmsis_gcc.h ****   #define __PACKED_STRUCT                        struct __attribute__((packed, aligned(1)))
  66:Drivers/CMSIS/Include/cmsis_gcc.h **** #endif
  67:Drivers/CMSIS/Include/cmsis_gcc.h **** #ifndef   __PACKED_UNION
  68:Drivers/CMSIS/Include/cmsis_gcc.h ****   #define __PACKED_UNION                         union __attribute__((packed, aligned(1)))
  69:Drivers/CMSIS/Include/cmsis_gcc.h **** #endif
  70:Drivers/CMSIS/Include/cmsis_gcc.h **** #ifndef   __UNALIGNED_UINT32        /* deprecated */
  71:Drivers/CMSIS/Include/cmsis_gcc.h ****   #pragma GCC diagnostic push
  72:Drivers/CMSIS/Include/cmsis_gcc.h ****   #pragma GCC diagnostic ignored "-Wpacked"
  73:Drivers/CMSIS/Include/cmsis_gcc.h ****   #pragma GCC diagnostic ignored "-Wattributes"
  74:Drivers/CMSIS/Include/cmsis_gcc.h ****   struct __attribute__((packed)) T_UINT32 { uint32_t v; };
  75:Drivers/CMSIS/Include/cmsis_gcc.h ****   #pragma GCC diagnostic pop
  76:Drivers/CMSIS/Include/cmsis_gcc.h ****   #define __UNALIGNED_UINT32(x)                  (((struct T_UINT32 *)(x))->v)
  77:Drivers/CMSIS/Include/cmsis_gcc.h **** #endif
  78:Drivers/CMSIS/Include/cmsis_gcc.h **** #ifndef   __UNALIGNED_UINT16_WRITE
  79:Drivers/CMSIS/Include/cmsis_gcc.h ****   #pragma GCC diagnostic push
  80:Drivers/CMSIS/Include/cmsis_gcc.h ****   #pragma GCC diagnostic ignored "-Wpacked"
  81:Drivers/CMSIS/Include/cmsis_gcc.h ****   #pragma GCC diagnostic ignored "-Wattributes"
  82:Drivers/CMSIS/Include/cmsis_gcc.h ****   __PACKED_STRUCT T_UINT16_WRITE { uint16_t v; };
  83:Drivers/CMSIS/Include/cmsis_gcc.h ****   #pragma GCC diagnostic pop
  84:Drivers/CMSIS/Include/cmsis_gcc.h ****   #define __UNALIGNED_UINT16_WRITE(addr, val)    (void)((((struct T_UINT16_WRITE *)(void *)(addr))-
  85:Drivers/CMSIS/Include/cmsis_gcc.h **** #endif
  86:Drivers/CMSIS/Include/cmsis_gcc.h **** #ifndef   __UNALIGNED_UINT16_READ
ARM GAS  D:\cygwin64\tmp\ccuGdUOt.s 			page 43


  87:Drivers/CMSIS/Include/cmsis_gcc.h ****   #pragma GCC diagnostic push
  88:Drivers/CMSIS/Include/cmsis_gcc.h ****   #pragma GCC diagnostic ignored "-Wpacked"
  89:Drivers/CMSIS/Include/cmsis_gcc.h ****   #pragma GCC diagnostic ignored "-Wattributes"
  90:Drivers/CMSIS/Include/cmsis_gcc.h ****   __PACKED_STRUCT T_UINT16_READ { uint16_t v; };
  91:Drivers/CMSIS/Include/cmsis_gcc.h ****   #pragma GCC diagnostic pop
  92:Drivers/CMSIS/Include/cmsis_gcc.h ****   #define __UNALIGNED_UINT16_READ(addr)          (((const struct T_UINT16_READ *)(const void *)(add
  93:Drivers/CMSIS/Include/cmsis_gcc.h **** #endif
  94:Drivers/CMSIS/Include/cmsis_gcc.h **** #ifndef   __UNALIGNED_UINT32_WRITE
  95:Drivers/CMSIS/Include/cmsis_gcc.h ****   #pragma GCC diagnostic push
  96:Drivers/CMSIS/Include/cmsis_gcc.h ****   #pragma GCC diagnostic ignored "-Wpacked"
  97:Drivers/CMSIS/Include/cmsis_gcc.h ****   #pragma GCC diagnostic ignored "-Wattributes"
  98:Drivers/CMSIS/Include/cmsis_gcc.h ****   __PACKED_STRUCT T_UINT32_WRITE { uint32_t v; };
  99:Drivers/CMSIS/Include/cmsis_gcc.h ****   #pragma GCC diagnostic pop
 100:Drivers/CMSIS/Include/cmsis_gcc.h ****   #define __UNALIGNED_UINT32_WRITE(addr, val)    (void)((((struct T_UINT32_WRITE *)(void *)(addr))-
 101:Drivers/CMSIS/Include/cmsis_gcc.h **** #endif
 102:Drivers/CMSIS/Include/cmsis_gcc.h **** #ifndef   __UNALIGNED_UINT32_READ
 103:Drivers/CMSIS/Include/cmsis_gcc.h ****   #pragma GCC diagnostic push
 104:Drivers/CMSIS/Include/cmsis_gcc.h ****   #pragma GCC diagnostic ignored "-Wpacked"
 105:Drivers/CMSIS/Include/cmsis_gcc.h ****   #pragma GCC diagnostic ignored "-Wattributes"
 106:Drivers/CMSIS/Include/cmsis_gcc.h ****   __PACKED_STRUCT T_UINT32_READ { uint32_t v; };
 107:Drivers/CMSIS/Include/cmsis_gcc.h ****   #pragma GCC diagnostic pop
 108:Drivers/CMSIS/Include/cmsis_gcc.h ****   #define __UNALIGNED_UINT32_READ(addr)          (((const struct T_UINT32_READ *)(const void *)(add
 109:Drivers/CMSIS/Include/cmsis_gcc.h **** #endif
 110:Drivers/CMSIS/Include/cmsis_gcc.h **** #ifndef   __ALIGNED
 111:Drivers/CMSIS/Include/cmsis_gcc.h ****   #define __ALIGNED(x)                           __attribute__((aligned(x)))
 112:Drivers/CMSIS/Include/cmsis_gcc.h **** #endif
 113:Drivers/CMSIS/Include/cmsis_gcc.h **** #ifndef   __RESTRICT
 114:Drivers/CMSIS/Include/cmsis_gcc.h ****   #define __RESTRICT                             __restrict
 115:Drivers/CMSIS/Include/cmsis_gcc.h **** #endif
 116:Drivers/CMSIS/Include/cmsis_gcc.h **** 
 117:Drivers/CMSIS/Include/cmsis_gcc.h **** 
 118:Drivers/CMSIS/Include/cmsis_gcc.h **** /* ###########################  Core Function Access  ########################### */
 119:Drivers/CMSIS/Include/cmsis_gcc.h **** /** \ingroup  CMSIS_Core_FunctionInterface
 120:Drivers/CMSIS/Include/cmsis_gcc.h ****     \defgroup CMSIS_Core_RegAccFunctions CMSIS Core Register Access Functions
 121:Drivers/CMSIS/Include/cmsis_gcc.h ****   @{
 122:Drivers/CMSIS/Include/cmsis_gcc.h ****  */
 123:Drivers/CMSIS/Include/cmsis_gcc.h **** 
 124:Drivers/CMSIS/Include/cmsis_gcc.h **** /**
 125:Drivers/CMSIS/Include/cmsis_gcc.h ****   \brief   Enable IRQ Interrupts
 126:Drivers/CMSIS/Include/cmsis_gcc.h ****   \details Enables IRQ interrupts by clearing the I-bit in the CPSR.
 127:Drivers/CMSIS/Include/cmsis_gcc.h ****            Can only be executed in Privileged modes.
 128:Drivers/CMSIS/Include/cmsis_gcc.h ****  */
 129:Drivers/CMSIS/Include/cmsis_gcc.h **** __STATIC_FORCEINLINE void __enable_irq(void)
 130:Drivers/CMSIS/Include/cmsis_gcc.h **** {
 131:Drivers/CMSIS/Include/cmsis_gcc.h ****   __ASM volatile ("cpsie i" : : : "memory");
 132:Drivers/CMSIS/Include/cmsis_gcc.h **** }
 133:Drivers/CMSIS/Include/cmsis_gcc.h **** 
 134:Drivers/CMSIS/Include/cmsis_gcc.h **** 
 135:Drivers/CMSIS/Include/cmsis_gcc.h **** /**
 136:Drivers/CMSIS/Include/cmsis_gcc.h ****   \brief   Disable IRQ Interrupts
 137:Drivers/CMSIS/Include/cmsis_gcc.h ****   \details Disables IRQ interrupts by setting the I-bit in the CPSR.
 138:Drivers/CMSIS/Include/cmsis_gcc.h ****            Can only be executed in Privileged modes.
 139:Drivers/CMSIS/Include/cmsis_gcc.h ****  */
 140:Drivers/CMSIS/Include/cmsis_gcc.h **** __STATIC_FORCEINLINE void __disable_irq(void)
 141:Drivers/CMSIS/Include/cmsis_gcc.h **** {
 142:Drivers/CMSIS/Include/cmsis_gcc.h ****   __ASM volatile ("cpsid i" : : : "memory");
 888              		.loc 2 142 0
ARM GAS  D:\cygwin64\tmp\ccuGdUOt.s 			page 44


 889              		.syntax unified
 890              	@ 142 "Drivers/CMSIS/Include/cmsis_gcc.h" 1
 891 00b0 72B6     		cpsid i
 892              	@ 0 "" 2
 893              		.thumb
 894              		.syntax unified
 895              	.LBE70:
 896              	.LBE69:
 136:Middlewares/ST/STM32_SPWF0xSy/wifi_module_uart_01.c ****               #if defined (USE_STM32L0XX_NUCLEO) || (USE_STM32F4XX_NUCLEO) || (USE_STM32L4XX_NUCLEO
 897              		.loc 1 136 0
 898 00b2 8C48     		ldr	r0, .L188+8
 899 00b4 FFF7FEFF 		bl	Process_Wind_Indication
 900              	.LVL83:
 901              	.LBB71:
 902              	.LBB72:
 131:Drivers/CMSIS/Include/cmsis_gcc.h **** }
 903              		.loc 2 131 0
 904              		.syntax unified
 905              	@ 131 "Drivers/CMSIS/Include/cmsis_gcc.h" 1
 906 00b8 62B6     		cpsie i
 907              	@ 0 "" 2
 908              		.thumb
 909              		.syntax unified
 910              	.LBE72:
 911              	.LBE71:
 140:Middlewares/ST/STM32_SPWF0xSy/wifi_module_uart_01.c **** 
 912              		.loc 1 140 0
 913 00ba FFF7FEFF 		bl	Start_Timer
 914              	.LVL84:
 142:Middlewares/ST/STM32_SPWF0xSy/wifi_module_uart_01.c ****                 {
 915              		.loc 1 142 0
 916 00be 874B     		ldr	r3, .L188
 917 00c0 1B79     		ldrb	r3, [r3, #4]	@ zero_extendqisi2
 918 00c2 13F0010F 		tst	r3, #1
 919 00c6 23D0     		beq	.L164
 150:Middlewares/ST/STM32_SPWF0xSy/wifi_module_uart_01.c ****                 {
 920              		.loc 1 150 0
 921 00c8 844B     		ldr	r3, .L188
 922 00ca 1B78     		ldrb	r3, [r3]	@ zero_extendqisi2
 923 00cc 13F0020F 		tst	r3, #2
 924 00d0 2CD0     		beq	.L165
 925              	.L67:
 156:Middlewares/ST/STM32_SPWF0xSy/wifi_module_uart_01.c ****                 WiFi_Control_Variables.prevent_push_WIFI_event = WIFI_FALSE;
 926              		.loc 1 156 0
 927 00d2 824B     		ldr	r3, .L188
 928 00d4 1B79     		ldrb	r3, [r3, #4]	@ zero_extendqisi2
 929 00d6 13F0040F 		tst	r3, #4
 930 00da 04D1     		bne	.L68
 157:Middlewares/ST/STM32_SPWF0xSy/wifi_module_uart_01.c **** 
 931              		.loc 1 157 0
 932 00dc 7F4B     		ldr	r3, .L188
 933 00de 1A79     		ldrb	r2, [r3, #4]	@ zero_extendqisi2
 934 00e0 6FF30002 		bfc	r2, #0, #1
 935 00e4 1A71     		strb	r2, [r3, #4]
 936              	.L68:
 159:Middlewares/ST/STM32_SPWF0xSy/wifi_module_uart_01.c ****               if(WiFi_Control_Variables.enable_sock_read && WiFi_Control_Variables.Q_Contains_Messa
 937              		.loc 1 159 0
ARM GAS  D:\cygwin64\tmp\ccuGdUOt.s 			page 45


 938 00e6 0022     		movs	r2, #0
 939 00e8 7D4B     		ldr	r3, .L188+4
 940 00ea 1A60     		str	r2, [r3]
 160:Middlewares/ST/STM32_SPWF0xSy/wifi_module_uart_01.c ****                 WiFi_Control_Variables.Q_Contains_Message = WIFI_FALSE;
 941              		.loc 1 160 0
 942 00ec 7B4B     		ldr	r3, .L188
 943 00ee 9B78     		ldrb	r3, [r3, #2]	@ zero_extendqisi2
 944 00f0 13F0200F 		tst	r3, #32
 945 00f4 00F06586 		beq	.L62
 160:Middlewares/ST/STM32_SPWF0xSy/wifi_module_uart_01.c ****                 WiFi_Control_Variables.Q_Contains_Message = WIFI_FALSE;
 946              		.loc 1 160 0 is_stmt 0 discriminator 1
 947 00f8 784B     		ldr	r3, .L188
 948 00fa DB78     		ldrb	r3, [r3, #3]	@ zero_extendqisi2
 949 00fc 13F0080F 		tst	r3, #8
 950 0100 00F05F86 		beq	.L62
 161:Middlewares/ST/STM32_SPWF0xSy/wifi_module_uart_01.c ****               else
 951              		.loc 1 161 0 is_stmt 1
 952 0104 754B     		ldr	r3, .L188
 953 0106 DA78     		ldrb	r2, [r3, #3]	@ zero_extendqisi2
 954 0108 6FF3C302 		bfc	r2, #3, #1
 955 010c DA70     		strb	r2, [r3, #3]
 956 010e 5BE3     		b	.L70
 957              	.L164:
 958              	.LBB73:
 959              	.LBB74:
 960              		.loc 2 142 0
 961              		.syntax unified
 962              	@ 142 "Drivers/CMSIS/Include/cmsis_gcc.h" 1
 963 0110 72B6     		cpsid i
 964              	@ 0 "" 2
 965              		.thumb
 966              		.syntax unified
 967              	.LBE74:
 968              	.LBE73:
 145:Middlewares/ST/STM32_SPWF0xSy/wifi_module_uart_01.c ****                      __enable_irq();
 969              		.loc 1 145 0
 970 0112 7A48     		ldr	r0, .L188+32
 971 0114 00F12004 		add	r4, r0, #32
 972 0118 94E80600 		ldm	r4, {r1, r2}
 973 011c 1430     		adds	r0, r0, #20
 974 011e FFF7FEFF 		bl	push_eventbuffer_queue
 975              	.LVL85:
 976              	.LBB75:
 977              	.LBB76:
 131:Drivers/CMSIS/Include/cmsis_gcc.h **** }
 978              		.loc 2 131 0
 979              		.syntax unified
 980              	@ 131 "Drivers/CMSIS/Include/cmsis_gcc.h" 1
 981 0122 62B6     		cpsie i
 982              	@ 0 "" 2
 983              		.thumb
 984              		.syntax unified
 985              	.LBE76:
 986              	.LBE75:
 147:Middlewares/ST/STM32_SPWF0xSy/wifi_module_uart_01.c ****                 }
 987              		.loc 1 147 0
 988 0124 2046     		mov	r0, r4
ARM GAS  D:\cygwin64\tmp\ccuGdUOt.s 			page 46


 989 0126 FFF7FEFF 		bl	reset_event
 990              	.LVL86:
 991 012a D2E7     		b	.L67
 992              	.L165:
 152:Middlewares/ST/STM32_SPWF0xSy/wifi_module_uart_01.c ****                     WiFi_Control_Variables.prevent_push_WIFI_event = WIFI_FALSE;
 993              		.loc 1 152 0
 994 012c 6E48     		ldr	r0, .L188+12
 995 012e FFF7FEFF 		bl	reset_event
 996              	.LVL87:
 153:Middlewares/ST/STM32_SPWF0xSy/wifi_module_uart_01.c ****                     WiFi_Control_Variables.queue_wifi_wind_message = WIFI_TRUE;
 997              		.loc 1 153 0
 998 0132 6A4B     		ldr	r3, .L188
 999 0134 1A79     		ldrb	r2, [r3, #4]	@ zero_extendqisi2
 1000 0136 6FF30002 		bfc	r2, #0, #1
 1001 013a 1A71     		strb	r2, [r3, #4]
 154:Middlewares/ST/STM32_SPWF0xSy/wifi_module_uart_01.c ****                 }
 1002              		.loc 1 154 0
 1003 013c 1A78     		ldrb	r2, [r3]	@ zero_extendqisi2
 1004 013e 42F00202 		orr	r2, r2, #2
 1005 0142 1A70     		strb	r2, [r3]
 1006 0144 C5E7     		b	.L67
 1007              	.L65:
 166:Middlewares/ST/STM32_SPWF0xSy/wifi_module_uart_01.c ****           {
 1008              		.loc 1 166 0
 1009 0146 6E49     		ldr	r1, .L188+36
 1010 0148 6648     		ldr	r0, .L188+8
 1011 014a FFF7FEFF 		bl	strstr
 1012              	.LVL88:
 1013 014e 0028     		cmp	r0, #0
 1014 0150 00F03981 		beq	.L71
 171:Middlewares/ST/STM32_SPWF0xSy/wifi_module_uart_01.c ****                 {
 1015              		.loc 1 171 0
 1016 0154 6B49     		ldr	r1, .L188+40
 1017 0156 6348     		ldr	r0, .L188+8
 1018 0158 FFF7FEFF 		bl	strstr
 1019              	.LVL89:
 1020 015c 0028     		cmp	r0, #0
 1021 015e 36D0     		beq	.L72
 173:Middlewares/ST/STM32_SPWF0xSy/wifi_module_uart_01.c ****                     SocketId_No[1]    = *(pStr + 5) ;
 1022              		.loc 1 173 0
 1023 0160 0379     		ldrb	r3, [r0, #4]	@ zero_extendqisi2
 174:Middlewares/ST/STM32_SPWF0xSy/wifi_module_uart_01.c ****                     wifi_instances.wifi_event.socket_id = (((SocketId_No[0] - '0') * 10 ) + (Socket
 1024              		.loc 1 174 0
 1025 0162 4279     		ldrb	r2, [r0, #5]	@ zero_extendqisi2
 175:Middlewares/ST/STM32_SPWF0xSy/wifi_module_uart_01.c ****                     wifi_instances.wifi_event.event     =  WIFI_SOCK_ID_EVENT;
 1026              		.loc 1 175 0
 1027 0164 303B     		subs	r3, r3, #48
 1028 0166 03EB8303 		add	r3, r3, r3, lsl #2
 1029 016a 02EB4303 		add	r3, r2, r3, lsl #1
 1030 016e 6348     		ldr	r0, .L188+32
 1031              	.LVL90:
 1032 0170 90F82120 		ldrb	r2, [r0, #33]	@ zero_extendqisi2
 1033 0174 63F30302 		bfi	r2, r3, #0, #4
 1034 0178 80F82120 		strb	r2, [r0, #33]
 176:Middlewares/ST/STM32_SPWF0xSy/wifi_module_uart_01.c ****                     __disable_irq();
 1035              		.loc 1 176 0
 1036 017c 0F23     		movs	r3, #15
ARM GAS  D:\cygwin64\tmp\ccuGdUOt.s 			page 47


 1037 017e 80F82630 		strb	r3, [r0, #38]
 1038              	.LBB77:
 1039              	.LBB78:
 1040              		.loc 2 142 0
 1041              		.syntax unified
 1042              	@ 142 "Drivers/CMSIS/Include/cmsis_gcc.h" 1
 1043 0182 72B6     		cpsid i
 1044              	@ 0 "" 2
 1045              		.thumb
 1046              		.syntax unified
 1047              	.LBE78:
 1048              	.LBE77:
 178:Middlewares/ST/STM32_SPWF0xSy/wifi_module_uart_01.c ****                      __enable_irq();
 1049              		.loc 1 178 0
 1050 0184 00F12004 		add	r4, r0, #32
 1051 0188 94E80600 		ldm	r4, {r1, r2}
 1052 018c 1430     		adds	r0, r0, #20
 1053 018e FFF7FEFF 		bl	push_eventbuffer_queue
 1054              	.LVL91:
 1055              	.LBB79:
 1056              	.LBB80:
 131:Drivers/CMSIS/Include/cmsis_gcc.h **** }
 1057              		.loc 2 131 0
 1058              		.syntax unified
 1059              	@ 131 "Drivers/CMSIS/Include/cmsis_gcc.h" 1
 1060 0192 62B6     		cpsie i
 1061              	@ 0 "" 2
 1062              		.thumb
 1063              		.syntax unified
 1064              	.LBE80:
 1065              	.LBE79:
 180:Middlewares/ST/STM32_SPWF0xSy/wifi_module_uart_01.c ****                  }
 1066              		.loc 1 180 0
 1067 0194 2046     		mov	r0, r4
 1068 0196 FFF7FEFF 		bl	reset_event
 1069              	.LVL92:
 1070              	.L73:
 285:Middlewares/ST/STM32_SPWF0xSy/wifi_module_uart_01.c ****               memset(process_buffer, 0x00, MAX_BUFFER_GLOBAL);
 1071              		.loc 1 285 0
 1072 019a 0021     		movs	r1, #0
 1073 019c 504B     		ldr	r3, .L188+4
 1074 019e 1960     		str	r1, [r3]
 286:Middlewares/ST/STM32_SPWF0xSy/wifi_module_uart_01.c **** 
 1075              		.loc 1 286 0
 1076 01a0 4FF40072 		mov	r2, #512
 1077 01a4 4F48     		ldr	r0, .L188+8
 1078 01a6 FFF7FEFF 		bl	memset
 1079              	.LVL93:
 288:Middlewares/ST/STM32_SPWF0xSy/wifi_module_uart_01.c ****                 WiFi_Control_Variables.Q_Contains_Message = WIFI_FALSE;
 1080              		.loc 1 288 0
 1081 01aa 4C4B     		ldr	r3, .L188
 1082 01ac 9B78     		ldrb	r3, [r3, #2]	@ zero_extendqisi2
 1083 01ae 13F0200F 		tst	r3, #32
 1084 01b2 00F00686 		beq	.L62
 288:Middlewares/ST/STM32_SPWF0xSy/wifi_module_uart_01.c ****                 WiFi_Control_Variables.Q_Contains_Message = WIFI_FALSE;
 1085              		.loc 1 288 0 is_stmt 0 discriminator 1
 1086 01b6 494B     		ldr	r3, .L188
ARM GAS  D:\cygwin64\tmp\ccuGdUOt.s 			page 48


 1087 01b8 DB78     		ldrb	r3, [r3, #3]	@ zero_extendqisi2
 1088 01ba 13F0080F 		tst	r3, #8
 1089 01be 00F00086 		beq	.L62
 289:Middlewares/ST/STM32_SPWF0xSy/wifi_module_uart_01.c ****               else
 1090              		.loc 1 289 0 is_stmt 1
 1091 01c2 464B     		ldr	r3, .L188
 1092 01c4 DA78     		ldrb	r2, [r3, #3]	@ zero_extendqisi2
 1093 01c6 6FF3C302 		bfc	r2, #3, #1
 1094 01ca DA70     		strb	r2, [r3, #3]
 1095 01cc FCE2     		b	.L70
 1096              	.LVL94:
 1097              	.L72:
 184:Middlewares/ST/STM32_SPWF0xSy/wifi_module_uart_01.c ****                  {
 1098              		.loc 1 184 0
 1099 01ce 4E49     		ldr	r1, .L188+44
 1100 01d0 4448     		ldr	r0, .L188+8
 1101              	.LVL95:
 1102 01d2 FFF7FEFF 		bl	strstr
 1103              	.LVL96:
 1104 01d6 0028     		cmp	r0, #0
 1105 01d8 5ED0     		beq	.L74
 187:Middlewares/ST/STM32_SPWF0xSy/wifi_module_uart_01.c ****                     databytes_No[1] = *(pStr + 10);
 1106              		.loc 1 187 0
 1107 01da 437A     		ldrb	r3, [r0, #9]	@ zero_extendqisi2
 188:Middlewares/ST/STM32_SPWF0xSy/wifi_module_uart_01.c ****                     databytes_No[2] = *(pStr + 11);
 1108              		.loc 1 188 0
 1109 01dc 817A     		ldrb	r1, [r0, #10]	@ zero_extendqisi2
 189:Middlewares/ST/STM32_SPWF0xSy/wifi_module_uart_01.c ****                     databytes_No[3] = *(pStr + 12);
 1110              		.loc 1 189 0
 1111 01de C27A     		ldrb	r2, [r0, #11]	@ zero_extendqisi2
 190:Middlewares/ST/STM32_SPWF0xSy/wifi_module_uart_01.c **** 
 1112              		.loc 1 190 0
 1113 01e0 007B     		ldrb	r0, [r0, #12]	@ zero_extendqisi2
 1114              	.LVL97:
 192:Middlewares/ST/STM32_SPWF0xSy/wifi_module_uart_01.c ****                       {
 1115              		.loc 1 192 0
 1116 01e2 0D29     		cmp	r1, #13
 1117 01e4 1FD0     		beq	.L166
 196:Middlewares/ST/STM32_SPWF0xSy/wifi_module_uart_01.c ****                       {
 1118              		.loc 1 196 0
 1119 01e6 0D2A     		cmp	r2, #13
 1120 01e8 22D0     		beq	.L167
 200:Middlewares/ST/STM32_SPWF0xSy/wifi_module_uart_01.c ****                       {
 1121              		.loc 1 200 0
 1122 01ea 0D28     		cmp	r0, #13
 1123 01ec 29D0     		beq	.L168
 206:Middlewares/ST/STM32_SPWF0xSy/wifi_module_uart_01.c ****                       }
 1124              		.loc 1 206 0
 1125 01ee 303B     		subs	r3, r3, #48
 1126 01f0 3039     		subs	r1, r1, #48
 1127 01f2 6424     		movs	r4, #100
 1128 01f4 04FB01F1 		mul	r1, r4, r1
 1129 01f8 4FF47A74 		mov	r4, #1000
 1130 01fc 04FB0313 		mla	r3, r4, r3, r1
 1131 0200 303A     		subs	r2, r2, #48
 1132 0202 0A21     		movs	r1, #10
 1133 0204 01FB0233 		mla	r3, r1, r2, r3
ARM GAS  D:\cygwin64\tmp\ccuGdUOt.s 			page 49


 1134 0208 3038     		subs	r0, r0, #48
 1135 020a 0344     		add	r3, r3, r0
 1136 020c 3F4A     		ldr	r2, .L188+48
 1137 020e C2F8A030 		str	r3, [r2, #160]
 1138              	.L76:
 208:Middlewares/ST/STM32_SPWF0xSy/wifi_module_uart_01.c ****                       {
 1139              		.loc 1 208 0
 1140 0212 3E4B     		ldr	r3, .L188+48
 1141 0214 D3F8A030 		ldr	r3, [r3, #160]
 1142 0218 0BB3     		cbz	r3, .L79
 210:Middlewares/ST/STM32_SPWF0xSy/wifi_module_uart_01.c ****                       }
 1143              		.loc 1 210 0
 1144 021a 304A     		ldr	r2, .L188
 1145 021c 5378     		ldrb	r3, [r2, #1]	@ zero_extendqisi2
 1146 021e 43F08003 		orr	r3, r3, #128
 1147 0222 5370     		strb	r3, [r2, #1]
 1148 0224 B9E7     		b	.L73
 1149              	.L166:
 194:Middlewares/ST/STM32_SPWF0xSy/wifi_module_uart_01.c ****                       }
 1150              		.loc 1 194 0
 1151 0226 303B     		subs	r3, r3, #48
 1152 0228 384A     		ldr	r2, .L188+48
 1153 022a C2F8A030 		str	r3, [r2, #160]
 1154 022e F0E7     		b	.L76
 1155              	.L167:
 198:Middlewares/ST/STM32_SPWF0xSy/wifi_module_uart_01.c ****                       }
 1156              		.loc 1 198 0
 1157 0230 303B     		subs	r3, r3, #48
 1158 0232 3039     		subs	r1, r1, #48
 1159 0234 0A22     		movs	r2, #10
 1160 0236 02FB0313 		mla	r3, r2, r3, r1
 1161 023a 344A     		ldr	r2, .L188+48
 1162 023c C2F8A030 		str	r3, [r2, #160]
 1163 0240 E7E7     		b	.L76
 1164              	.L168:
 202:Middlewares/ST/STM32_SPWF0xSy/wifi_module_uart_01.c ****                       }
 1165              		.loc 1 202 0
 1166 0242 303B     		subs	r3, r3, #48
 1167 0244 3039     		subs	r1, r1, #48
 1168 0246 0A20     		movs	r0, #10
 1169 0248 00FB01F1 		mul	r1, r0, r1
 1170 024c 6420     		movs	r0, #100
 1171 024e 00FB0313 		mla	r3, r0, r3, r1
 1172 0252 303A     		subs	r2, r2, #48
 1173 0254 1344     		add	r3, r3, r2
 1174 0256 2D4A     		ldr	r2, .L188+48
 1175 0258 C2F8A030 		str	r3, [r2, #160]
 1176 025c D9E7     		b	.L76
 1177              	.L79:
 214:Middlewares/ST/STM32_SPWF0xSy/wifi_module_uart_01.c ****                           {
 1178              		.loc 1 214 0
 1179 025e 2B4B     		ldr	r3, .L188+48
 1180 0260 1878     		ldrb	r0, [r3]	@ zero_extendqisi2
 1181 0262 C0F3C200 		ubfx	r0, r0, #3, #3
 1182 0266 0344     		add	r3, r3, r0
 1183 0268 93F8E930 		ldrb	r3, [r3, #233]	@ zero_extendqisi2
 1184 026c 53B1     		cbz	r3, .L80
ARM GAS  D:\cygwin64\tmp\ccuGdUOt.s 			page 50


 217:Middlewares/ST/STM32_SPWF0xSy/wifi_module_uart_01.c ****                               {
 1185              		.loc 1 217 0
 1186 026e 284B     		ldr	r3, .L188+52
 1187 0270 1B5C     		ldrb	r3, [r3, r0]	@ zero_extendqisi2
 1188 0272 6BB9     		cbnz	r3, .L169
 1189              	.L81:
 221:Middlewares/ST/STM32_SPWF0xSy/wifi_module_uart_01.c ****                           }
 1190              		.loc 1 221 0
 1191 0274 254B     		ldr	r3, .L188+48
 1192 0276 1A78     		ldrb	r2, [r3]	@ zero_extendqisi2
 1193 0278 C2F3C202 		ubfx	r2, r2, #3, #3
 1194 027c 1344     		add	r3, r3, r2
 1195 027e 0022     		movs	r2, #0
 1196 0280 83F8E920 		strb	r2, [r3, #233]
 1197              	.L80:
 223:Middlewares/ST/STM32_SPWF0xSy/wifi_module_uart_01.c ****                       }
 1198              		.loc 1 223 0
 1199 0284 154B     		ldr	r3, .L188
 1200 0286 1A78     		ldrb	r2, [r3]	@ zero_extendqisi2
 1201 0288 6FF3C302 		bfc	r2, #3, #1
 1202 028c 1A70     		strb	r2, [r3]
 1203 028e 84E7     		b	.L73
 1204              	.L169:
 219:Middlewares/ST/STM32_SPWF0xSy/wifi_module_uart_01.c ****                               }
 1205              		.loc 1 219 0
 1206 0290 0221     		movs	r1, #2
 1207 0292 FFF7FEFF 		bl	Queue_Client_Close_Event
 1208              	.LVL98:
 1209 0296 EDE7     		b	.L81
 1210              	.LVL99:
 1211              	.L74:
 227:Middlewares/ST/STM32_SPWF0xSy/wifi_module_uart_01.c ****                  {
 1212              		.loc 1 227 0
 1213 0298 1E49     		ldr	r1, .L188+56
 1214 029a 1248     		ldr	r0, .L188+8
 1215              	.LVL100:
 1216 029c FFF7FEFF 		bl	strstr
 1217              	.LVL101:
 1218 02a0 0028     		cmp	r0, #0
 1219 02a2 3BD0     		beq	.L82
 230:Middlewares/ST/STM32_SPWF0xSy/wifi_module_uart_01.c ****                     //we need to copy only the value in get_cfg_value variable
 1220              		.loc 1 230 0
 1221 02a4 154D     		ldr	r5, .L188+32
 1222 02a6 0322     		movs	r2, #3
 1223 02a8 85F82620 		strb	r2, [r5, #38]
 232:Middlewares/ST/STM32_SPWF0xSy/wifi_module_uart_01.c ****                     __disable_irq();
 1224              		.loc 1 232 0
 1225 02ac 8418     		adds	r4, r0, r2
 1226 02ae FFF7FEFF 		bl	strlen
 1227              	.LVL102:
 1228 02b2 A0F10B02 		sub	r2, r0, #11
 1229 02b6 2146     		mov	r1, r4
 1230 02b8 1748     		ldr	r0, .L188+60
 1231 02ba FFF7FEFF 		bl	memcpy
 1232              	.LVL103:
 1233              	.LBB81:
 1234              	.LBB82:
ARM GAS  D:\cygwin64\tmp\ccuGdUOt.s 			page 51


 1235              		.loc 2 142 0
 1236              		.syntax unified
 1237              	@ 142 "Drivers/CMSIS/Include/cmsis_gcc.h" 1
 1238 02be 72B6     		cpsid i
 1239              	@ 0 "" 2
 1240              		.thumb
 1241              		.syntax unified
 1242              	.LBE82:
 1243              	.LBE81:
 234:Middlewares/ST/STM32_SPWF0xSy/wifi_module_uart_01.c ****                      __enable_irq();
 1244              		.loc 1 234 0
 1245 02c0 05F12004 		add	r4, r5, #32
 1246              	.LVL104:
 1247 02c4 94E80600 		ldm	r4, {r1, r2}
 1248 02c8 05F11400 		add	r0, r5, #20
 1249 02cc FFF7FEFF 		bl	push_eventbuffer_queue
 1250              	.LVL105:
 1251              	.LBB83:
 1252              	.LBB84:
 131:Drivers/CMSIS/Include/cmsis_gcc.h **** }
 1253              		.loc 2 131 0
 1254              		.syntax unified
 1255              	@ 131 "Drivers/CMSIS/Include/cmsis_gcc.h" 1
 1256 02d0 62B6     		cpsie i
 1257              	@ 0 "" 2
 1258              		.thumb
 1259              		.syntax unified
 1260              	.LBE84:
 1261              	.LBE83:
 236:Middlewares/ST/STM32_SPWF0xSy/wifi_module_uart_01.c ****                  }
 1262              		.loc 1 236 0
 1263 02d2 2046     		mov	r0, r4
 1264 02d4 FFF7FEFF 		bl	reset_event
 1265              	.LVL106:
 1266 02d8 5FE7     		b	.L73
 1267              	.L189:
 1268 02da 00BF     		.align	2
 1269              	.L188:
 1270 02dc 00000000 		.word	WiFi_Control_Variables
 1271 02e0 00000000 		.word	.LANCHOR0
 1272 02e4 00000000 		.word	.LANCHOR1
 1273 02e8 20000000 		.word	wifi_instances+32
 1274 02ec FC000000 		.word	.LC20
 1275 02f0 08010000 		.word	.LC21
 1276 02f4 00000000 		.word	IO_status_flag
 1277 02f8 00000000 		.word	.LC1
 1278 02fc 00000000 		.word	wifi_instances
 1279 0300 00000000 		.word	.LC6
 1280 0304 08000000 		.word	.LC7
 1281 0308 10000000 		.word	.LC8
 1282 030c 00000000 		.word	WiFi_Counter_Variables
 1283 0310 00000000 		.word	open_sockets
 1284 0314 1C000000 		.word	.LC9
 1285 0318 0E000000 		.word	WiFi_Counter_Variables+14
 1286              	.LVL107:
 1287              	.L82:
 249:Middlewares/ST/STM32_SPWF0xSy/wifi_module_uart_01.c ****                       {
ARM GAS  D:\cygwin64\tmp\ccuGdUOt.s 			page 52


 1288              		.loc 1 249 0
 1289 031c 9C4B     		ldr	r3, .L190
 1290 031e 1B78     		ldrb	r3, [r3]	@ zero_extendqisi2
 1291 0320 13F0020F 		tst	r3, #2
 1292 0324 3ED0     		beq	.L83
 252:Middlewares/ST/STM32_SPWF0xSy/wifi_module_uart_01.c ****                             {
 1293              		.loc 1 252 0
 1294 0326 9A4B     		ldr	r3, .L190
 1295 0328 5B78     		ldrb	r3, [r3, #1]	@ zero_extendqisi2
 1296 032a 13F0100F 		tst	r3, #16
 1297 032e 2DD0     		beq	.L84
 254:Middlewares/ST/STM32_SPWF0xSy/wifi_module_uart_01.c ****                                   WiFi_Counter_Variables.no_of_open_client_sockets--;
 1298              		.loc 1 254 0
 1299 0330 984B     		ldr	r3, .L190+4
 1300 0332 DB79     		ldrb	r3, [r3, #7]	@ zero_extendqisi2
 1301 0334 C3F3C203 		ubfx	r3, r3, #3, #3
 1302 0338 2BB1     		cbz	r3, .L85
 255:Middlewares/ST/STM32_SPWF0xSy/wifi_module_uart_01.c ****                                 IO_status_flag.prevent_push_OK_event                         = WIFI
 1303              		.loc 1 255 0
 1304 033a 964A     		ldr	r2, .L190+4
 1305 033c 0733     		adds	r3, r3, #7
 1306 033e D179     		ldrb	r1, [r2, #7]	@ zero_extendqisi2
 1307 0340 63F3C501 		bfi	r1, r3, #3, #3
 1308 0344 D171     		strb	r1, [r2, #7]
 1309              	.L85:
 256:Middlewares/ST/STM32_SPWF0xSy/wifi_module_uart_01.c ****                                 open_sockets[WiFi_Counter_Variables.remote_socket_closed_id] = WIFI
 1310              		.loc 1 256 0
 1311 0346 924B     		ldr	r3, .L190
 1312 0348 1A78     		ldrb	r2, [r3]	@ zero_extendqisi2
 1313 034a 6FF34102 		bfc	r2, #1, #1
 1314 034e 1A70     		strb	r2, [r3]
 257:Middlewares/ST/STM32_SPWF0xSy/wifi_module_uart_01.c ****                                 //socket ID for which OK is received.
 1315              		.loc 1 257 0
 1316 0350 9048     		ldr	r0, .L190+4
 1317              	.LVL108:
 1318 0352 4279     		ldrb	r2, [r0, #5]	@ zero_extendqisi2
 1319 0354 C2F30302 		ubfx	r2, r2, #0, #4
 1320 0358 D4B2     		uxtb	r4, r2
 1321 035a 0021     		movs	r1, #0
 1322 035c 8E4D     		ldr	r5, .L190+8
 1323 035e 2955     		strb	r1, [r5, r4]
 259:Middlewares/ST/STM32_SPWF0xSy/wifi_module_uart_01.c ****                                 IO_status_flag.client_socket_close_ongoing                   = WIFI
 1324              		.loc 1 259 0
 1325 0360 0271     		strb	r2, [r0, #4]
 260:Middlewares/ST/STM32_SPWF0xSy/wifi_module_uart_01.c ****                                 IO_status_flag.client_socket_close_type                      = NET_
 1326              		.loc 1 260 0
 1327 0362 5A78     		ldrb	r2, [r3, #1]	@ zero_extendqisi2
 1328 0364 61F30412 		bfi	r2, r1, #4, #1
 1329 0368 5A70     		strb	r2, [r3, #1]
 261:Middlewares/ST/STM32_SPWF0xSy/wifi_module_uart_01.c **** 
 1330              		.loc 1 261 0
 1331 036a 0222     		movs	r2, #2
 1332 036c DA74     		strb	r2, [r3, #19]
 264:Middlewares/ST/STM32_SPWF0xSy/wifi_module_uart_01.c ****                                   {
 1333              		.loc 1 264 0
 1334 036e 8B4B     		ldr	r3, .L190+12
 1335 0370 9B79     		ldrb	r3, [r3, #6]	@ zero_extendqisi2
ARM GAS  D:\cygwin64\tmp\ccuGdUOt.s 			page 53


 1336 0372 13F0040F 		tst	r3, #4
 1337 0376 0FD0     		beq	.L86
 267:Middlewares/ST/STM32_SPWF0xSy/wifi_module_uart_01.c ****                                   }
 1338              		.loc 1 267 0
 1339 0378 884A     		ldr	r2, .L190+12
 1340 037a 1379     		ldrb	r3, [r2, #4]	@ zero_extendqisi2
 1341 037c 43F04003 		orr	r3, r3, #64
 1342 0380 1371     		strb	r3, [r2, #4]
 1343              	.L87:
 271:Middlewares/ST/STM32_SPWF0xSy/wifi_module_uart_01.c ****                             }
 1344              		.loc 1 271 0
 1345 0382 864B     		ldr	r3, .L190+12
 1346 0384 1A78     		ldrb	r2, [r3]	@ zero_extendqisi2
 1347 0386 6FF3C302 		bfc	r2, #3, #1
 1348 038a 1A70     		strb	r2, [r3]
 1349              	.L84:
 283:Middlewares/ST/STM32_SPWF0xSy/wifi_module_uart_01.c ****                  }
 1350              		.loc 1 283 0
 1351 038c 804A     		ldr	r2, .L190
 1352 038e 1378     		ldrb	r3, [r2]	@ zero_extendqisi2
 1353 0390 6FF34103 		bfc	r3, #1, #1
 1354 0394 1370     		strb	r3, [r2]
 1355 0396 00E7     		b	.L73
 1356              	.L86:
 270:Middlewares/ST/STM32_SPWF0xSy/wifi_module_uart_01.c ****                                 WiFi_Control_Variables.stop_event_dequeue                        = 
 1357              		.loc 1 270 0
 1358 0398 804A     		ldr	r2, .L190+12
 1359 039a 9379     		ldrb	r3, [r2, #6]	@ zero_extendqisi2
 1360 039c 43F00403 		orr	r3, r3, #4
 1361 03a0 9371     		strb	r3, [r2, #6]
 1362 03a2 EEE7     		b	.L87
 1363              	.LVL109:
 1364              	.L83:
 277:Middlewares/ST/STM32_SPWF0xSy/wifi_module_uart_01.c ****                           __disable_irq();
 1365              		.loc 1 277 0
 1366 03a4 7E48     		ldr	r0, .L190+16
 1367              	.LVL110:
 1368 03a6 0223     		movs	r3, #2
 1369 03a8 80F82630 		strb	r3, [r0, #38]
 1370              	.LBB85:
 1371              	.LBB86:
 1372              		.loc 2 142 0
 1373              		.syntax unified
 1374              	@ 142 "Drivers/CMSIS/Include/cmsis_gcc.h" 1
 1375 03ac 72B6     		cpsid i
 1376              	@ 0 "" 2
 1377              		.thumb
 1378              		.syntax unified
 1379              	.LBE86:
 1380              	.LBE85:
 279:Middlewares/ST/STM32_SPWF0xSy/wifi_module_uart_01.c ****                            __enable_irq();
 1381              		.loc 1 279 0
 1382 03ae 00F12004 		add	r4, r0, #32
 1383 03b2 94E80600 		ldm	r4, {r1, r2}
 1384 03b6 1430     		adds	r0, r0, #20
 1385 03b8 FFF7FEFF 		bl	push_eventbuffer_queue
 1386              	.LVL111:
ARM GAS  D:\cygwin64\tmp\ccuGdUOt.s 			page 54


 1387              	.LBB87:
 1388              	.LBB88:
 131:Drivers/CMSIS/Include/cmsis_gcc.h **** }
 1389              		.loc 2 131 0
 1390              		.syntax unified
 1391              	@ 131 "Drivers/CMSIS/Include/cmsis_gcc.h" 1
 1392 03bc 62B6     		cpsie i
 1393              	@ 0 "" 2
 1394              		.thumb
 1395              		.syntax unified
 1396              	.LBE88:
 1397              	.LBE87:
 281:Middlewares/ST/STM32_SPWF0xSy/wifi_module_uart_01.c ****                       }
 1398              		.loc 1 281 0
 1399 03be 2046     		mov	r0, r4
 1400 03c0 FFF7FEFF 		bl	reset_event
 1401              	.LVL112:
 1402 03c4 E2E7     		b	.L84
 1403              	.L71:
 294:Middlewares/ST/STM32_SPWF0xSy/wifi_module_uart_01.c ****           {
 1404              		.loc 1 294 0
 1405 03c6 7749     		ldr	r1, .L190+20
 1406 03c8 7748     		ldr	r0, .L190+24
 1407 03ca FFF7FEFF 		bl	strstr
 1408              	.LVL113:
 1409 03ce 0028     		cmp	r0, #0
 1410 03d0 00F09580 		beq	.L88
 300:Middlewares/ST/STM32_SPWF0xSy/wifi_module_uart_01.c ****                 {
 1411              		.loc 1 300 0
 1412 03d4 7549     		ldr	r1, .L190+28
 1413 03d6 7448     		ldr	r0, .L190+24
 1414 03d8 FFF7FEFF 		bl	strstr
 1415              	.LVL114:
 1416 03dc 0028     		cmp	r0, #0
 1417 03de 3BD0     		beq	.L89
 302:Middlewares/ST/STM32_SPWF0xSy/wifi_module_uart_01.c ****                     //prevent the OK received after socket close command to be Q'ed
 1418              		.loc 1 302 0
 1419 03e0 7348     		ldr	r0, .L190+32
 1420 03e2 FFF7FEFF 		bl	puts
 1421              	.LVL115:
 304:Middlewares/ST/STM32_SPWF0xSy/wifi_module_uart_01.c ****                     IO_status_flag.client_socket_close_ongoing  = WIFI_FALSE;
 1422              		.loc 1 304 0
 1423 03e6 6A4B     		ldr	r3, .L190
 1424 03e8 1A78     		ldrb	r2, [r3]	@ zero_extendqisi2
 1425 03ea 6FF34102 		bfc	r2, #1, #1
 1426 03ee 1A70     		strb	r2, [r3]
 305:Middlewares/ST/STM32_SPWF0xSy/wifi_module_uart_01.c ****                     
 1427              		.loc 1 305 0
 1428 03f0 5A78     		ldrb	r2, [r3, #1]	@ zero_extendqisi2
 1429 03f2 6FF30412 		bfc	r2, #4, #1
 1430 03f6 5A70     		strb	r2, [r3, #1]
 308:Middlewares/ST/STM32_SPWF0xSy/wifi_module_uart_01.c ****                       {
 1431              		.loc 1 308 0
 1432 03f8 684B     		ldr	r3, .L190+12
 1433 03fa 9B79     		ldrb	r3, [r3, #6]	@ zero_extendqisi2
 1434 03fc 13F0040F 		tst	r3, #4
 1435 0400 03D1     		bne	.L90
ARM GAS  D:\cygwin64\tmp\ccuGdUOt.s 			page 55


 311:Middlewares/ST/STM32_SPWF0xSy/wifi_module_uart_01.c ****                       }
 1436              		.loc 1 311 0
 1437 0402 664A     		ldr	r2, .L190+12
 1438 0404 43F00403 		orr	r3, r3, #4
 1439 0408 9371     		strb	r3, [r2, #6]
 1440              	.L90:
 314:Middlewares/ST/STM32_SPWF0xSy/wifi_module_uart_01.c ****                     WiFi_Control_Variables.stop_event_dequeue = WIFI_FALSE;
 1441              		.loc 1 314 0
 1442 040a 624B     		ldr	r3, .L190+4
 1443 040c 5A79     		ldrb	r2, [r3, #5]	@ zero_extendqisi2
 1444 040e 02F00F02 		and	r2, r2, #15
 1445 0412 1344     		add	r3, r3, r2
 1446 0414 0122     		movs	r2, #1
 1447 0416 83F8E920 		strb	r2, [r3, #233]
 315:Middlewares/ST/STM32_SPWF0xSy/wifi_module_uart_01.c ****                 }
 1448              		.loc 1 315 0
 1449 041a 604B     		ldr	r3, .L190+12
 1450 041c 1A78     		ldrb	r2, [r3]	@ zero_extendqisi2
 1451 041e 6FF3C302 		bfc	r2, #3, #1
 1452 0422 1A70     		strb	r2, [r3]
 1453              	.L91:
 353:Middlewares/ST/STM32_SPWF0xSy/wifi_module_uart_01.c ****               memset(process_buffer, 0x00, MAX_BUFFER_GLOBAL);
 1454              		.loc 1 353 0
 1455 0424 0021     		movs	r1, #0
 1456 0426 634B     		ldr	r3, .L190+36
 1457 0428 1960     		str	r1, [r3]
 354:Middlewares/ST/STM32_SPWF0xSy/wifi_module_uart_01.c **** 
 1458              		.loc 1 354 0
 1459 042a 4FF40072 		mov	r2, #512
 1460 042e 5E48     		ldr	r0, .L190+24
 1461 0430 FFF7FEFF 		bl	memset
 1462              	.LVL116:
 356:Middlewares/ST/STM32_SPWF0xSy/wifi_module_uart_01.c ****                 WiFi_Control_Variables.Q_Contains_Message = WIFI_FALSE;
 1463              		.loc 1 356 0
 1464 0434 594B     		ldr	r3, .L190+12
 1465 0436 9B78     		ldrb	r3, [r3, #2]	@ zero_extendqisi2
 1466 0438 13F0200F 		tst	r3, #32
 1467 043c 00F0C184 		beq	.L62
 356:Middlewares/ST/STM32_SPWF0xSy/wifi_module_uart_01.c ****                 WiFi_Control_Variables.Q_Contains_Message = WIFI_FALSE;
 1468              		.loc 1 356 0 is_stmt 0 discriminator 1
 1469 0440 564B     		ldr	r3, .L190+12
 1470 0442 DB78     		ldrb	r3, [r3, #3]	@ zero_extendqisi2
 1471 0444 13F0080F 		tst	r3, #8
 1472 0448 00F0BB84 		beq	.L62
 357:Middlewares/ST/STM32_SPWF0xSy/wifi_module_uart_01.c ****               else
 1473              		.loc 1 357 0 is_stmt 1
 1474 044c 534B     		ldr	r3, .L190+12
 1475 044e DA78     		ldrb	r2, [r3, #3]	@ zero_extendqisi2
 1476 0450 6FF3C302 		bfc	r2, #3, #1
 1477 0454 DA70     		strb	r2, [r3, #3]
 1478 0456 B7E1     		b	.L70
 1479              	.L89:
 318:Middlewares/ST/STM32_SPWF0xSy/wifi_module_uart_01.c ****                        strstr((const char *)process_buffer,"\r\nERROR: Command mode not available\r
 1480              		.loc 1 318 0
 1481 0458 5749     		ldr	r1, .L190+40
 1482 045a 5348     		ldr	r0, .L190+24
 1483 045c FFF7FEFF 		bl	strstr
ARM GAS  D:\cygwin64\tmp\ccuGdUOt.s 			page 56


 1484              	.LVL117:
 1485 0460 B0B1     		cbz	r0, .L170
 1486              	.L92:
 322:Middlewares/ST/STM32_SPWF0xSy/wifi_module_uart_01.c ****                       {
 1487              		.loc 1 322 0
 1488 0462 4E4B     		ldr	r3, .L190+12
 1489 0464 9B78     		ldrb	r3, [r3, #2]	@ zero_extendqisi2
 1490 0466 13F0080F 		tst	r3, #8
 1491 046a DBD0     		beq	.L91
 324:Middlewares/ST/STM32_SPWF0xSy/wifi_module_uart_01.c ****                         WiFi_Control_Variables.stop_event_dequeue = WIFI_FALSE;
 1492              		.loc 1 324 0
 1493 046c 4B4B     		ldr	r3, .L190+12
 1494 046e 9A78     		ldrb	r2, [r3, #2]	@ zero_extendqisi2
 325:Middlewares/ST/STM32_SPWF0xSy/wifi_module_uart_01.c ****                         WiFi_Control_Variables.enable_sock_read   = WIFI_FALSE;
 1495              		.loc 1 325 0
 1496 0470 1978     		ldrb	r1, [r3]	@ zero_extendqisi2
 1497 0472 6FF3C301 		bfc	r1, #3, #1
 1498 0476 1970     		strb	r1, [r3]
 327:Middlewares/ST/STM32_SPWF0xSy/wifi_module_uart_01.c ****                         WiFi_Counter_Variables.chunk_size         = 0;
 1499              		.loc 1 327 0
 1500 0478 02F0D702 		and	r2, r2, #215
 1501 047c 6FF38202 		bfc	r2, #2, #1
 1502 0480 9A70     		strb	r2, [r3, #2]
 328:Middlewares/ST/STM32_SPWF0xSy/wifi_module_uart_01.c ****                         WiFi_Counter_Variables.message_size       = 0;
 1503              		.loc 1 328 0
 1504 0482 444B     		ldr	r3, .L190+4
 1505 0484 0022     		movs	r2, #0
 1506 0486 A3F89620 		strh	r2, [r3, #150]	@ movhi
 329:Middlewares/ST/STM32_SPWF0xSy/wifi_module_uart_01.c ****                       }
 1507              		.loc 1 329 0
 1508 048a C3F8B420 		str	r2, [r3, #180]
 1509 048e C9E7     		b	.L91
 1510              	.L170:
 319:Middlewares/ST/STM32_SPWF0xSy/wifi_module_uart_01.c ****                 {
 1511              		.loc 1 319 0 discriminator 1
 1512 0490 4A49     		ldr	r1, .L190+44
 1513 0492 4548     		ldr	r0, .L190+24
 1514 0494 FFF7FEFF 		bl	strstr
 1515              	.LVL118:
 318:Middlewares/ST/STM32_SPWF0xSy/wifi_module_uart_01.c ****                        strstr((const char *)process_buffer,"\r\nERROR: Command mode not available\r
 1516              		.loc 1 318 0 discriminator 1
 1517 0498 0028     		cmp	r0, #0
 1518 049a E2D1     		bne	.L92
 335:Middlewares/ST/STM32_SPWF0xSy/wifi_module_uart_01.c ****                     {
 1519              		.loc 1 335 0
 1520 049c 4849     		ldr	r1, .L190+48
 1521 049e 4248     		ldr	r0, .L190+24
 1522 04a0 FFF7FEFF 		bl	strstr
 1523              	.LVL119:
 1524 04a4 10B1     		cbz	r0, .L94
 337:Middlewares/ST/STM32_SPWF0xSy/wifi_module_uart_01.c ****                     }
 1525              		.loc 1 337 0
 1526 04a6 4748     		ldr	r0, .L190+52
 1527 04a8 FFF7FEFF 		bl	puts
 1528              	.LVL120:
 1529              	.L94:
 339:Middlewares/ST/STM32_SPWF0xSy/wifi_module_uart_01.c ****                     __disable_irq();
ARM GAS  D:\cygwin64\tmp\ccuGdUOt.s 			page 57


 1530              		.loc 1 339 0
 1531 04ac 3C48     		ldr	r0, .L190+16
 1532 04ae 0823     		movs	r3, #8
 1533 04b0 80F82630 		strb	r3, [r0, #38]
 1534              	.LBB89:
 1535              	.LBB90:
 1536              		.loc 2 142 0
 1537              		.syntax unified
 1538              	@ 142 "Drivers/CMSIS/Include/cmsis_gcc.h" 1
 1539 04b4 72B6     		cpsid i
 1540              	@ 0 "" 2
 1541              		.thumb
 1542              		.syntax unified
 1543              	.LBE90:
 1544              	.LBE89:
 341:Middlewares/ST/STM32_SPWF0xSy/wifi_module_uart_01.c ****                      __enable_irq();
 1545              		.loc 1 341 0
 1546 04b6 00F12004 		add	r4, r0, #32
 1547 04ba 94E80600 		ldm	r4, {r1, r2}
 1548 04be 1430     		adds	r0, r0, #20
 1549 04c0 FFF7FEFF 		bl	push_eventbuffer_queue
 1550              	.LVL121:
 1551              	.LBB91:
 1552              	.LBB92:
 131:Drivers/CMSIS/Include/cmsis_gcc.h **** }
 1553              		.loc 2 131 0
 1554              		.syntax unified
 1555              	@ 131 "Drivers/CMSIS/Include/cmsis_gcc.h" 1
 1556 04c4 62B6     		cpsie i
 1557              	@ 0 "" 2
 1558              		.thumb
 1559              		.syntax unified
 1560              	.LBE92:
 1561              	.LBE91:
 343:Middlewares/ST/STM32_SPWF0xSy/wifi_module_uart_01.c ****                     if(WiFi_Control_Variables.stop_event_dequeue)
 1562              		.loc 1 343 0
 1563 04c6 2046     		mov	r0, r4
 1564 04c8 FFF7FEFF 		bl	reset_event
 1565              	.LVL122:
 344:Middlewares/ST/STM32_SPWF0xSy/wifi_module_uart_01.c ****                       /*ERROR:Illegal Socket ID*/
 1566              		.loc 1 344 0
 1567 04cc 334B     		ldr	r3, .L190+12
 1568 04ce 1B78     		ldrb	r3, [r3]	@ zero_extendqisi2
 1569 04d0 13F0080F 		tst	r3, #8
 1570 04d4 04D0     		beq	.L95
 346:Middlewares/ST/STM32_SPWF0xSy/wifi_module_uart_01.c ****                     if(WiFi_Control_Variables.enable_timeout_timer)
 1571              		.loc 1 346 0
 1572 04d6 314B     		ldr	r3, .L190+12
 1573 04d8 1A78     		ldrb	r2, [r3]	@ zero_extendqisi2
 1574 04da 6FF3C302 		bfc	r2, #3, #1
 1575 04de 1A70     		strb	r2, [r3]
 1576              	.L95:
 347:Middlewares/ST/STM32_SPWF0xSy/wifi_module_uart_01.c ****                       {
 1577              		.loc 1 347 0
 1578 04e0 2E4B     		ldr	r3, .L190+12
 1579 04e2 5B79     		ldrb	r3, [r3, #5]	@ zero_extendqisi2
 1580 04e4 13F0200F 		tst	r3, #32
ARM GAS  D:\cygwin64\tmp\ccuGdUOt.s 			page 58


 1581 04e8 9CD0     		beq	.L91
 349:Middlewares/ST/STM32_SPWF0xSy/wifi_module_uart_01.c ****                         WiFi_Counter_Variables.timeout_tick = 0;
 1582              		.loc 1 349 0
 1583 04ea 2C4B     		ldr	r3, .L190+12
 1584 04ec 5A79     		ldrb	r2, [r3, #5]	@ zero_extendqisi2
 1585 04ee 6FF34512 		bfc	r2, #5, #1
 1586 04f2 5A71     		strb	r2, [r3, #5]
 350:Middlewares/ST/STM32_SPWF0xSy/wifi_module_uart_01.c ****                       }
 1587              		.loc 1 350 0
 1588 04f4 0022     		movs	r2, #0
 1589 04f6 274B     		ldr	r3, .L190+4
 1590 04f8 C3F8CC20 		str	r2, [r3, #204]
 1591 04fc 92E7     		b	.L91
 1592              	.L88:
 362:Middlewares/ST/STM32_SPWF0xSy/wifi_module_uart_01.c ****           {
 1593              		.loc 1 362 0
 1594 04fe 3249     		ldr	r1, .L190+56
 1595 0500 2948     		ldr	r0, .L190+24
 1596 0502 FFF7FEFF 		bl	strstr
 1597              	.LVL123:
 1598 0506 0028     		cmp	r0, #0
 1599 0508 64D0     		beq	.L96
 365:Middlewares/ST/STM32_SPWF0xSy/wifi_module_uart_01.c ****               if(pStr != NULL)
 1600              		.loc 1 365 0
 1601 050a 3049     		ldr	r1, .L190+60
 1602 050c 2648     		ldr	r0, .L190+24
 1603 050e FFF7FEFF 		bl	strstr
 1604              	.LVL124:
 366:Middlewares/ST/STM32_SPWF0xSy/wifi_module_uart_01.c ****                 {
 1605              		.loc 1 366 0
 1606 0512 0028     		cmp	r0, #0
 1607 0514 34D0     		beq	.L97
 368:Middlewares/ST/STM32_SPWF0xSy/wifi_module_uart_01.c ****                 } 
 1608              		.loc 1 368 0
 1609 0516 0022     		movs	r2, #0
 1610 0518 1E4B     		ldr	r3, .L190+4
 1611 051a 5A72     		strb	r2, [r3, #9]
 1612              	.L98:
 374:Middlewares/ST/STM32_SPWF0xSy/wifi_module_uart_01.c ****               if(pStr != NULL)
 1613              		.loc 1 374 0
 1614 051c 2C49     		ldr	r1, .L190+64
 1615 051e 2248     		ldr	r0, .L190+24
 1616              	.LVL125:
 1617 0520 FFF7FEFF 		bl	strstr
 1618              	.LVL126:
 375:Middlewares/ST/STM32_SPWF0xSy/wifi_module_uart_01.c ****                 {
 1619              		.loc 1 375 0
 1620 0524 80B3     		cbz	r0, .L99
 377:Middlewares/ST/STM32_SPWF0xSy/wifi_module_uart_01.c ****                 }
 1621              		.loc 1 377 0
 1622 0526 0022     		movs	r2, #0
 1623 0528 1A4B     		ldr	r3, .L190+4
 1624 052a 9A72     		strb	r2, [r3, #10]
 1625              	.L100:
 384:Middlewares/ST/STM32_SPWF0xSy/wifi_module_uart_01.c ****               __disable_irq();
 1626              		.loc 1 384 0
 1627 052c 1C48     		ldr	r0, .L190+16
ARM GAS  D:\cygwin64\tmp\ccuGdUOt.s 			page 59


 1628              	.LVL127:
 1629 052e 0423     		movs	r3, #4
 1630 0530 80F82630 		strb	r3, [r0, #38]
 1631              	.LBB93:
 1632              	.LBB94:
 1633              		.loc 2 142 0
 1634              		.syntax unified
 1635              	@ 142 "Drivers/CMSIS/Include/cmsis_gcc.h" 1
 1636 0534 72B6     		cpsid i
 1637              	@ 0 "" 2
 1638              		.thumb
 1639              		.syntax unified
 1640              	.LBE94:
 1641              	.LBE93:
 386:Middlewares/ST/STM32_SPWF0xSy/wifi_module_uart_01.c ****                __enable_irq();
 1642              		.loc 1 386 0
 1643 0536 00F12004 		add	r4, r0, #32
 1644 053a 94E80600 		ldm	r4, {r1, r2}
 1645 053e 1430     		adds	r0, r0, #20
 1646 0540 FFF7FEFF 		bl	push_eventbuffer_queue
 1647              	.LVL128:
 1648              	.LBB95:
 1649              	.LBB96:
 131:Drivers/CMSIS/Include/cmsis_gcc.h **** }
 1650              		.loc 2 131 0
 1651              		.syntax unified
 1652              	@ 131 "Drivers/CMSIS/Include/cmsis_gcc.h" 1
 1653 0544 62B6     		cpsie i
 1654              	@ 0 "" 2
 1655              		.thumb
 1656              		.syntax unified
 1657              	.LBE96:
 1658              	.LBE95:
 388:Middlewares/ST/STM32_SPWF0xSy/wifi_module_uart_01.c ****               Fillptr=0;
 1659              		.loc 1 388 0
 1660 0546 2046     		mov	r0, r4
 1661 0548 FFF7FEFF 		bl	reset_event
 1662              	.LVL129:
 389:Middlewares/ST/STM32_SPWF0xSy/wifi_module_uart_01.c ****               memset(process_buffer, 0x00, MAX_BUFFER_GLOBAL);
 1663              		.loc 1 389 0
 1664 054c 0021     		movs	r1, #0
 1665 054e 194B     		ldr	r3, .L190+36
 1666 0550 1960     		str	r1, [r3]
 390:Middlewares/ST/STM32_SPWF0xSy/wifi_module_uart_01.c **** 
 1667              		.loc 1 390 0
 1668 0552 4FF40072 		mov	r2, #512
 1669 0556 1448     		ldr	r0, .L190+24
 1670 0558 FFF7FEFF 		bl	memset
 1671              	.LVL130:
 392:Middlewares/ST/STM32_SPWF0xSy/wifi_module_uart_01.c ****                 WiFi_Control_Variables.Q_Contains_Message = WIFI_FALSE;
 1672              		.loc 1 392 0
 1673 055c 0F4B     		ldr	r3, .L190+12
 1674 055e 9B78     		ldrb	r3, [r3, #2]	@ zero_extendqisi2
 1675 0560 13F0200F 		tst	r3, #32
 1676 0564 00F02D84 		beq	.L62
 392:Middlewares/ST/STM32_SPWF0xSy/wifi_module_uart_01.c ****                 WiFi_Control_Variables.Q_Contains_Message = WIFI_FALSE;
 1677              		.loc 1 392 0 is_stmt 0 discriminator 1
ARM GAS  D:\cygwin64\tmp\ccuGdUOt.s 			page 60


 1678 0568 0C4B     		ldr	r3, .L190+12
 1679 056a DB78     		ldrb	r3, [r3, #3]	@ zero_extendqisi2
 1680 056c 13F0080F 		tst	r3, #8
 1681 0570 00F02784 		beq	.L62
 393:Middlewares/ST/STM32_SPWF0xSy/wifi_module_uart_01.c ****               else
 1682              		.loc 1 393 0 is_stmt 1
 1683 0574 094B     		ldr	r3, .L190+12
 1684 0576 DA78     		ldrb	r2, [r3, #3]	@ zero_extendqisi2
 1685 0578 6FF3C302 		bfc	r2, #3, #1
 1686 057c DA70     		strb	r2, [r3, #3]
 1687 057e 23E1     		b	.L70
 1688              	.LVL131:
 1689              	.L97:
 372:Middlewares/ST/STM32_SPWF0xSy/wifi_module_uart_01.c ****                 }
 1690              		.loc 1 372 0
 1691 0580 0122     		movs	r2, #1
 1692 0582 044B     		ldr	r3, .L190+4
 1693 0584 5A72     		strb	r2, [r3, #9]
 1694 0586 C9E7     		b	.L98
 1695              	.L99:
 381:Middlewares/ST/STM32_SPWF0xSy/wifi_module_uart_01.c ****                 }
 1696              		.loc 1 381 0
 1697 0588 0122     		movs	r2, #1
 1698 058a 024B     		ldr	r3, .L190+4
 1699 058c 9A72     		strb	r2, [r3, #10]
 1700 058e CDE7     		b	.L100
 1701              	.L191:
 1702              		.align	2
 1703              	.L190:
 1704 0590 00000000 		.word	IO_status_flag
 1705 0594 00000000 		.word	WiFi_Counter_Variables
 1706 0598 00000000 		.word	open_sockets
 1707 059c 00000000 		.word	WiFi_Control_Variables
 1708 05a0 00000000 		.word	wifi_instances
 1709 05a4 20000000 		.word	.LC10
 1710 05a8 00000000 		.word	.LANCHOR1
 1711 05ac 28000000 		.word	.LC11
 1712 05b0 40000000 		.word	.LC12
 1713 05b4 00000000 		.word	.LANCHOR0
 1714 05b8 74000000 		.word	.LC13
 1715 05bc 98000000 		.word	.LC14
 1716 05c0 C0000000 		.word	.LC15
 1717 05c4 C8000000 		.word	.LC16
 1718 05c8 E8000000 		.word	.LC17
 1719 05cc F0000000 		.word	.LC18
 1720 05d0 F8000000 		.word	.LC19
 1721              	.LVL132:
 1722              	.L96:
 401:Middlewares/ST/STM32_SPWF0xSy/wifi_module_uart_01.c ****                 {
 1723              		.loc 1 401 0
 1724 05d4 694B     		ldr	r3, .L192
 1725 05d6 9B78     		ldrb	r3, [r3, #2]	@ zero_extendqisi2
 1726 05d8 13F0200F 		tst	r3, #32
 1727 05dc 3CD0     		beq	.L101
 401:Middlewares/ST/STM32_SPWF0xSy/wifi_module_uart_01.c ****                 {
 1728              		.loc 1 401 0 is_stmt 0 discriminator 1
 1729 05de 17F0080F 		tst	r7, #8
ARM GAS  D:\cygwin64\tmp\ccuGdUOt.s 			page 61


 1730 05e2 39D0     		beq	.L101
 401:Middlewares/ST/STM32_SPWF0xSy/wifi_module_uart_01.c ****                 {
 1731              		.loc 1 401 0 discriminator 2
 1732 05e4 654B     		ldr	r3, .L192
 1733 05e6 1B79     		ldrb	r3, [r3, #4]	@ zero_extendqisi2
 1734 05e8 13F0080F 		tst	r3, #8
 1735 05ec 34D1     		bne	.L101
 405:Middlewares/ST/STM32_SPWF0xSy/wifi_module_uart_01.c ****                       {
 1736              		.loc 1 405 0 is_stmt 1
 1737 05ee 644B     		ldr	r3, .L192+4
 1738 05f0 B3F89830 		ldrh	r3, [r3, #152]
 1739 05f4 6BB1     		cbz	r3, .L102
 1740              	.LBB97:
 1741              	.LBB98:
 1742              		.loc 2 142 0
 1743              		.syntax unified
 1744              	@ 142 "Drivers/CMSIS/Include/cmsis_gcc.h" 1
 1745 05f6 72B6     		cpsid i
 1746              	@ 0 "" 2
 1747              		.thumb
 1748              		.syntax unified
 1749              	.LBE98:
 1750              	.LBE97:
 408:Middlewares/ST/STM32_SPWF0xSy/wifi_module_uart_01.c ****                          __enable_irq();
 1751              		.loc 1 408 0
 1752 05f8 614C     		ldr	r4, .L192+4
 1753 05fa B4F89810 		ldrh	r1, [r4, #152]
 1754 05fe 6148     		ldr	r0, .L192+8
 1755 0600 FFF7FEFF 		bl	rewind_buffer_queue
 1756              	.LVL133:
 1757              	.LBB99:
 1758              	.LBB100:
 131:Drivers/CMSIS/Include/cmsis_gcc.h **** }
 1759              		.loc 2 131 0
 1760              		.syntax unified
 1761              	@ 131 "Drivers/CMSIS/Include/cmsis_gcc.h" 1
 1762 0604 62B6     		cpsie i
 1763              	@ 0 "" 2
 1764              		.thumb
 1765              		.syntax unified
 1766              	.LBE100:
 1767              	.LBE99:
 410:Middlewares/ST/STM32_SPWF0xSy/wifi_module_uart_01.c ****                       }
 1768              		.loc 1 410 0
 1769 0606 B4F89820 		ldrh	r2, [r4, #152]
 1770 060a 0021     		movs	r1, #0
 1771 060c 3046     		mov	r0, r6
 1772 060e FFF7FEFF 		bl	memset
 1773              	.LVL134:
 1774              	.L102:
 413:Middlewares/ST/STM32_SPWF0xSy/wifi_module_uart_01.c ****                     WiFi_Control_Variables.Q_Contains_Message = WIFI_FALSE;
 1775              		.loc 1 413 0
 1776 0612 5A4B     		ldr	r3, .L192
 1777 0614 5A79     		ldrb	r2, [r3, #5]	@ zero_extendqisi2
 1778 0616 42F04002 		orr	r2, r2, #64
 1779 061a 5A71     		strb	r2, [r3, #5]
 414:Middlewares/ST/STM32_SPWF0xSy/wifi_module_uart_01.c ****                     WiFi_Counter_Variables.pop_queue_length   = Fillptr;
ARM GAS  D:\cygwin64\tmp\ccuGdUOt.s 			page 62


 1780              		.loc 1 414 0
 1781 061c DA78     		ldrb	r2, [r3, #3]	@ zero_extendqisi2
 1782 061e 6FF3C302 		bfc	r2, #3, #1
 1783 0622 DA70     		strb	r2, [r3, #3]
 415:Middlewares/ST/STM32_SPWF0xSy/wifi_module_uart_01.c ****                 }
 1784              		.loc 1 415 0
 1785 0624 584B     		ldr	r3, .L192+12
 1786 0626 1A68     		ldr	r2, [r3]
 1787 0628 554B     		ldr	r3, .L192+4
 1788 062a A3F89C20 		strh	r2, [r3, #156]	@ movhi
 1789              	.L103:
 425:Middlewares/ST/STM32_SPWF0xSy/wifi_module_uart_01.c ****                 {
 1790              		.loc 1 425 0
 1791 062e 574B     		ldr	r3, .L192+16
 1792 0630 1B78     		ldrb	r3, [r3]	@ zero_extendqisi2
 1793 0632 13F0010F 		tst	r3, #1
 1794 0636 40F0C780 		bne	.L70
 425:Middlewares/ST/STM32_SPWF0xSy/wifi_module_uart_01.c ****                 {
 1795              		.loc 1 425 0 is_stmt 0 discriminator 1
 1796 063a 544B     		ldr	r3, .L192+16
 1797 063c 1B78     		ldrb	r3, [r3]	@ zero_extendqisi2
 1798 063e 13F0200F 		tst	r3, #32
 1799 0642 00F0C180 		beq	.L70
 427:Middlewares/ST/STM32_SPWF0xSy/wifi_module_uart_01.c ****                     memset(process_buffer, 0x00, MAX_BUFFER_GLOBAL);
 1800              		.loc 1 427 0 is_stmt 1
 1801 0646 0021     		movs	r1, #0
 1802 0648 4F4B     		ldr	r3, .L192+12
 1803 064a 1960     		str	r1, [r3]
 428:Middlewares/ST/STM32_SPWF0xSy/wifi_module_uart_01.c ****                 }
 1804              		.loc 1 428 0
 1805 064c 4FF40072 		mov	r2, #512
 1806 0650 4F48     		ldr	r0, .L192+20
 1807 0652 FFF7FEFF 		bl	memset
 1808              	.LVL135:
 1809 0656 B7E0     		b	.L70
 1810              	.L101:
 417:Middlewares/ST/STM32_SPWF0xSy/wifi_module_uart_01.c ****                 {
 1811              		.loc 1 417 0
 1812 0658 484B     		ldr	r3, .L192
 1813 065a 5B7A     		ldrb	r3, [r3, #9]	@ zero_extendqisi2
 1814 065c 13F0040F 		tst	r3, #4
 1815 0660 E5D0     		beq	.L103
 419:Middlewares/ST/STM32_SPWF0xSy/wifi_module_uart_01.c ****                     Fillptr = 0;
 1816              		.loc 1 419 0
 1817 0662 2246     		mov	r2, r4
 1818 0664 0021     		movs	r1, #0
 1819 0666 4A48     		ldr	r0, .L192+20
 1820 0668 FFF7FEFF 		bl	memset
 1821              	.LVL136:
 420:Middlewares/ST/STM32_SPWF0xSy/wifi_module_uart_01.c ****                     WiFi_Control_Variables.parsing_wind_56_data = WIFI_FALSE;
 1822              		.loc 1 420 0
 1823 066c 0021     		movs	r1, #0
 1824 066e 464B     		ldr	r3, .L192+12
 1825 0670 1960     		str	r1, [r3]
 421:Middlewares/ST/STM32_SPWF0xSy/wifi_module_uart_01.c ****                 }
 1826              		.loc 1 421 0
 1827 0672 424B     		ldr	r3, .L192
ARM GAS  D:\cygwin64\tmp\ccuGdUOt.s 			page 63


 1828 0674 5A7A     		ldrb	r2, [r3, #9]	@ zero_extendqisi2
 1829 0676 61F38202 		bfi	r2, r1, #2, #1
 1830 067a 5A72     		strb	r2, [r3, #9]
 1831 067c D7E7     		b	.L103
 1832              	.L104:
 455:Middlewares/ST/STM32_SPWF0xSy/wifi_module_uart_01.c ****       {
 1833              		.loc 1 455 0
 1834 067e 3F4B     		ldr	r3, .L192
 1835 0680 9B79     		ldrb	r3, [r3, #6]	@ zero_extendqisi2
 1836 0682 13F0010F 		tst	r3, #1
 1837 0686 5BD0     		beq	.L105
 457:Middlewares/ST/STM32_SPWF0xSy/wifi_module_uart_01.c ****                   || (strstr((const char *)&process_buffer[0],"400 Bad Request\r")) != NULL || (str
 1838              		.loc 1 457 0
 1839 0688 4249     		ldr	r1, .L192+24
 1840 068a 4148     		ldr	r0, .L192+20
 1841 068c FFF7FEFF 		bl	strstr
 1842              	.LVL137:
 1843 0690 C8B1     		cbz	r0, .L171
 1844              	.L106:
 464:Middlewares/ST/STM32_SPWF0xSy/wifi_module_uart_01.c ****                 WiFi_Control_Variables.enable_receive_data_chunk    = WIFI_TRUE;
 1845              		.loc 1 464 0
 1846 0692 3A4B     		ldr	r3, .L192
 1847 0694 DA78     		ldrb	r2, [r3, #3]	@ zero_extendqisi2
 1848 0696 42F01002 		orr	r2, r2, #16
 1849 069a DA70     		strb	r2, [r3, #3]
 465:Middlewares/ST/STM32_SPWF0xSy/wifi_module_uart_01.c ****                 WiFi_Control_Variables.Ok_terminated_data_request_pending = WIFI_FALSE;
 1850              		.loc 1 465 0
 1851 069c 9A78     		ldrb	r2, [r3, #2]	@ zero_extendqisi2
 1852 069e 42F00402 		orr	r2, r2, #4
 1853 06a2 9A70     		strb	r2, [r3, #2]
 466:Middlewares/ST/STM32_SPWF0xSy/wifi_module_uart_01.c ****                 WiFi_Counter_Variables.last_process_buffer_index = 5;
 1854              		.loc 1 466 0
 1855 06a4 9A79     		ldrb	r2, [r3, #6]	@ zero_extendqisi2
 1856 06a6 6FF30002 		bfc	r2, #0, #1
 1857 06aa 9A71     		strb	r2, [r3, #6]
 467:Middlewares/ST/STM32_SPWF0xSy/wifi_module_uart_01.c ****                 WiFi_Control_Variables.enable_timeout_timer      = WIFI_FALSE; //stop the timeout t
 1858              		.loc 1 467 0
 1859 06ac 344A     		ldr	r2, .L192+4
 1860 06ae 0521     		movs	r1, #5
 1861 06b0 A2F89A10 		strh	r1, [r2, #154]	@ movhi
 468:Middlewares/ST/STM32_SPWF0xSy/wifi_module_uart_01.c ****                 WiFi_Counter_Variables.timeout_tick              = 0;
 1862              		.loc 1 468 0
 1863 06b4 5979     		ldrb	r1, [r3, #5]	@ zero_extendqisi2
 1864 06b6 6FF34511 		bfc	r1, #5, #1
 1865 06ba 5971     		strb	r1, [r3, #5]
 469:Middlewares/ST/STM32_SPWF0xSy/wifi_module_uart_01.c ****                 return;
 1866              		.loc 1 469 0
 1867 06bc 0023     		movs	r3, #0
 1868 06be C2F8CC30 		str	r3, [r2, #204]
 470:Middlewares/ST/STM32_SPWF0xSy/wifi_module_uart_01.c ****             }
 1869              		.loc 1 470 0
 1870 06c2 BDE8F087 		pop	{r4, r5, r6, r7, r8, r9, r10, pc}
 1871              	.LVL138:
 1872              	.L171:
 457:Middlewares/ST/STM32_SPWF0xSy/wifi_module_uart_01.c ****                   || (strstr((const char *)&process_buffer[0],"400 Bad Request\r")) != NULL || (str
 1873              		.loc 1 457 0 discriminator 1
 1874 06c6 3449     		ldr	r1, .L192+28
ARM GAS  D:\cygwin64\tmp\ccuGdUOt.s 			page 64


 1875 06c8 3148     		ldr	r0, .L192+20
 1876 06ca FFF7FEFF 		bl	strstr
 1877              	.LVL139:
 1878 06ce 0028     		cmp	r0, #0
 1879 06d0 DFD1     		bne	.L106
 458:Middlewares/ST/STM32_SPWF0xSy/wifi_module_uart_01.c ****                   || (strstr((const char *)&process_buffer[0],"401 Unauthorized\r")) != NULL || (st
 1880              		.loc 1 458 0
 1881 06d2 3249     		ldr	r1, .L192+32
 1882 06d4 2E48     		ldr	r0, .L192+20
 1883 06d6 FFF7FEFF 		bl	strstr
 1884              	.LVL140:
 1885 06da 0028     		cmp	r0, #0
 1886 06dc D9D1     		bne	.L106
 458:Middlewares/ST/STM32_SPWF0xSy/wifi_module_uart_01.c ****                   || (strstr((const char *)&process_buffer[0],"401 Unauthorized\r")) != NULL || (st
 1887              		.loc 1 458 0 is_stmt 0 discriminator 1
 1888 06de 3049     		ldr	r1, .L192+36
 1889 06e0 2B48     		ldr	r0, .L192+20
 1890 06e2 FFF7FEFF 		bl	strstr
 1891              	.LVL141:
 1892 06e6 0028     		cmp	r0, #0
 1893 06e8 D3D1     		bne	.L106
 459:Middlewares/ST/STM32_SPWF0xSy/wifi_module_uart_01.c ****                   || (strstr((const char *)&process_buffer[0],"404 Not Found\r")) != NULL || (strst
 1894              		.loc 1 459 0 is_stmt 1
 1895 06ea 2E49     		ldr	r1, .L192+40
 1896 06ec 2848     		ldr	r0, .L192+20
 1897 06ee FFF7FEFF 		bl	strstr
 1898              	.LVL142:
 1899 06f2 0028     		cmp	r0, #0
 1900 06f4 CDD1     		bne	.L106
 459:Middlewares/ST/STM32_SPWF0xSy/wifi_module_uart_01.c ****                   || (strstr((const char *)&process_buffer[0],"404 Not Found\r")) != NULL || (strst
 1901              		.loc 1 459 0 is_stmt 0 discriminator 1
 1902 06f6 2C49     		ldr	r1, .L192+44
 1903 06f8 2548     		ldr	r0, .L192+20
 1904 06fa FFF7FEFF 		bl	strstr
 1905              	.LVL143:
 1906 06fe 0028     		cmp	r0, #0
 1907 0700 C7D1     		bne	.L106
 460:Middlewares/ST/STM32_SPWF0xSy/wifi_module_uart_01.c ****                   || (strstr((const char *)&process_buffer[0],"500 Internal Server Error\r")) != NU
 1908              		.loc 1 460 0 is_stmt 1
 1909 0702 2A49     		ldr	r1, .L192+48
 1910 0704 2248     		ldr	r0, .L192+20
 1911 0706 FFF7FEFF 		bl	strstr
 1912              	.LVL144:
 1913 070a 0028     		cmp	r0, #0
 1914 070c C1D1     		bne	.L106
 460:Middlewares/ST/STM32_SPWF0xSy/wifi_module_uart_01.c ****                   || (strstr((const char *)&process_buffer[0],"500 Internal Server Error\r")) != NU
 1915              		.loc 1 460 0 is_stmt 0 discriminator 1
 1916 070e 2849     		ldr	r1, .L192+52
 1917 0710 1F48     		ldr	r0, .L192+20
 1918 0712 FFF7FEFF 		bl	strstr
 1919              	.LVL145:
 1920 0716 0028     		cmp	r0, #0
 1921 0718 BBD1     		bne	.L106
 461:Middlewares/ST/STM32_SPWF0xSy/wifi_module_uart_01.c ****                   || (strstr((const char *)&process_buffer[0],"504 Gateway Timeout\r")) != NULL)
 1922              		.loc 1 461 0 is_stmt 1
 1923 071a 2649     		ldr	r1, .L192+56
 1924 071c 1C48     		ldr	r0, .L192+20
ARM GAS  D:\cygwin64\tmp\ccuGdUOt.s 			page 65


 1925 071e FFF7FEFF 		bl	strstr
 1926              	.LVL146:
 1927 0722 0028     		cmp	r0, #0
 1928 0724 B5D1     		bne	.L106
 461:Middlewares/ST/STM32_SPWF0xSy/wifi_module_uart_01.c ****                   || (strstr((const char *)&process_buffer[0],"504 Gateway Timeout\r")) != NULL)
 1929              		.loc 1 461 0 is_stmt 0 discriminator 1
 1930 0726 2449     		ldr	r1, .L192+60
 1931 0728 1948     		ldr	r0, .L192+20
 1932 072a FFF7FEFF 		bl	strstr
 1933              	.LVL147:
 1934 072e 0028     		cmp	r0, #0
 1935 0730 AFD1     		bne	.L106
 462:Middlewares/ST/STM32_SPWF0xSy/wifi_module_uart_01.c ****             {
 1936              		.loc 1 462 0 is_stmt 1
 1937 0732 2249     		ldr	r1, .L192+64
 1938 0734 1648     		ldr	r0, .L192+20
 1939 0736 FFF7FEFF 		bl	strstr
 1940              	.LVL148:
 1941 073a 0028     		cmp	r0, #0
 1942 073c A9D1     		bne	.L106
 1943 073e 43E0     		b	.L70
 1944              	.L105:
 474:Middlewares/ST/STM32_SPWF0xSy/wifi_module_uart_01.c ****       {
 1945              		.loc 1 474 0
 1946 0740 631E     		subs	r3, r4, #1
 1947 0742 134A     		ldr	r2, .L192+20
 1948 0744 D35C     		ldrb	r3, [r2, r3]	@ zero_extendqisi2
 1949 0746 092B     		cmp	r3, #9
 1950 0748 0AD0     		beq	.L172
 1951              	.L107:
 478:Middlewares/ST/STM32_SPWF0xSy/wifi_module_uart_01.c ****       {
 1952              		.loc 1 478 0
 1953 074a 0C4A     		ldr	r2, .L192
 1954 074c D279     		ldrb	r2, [r2, #7]	@ zero_extendqisi2
 1955 074e 12F0040F 		tst	r2, #4
 1956 0752 35D0     		beq	.L108
 481:Middlewares/ST/STM32_SPWF0xSy/wifi_module_uart_01.c ****            Fillptr = 0;
 1957              		.loc 1 481 0
 1958 0754 002B     		cmp	r3, #0
 1959 0756 37D1     		bne	.L70
 482:Middlewares/ST/STM32_SPWF0xSy/wifi_module_uart_01.c ****       }
 1960              		.loc 1 482 0
 1961 0758 0022     		movs	r2, #0
 1962 075a 0B4B     		ldr	r3, .L192+12
 1963 075c 1A60     		str	r2, [r3]
 1964 075e 33E0     		b	.L70
 1965              	.L172:
 474:Middlewares/ST/STM32_SPWF0xSy/wifi_module_uart_01.c ****       {
 1966              		.loc 1 474 0 discriminator 1
 1967 0760 3A2D     		cmp	r5, #58
 1968 0762 F2D1     		bne	.L107
 474:Middlewares/ST/STM32_SPWF0xSy/wifi_module_uart_01.c ****       {
 1969              		.loc 1 474 0 is_stmt 0 discriminator 2
 1970 0764 E21E     		subs	r2, r4, #3
 1971 0766 0A49     		ldr	r1, .L192+20
 1972 0768 8A5C     		ldrb	r2, [r1, r2]	@ zero_extendqisi2
 1973 076a 312A     		cmp	r2, #49
ARM GAS  D:\cygwin64\tmp\ccuGdUOt.s 			page 66


 1974 076c EDD1     		bne	.L107
 476:Middlewares/ST/STM32_SPWF0xSy/wifi_module_uart_01.c ****       }
 1975              		.loc 1 476 0 is_stmt 1
 1976 076e 034A     		ldr	r2, .L192
 1977 0770 D378     		ldrb	r3, [r2, #3]	@ zero_extendqisi2
 1978 0772 43F08003 		orr	r3, r3, #128
 1979 0776 D370     		strb	r3, [r2, #3]
 1980 0778 26E0     		b	.L70
 1981              	.L193:
 1982 077a 00BF     		.align	2
 1983              	.L192:
 1984 077c 00000000 		.word	WiFi_Control_Variables
 1985 0780 00000000 		.word	WiFi_Counter_Variables
 1986 0784 00000000 		.word	wifi_instances
 1987 0788 00000000 		.word	.LANCHOR0
 1988 078c 00000000 		.word	IO_status_flag
 1989 0790 00000000 		.word	.LANCHOR1
 1990 0794 10010000 		.word	.LC22
 1991 0798 18010000 		.word	.LC23
 1992 079c 20010000 		.word	.LC24
 1993 07a0 34010000 		.word	.LC25
 1994 07a4 3C010000 		.word	.LC26
 1995 07a8 50010000 		.word	.LC27
 1996 07ac 60010000 		.word	.LC28
 1997 07b0 70010000 		.word	.LC29
 1998 07b4 88010000 		.word	.LC30
 1999 07b8 A4010000 		.word	.LC31
 2000 07bc B8010000 		.word	.LC32
 2001              	.L108:
 484:Middlewares/ST/STM32_SPWF0xSy/wifi_module_uart_01.c ****       {
 2002              		.loc 1 484 0
 2003 07c0 B4F5FF7F 		cmp	r4, #510
 2004 07c4 00F2D980 		bhi	.L173
 2005              	.L70:
 494:Middlewares/ST/STM32_SPWF0xSy/wifi_module_uart_01.c ****           {
 2006              		.loc 1 494 0
 2007 07c8 B94B     		ldr	r3, .L194
 2008 07ca 9B78     		ldrb	r3, [r3, #2]	@ zero_extendqisi2
 2009 07cc 13F0040F 		tst	r3, #4
 2010 07d0 31D0     		beq	.L109
 494:Middlewares/ST/STM32_SPWF0xSy/wifi_module_uart_01.c ****           {
 2011              		.loc 1 494 0 is_stmt 0 discriminator 1
 2012 07d2 B74B     		ldr	r3, .L194
 2013 07d4 5B79     		ldrb	r3, [r3, #5]	@ zero_extendqisi2
 2014 07d6 13F0400F 		tst	r3, #64
 2015 07da 2CD1     		bne	.L109
 496:Middlewares/ST/STM32_SPWF0xSy/wifi_module_uart_01.c ****             if(Fillptr + WiFi_Counter_Variables.pop_queue_length > MAX_BUFFER_GLOBAL-1)
 2016              		.loc 1 496 0 is_stmt 1
 2017 07dc B54A     		ldr	r2, .L194+4
 2018 07de B2F89830 		ldrh	r3, [r2, #152]
 2019 07e2 A2F89C30 		strh	r3, [r2, #156]	@ movhi
 497:Middlewares/ST/STM32_SPWF0xSy/wifi_module_uart_01.c ****             {
 2020              		.loc 1 497 0
 2021 07e6 B44A     		ldr	r2, .L194+8
 2022 07e8 1268     		ldr	r2, [r2]
 2023 07ea 1344     		add	r3, r3, r2
 2024 07ec B3F5007F 		cmp	r3, #512
ARM GAS  D:\cygwin64\tmp\ccuGdUOt.s 			page 67


 2025 07f0 80F0CC80 		bcs	.L174
 2026              	.L110:
 506:Middlewares/ST/STM32_SPWF0xSy/wifi_module_uart_01.c ****             Fillptr = Fillptr + WiFi_Counter_Variables.pop_queue_length;
 2027              		.loc 1 506 0
 2028 07f4 B04D     		ldr	r5, .L194+8
 2029 07f6 2C68     		ldr	r4, [r5]
 2030 07f8 AE4E     		ldr	r6, .L194+4
 2031              	.LVL149:
 2032 07fa B6F89C20 		ldrh	r2, [r6, #156]
 2033 07fe AF49     		ldr	r1, .L194+12
 2034 0800 AF48     		ldr	r0, .L194+16
 2035 0802 2044     		add	r0, r0, r4
 2036 0804 FFF7FEFF 		bl	memcpy
 2037              	.LVL150:
 507:Middlewares/ST/STM32_SPWF0xSy/wifi_module_uart_01.c ****             
 2038              		.loc 1 507 0
 2039 0808 B6F89C30 		ldrh	r3, [r6, #156]
 2040 080c 1C44     		add	r4, r4, r3
 2041 080e 2C60     		str	r4, [r5]
 510:Middlewares/ST/STM32_SPWF0xSy/wifi_module_uart_01.c ****               return;
 2042              		.loc 1 510 0
 2043 0810 012C     		cmp	r4, #1
 2044 0812 00F0D280 		beq	.L175
 2045              	.L111:
 513:Middlewares/ST/STM32_SPWF0xSy/wifi_module_uart_01.c ****             {
 2046              		.loc 1 513 0
 2047 0816 AB49     		ldr	r1, .L194+20
 2048 0818 A948     		ldr	r0, .L194+16
 2049 081a FFF7FEFF 		bl	strstr
 2050              	.LVL151:
 2051 081e 0028     		cmp	r0, #0
 2052 0820 00F0D180 		beq	.L112
 515:Middlewares/ST/STM32_SPWF0xSy/wifi_module_uart_01.c ****                  WiFi_Control_Variables.message_pending = WIFI_FALSE;
 2053              		.loc 1 515 0
 2054 0824 A24B     		ldr	r3, .L194
 2055 0826 DA78     		ldrb	r2, [r3, #3]	@ zero_extendqisi2
 2056 0828 6FF3C302 		bfc	r2, #3, #1
 2057 082c DA70     		strb	r2, [r3, #3]
 516:Middlewares/ST/STM32_SPWF0xSy/wifi_module_uart_01.c ****             }
 2058              		.loc 1 516 0
 2059 082e 1A79     		ldrb	r2, [r3, #4]	@ zero_extendqisi2
 2060 0830 6FF3C302 		bfc	r2, #3, #1
 2061 0834 1A71     		strb	r2, [r3, #4]
 2062              	.L109:
 570:Middlewares/ST/STM32_SPWF0xSy/wifi_module_uart_01.c ****         {
 2063              		.loc 1 570 0
 2064 0836 9E4B     		ldr	r3, .L194
 2065 0838 DB78     		ldrb	r3, [r3, #3]	@ zero_extendqisi2
 2066 083a 13F0080F 		tst	r3, #8
 2067 083e 40F05182 		bne	.L116
 570:Middlewares/ST/STM32_SPWF0xSy/wifi_module_uart_01.c ****         {
 2068              		.loc 1 570 0 is_stmt 0 discriminator 1
 2069 0842 9B4A     		ldr	r2, .L194
 2070 0844 9278     		ldrb	r2, [r2, #2]	@ zero_extendqisi2
 2071 0846 12F0200F 		tst	r2, #32
 2072 084a 00F04B82 		beq	.L116
 572:Middlewares/ST/STM32_SPWF0xSy/wifi_module_uart_01.c ****             WiFi_Counter_Variables.sock_total_count = WiFi_Counter_Variables.sock_total_count + WiF
ARM GAS  D:\cygwin64\tmp\ccuGdUOt.s 			page 68


 2073              		.loc 1 572 0 is_stmt 1
 2074 084e 9E4A     		ldr	r2, .L194+24
 2075 0850 1378     		ldrb	r3, [r2]	@ zero_extendqisi2
 2076 0852 43F00103 		orr	r3, r3, #1
 2077 0856 1370     		strb	r3, [r2]
 573:Middlewares/ST/STM32_SPWF0xSy/wifi_module_uart_01.c ****             
 2078              		.loc 1 573 0
 2079 0858 964B     		ldr	r3, .L194+4
 2080 085a D3F8B040 		ldr	r4, [r3, #176]
 2081 085e B3F89C20 		ldrh	r2, [r3, #156]
 2082 0862 1444     		add	r4, r4, r2
 2083 0864 C3F8B040 		str	r4, [r3, #176]
 576:Middlewares/ST/STM32_SPWF0xSy/wifi_module_uart_01.c ****             if (pStr != NULL)
 2084              		.loc 1 576 0
 2085 0868 B3F89A30 		ldrh	r3, [r3, #154]
 2086 086c 053B     		subs	r3, r3, #5
 2087 086e 9549     		ldr	r1, .L194+20
 2088 0870 9348     		ldr	r0, .L194+16
 2089 0872 1844     		add	r0, r0, r3
 2090 0874 FFF7FEFF 		bl	strstr
 2091              	.LVL152:
 577:Middlewares/ST/STM32_SPWF0xSy/wifi_module_uart_01.c ****               {
 2092              		.loc 1 577 0
 2093 0878 0146     		mov	r1, r0
 2094 087a 38B1     		cbz	r0, .L117
 579:Middlewares/ST/STM32_SPWF0xSy/wifi_module_uart_01.c ****                     {
 2095              		.loc 1 579 0
 2096 087c 8E4B     		ldr	r3, .L194+8
 2097 087e 1D68     		ldr	r5, [r3]
 2098 0880 AB1E     		subs	r3, r5, #2
 2099 0882 8F4A     		ldr	r2, .L194+16
 2100 0884 D35C     		ldrb	r3, [r2, r3]	@ zero_extendqisi2
 2101 0886 0D2B     		cmp	r3, #13
 2102 0888 00F02C81 		beq	.L176
 2103              	.L117:
 658:Middlewares/ST/STM32_SPWF0xSy/wifi_module_uart_01.c ****               WiFi_Counter_Variables.last_process_buffer_index = Fillptr;
 2104              		.loc 1 658 0
 2105 088c 8A4B     		ldr	r3, .L194+8
 2106 088e 1A68     		ldr	r2, [r3]
 2107 0890 052A     		cmp	r2, #5
 2108 0892 02D9     		bls	.L124
 658:Middlewares/ST/STM32_SPWF0xSy/wifi_module_uart_01.c ****               WiFi_Counter_Variables.last_process_buffer_index = Fillptr;
 2109              		.loc 1 658 0 is_stmt 0 discriminator 1
 2110 0894 0029     		cmp	r1, #0
 2111 0896 00F0AD81 		beq	.L177
 2112              	.L124:
 662:Middlewares/ST/STM32_SPWF0xSy/wifi_module_uart_01.c ****               {
 2113              		.loc 1 662 0 is_stmt 1
 2114 089a 864B     		ldr	r3, .L194+4
 2115 089c D3F8A430 		ldr	r3, [r3, #164]
 2116 08a0 9C42     		cmp	r4, r3
 2117 08a2 C0F0DE81 		bcc	.L125
 669:Middlewares/ST/STM32_SPWF0xSy/wifi_module_uart_01.c ****                   {
 2118              		.loc 1 669 0
 2119 08a6 00F2A981 		bhi	.L178
 2120              	.LVL153:
 2121              	.L126:
ARM GAS  D:\cygwin64\tmp\ccuGdUOt.s 			page 69


 680:Middlewares/ST/STM32_SPWF0xSy/wifi_module_uart_01.c ****                 WiFi_Counter_Variables.message_size = WiFi_Counter_Variables.SockON_Data_Length;
 2122              		.loc 1 680 0
 2123 08aa 834D     		ldr	r5, .L194+8
 2124 08ac 2A68     		ldr	r2, [r5]
 2125 08ae 814C     		ldr	r4, .L194+4
 2126 08b0 A4F89620 		strh	r2, [r4, #150]	@ movhi
 681:Middlewares/ST/STM32_SPWF0xSy/wifi_module_uart_01.c ****                 memcpy(UserDataBuff, process_buffer, Fillptr);
 2127              		.loc 1 681 0
 2128 08b4 D4F8A430 		ldr	r3, [r4, #164]
 2129 08b8 C4F8B430 		str	r3, [r4, #180]
 682:Middlewares/ST/STM32_SPWF0xSy/wifi_module_uart_01.c ****                 Fillptr = 0;
 2130              		.loc 1 682 0
 2131 08bc 8049     		ldr	r1, .L194+16
 2132 08be 8348     		ldr	r0, .L194+28
 2133 08c0 FFF7FEFF 		bl	memcpy
 2134              	.LVL154:
 683:Middlewares/ST/STM32_SPWF0xSy/wifi_module_uart_01.c ****                 WiFi_Counter_Variables.sock_total_count = 0;
 2135              		.loc 1 683 0
 2136 08c4 0023     		movs	r3, #0
 2137 08c6 2B60     		str	r3, [r5]
 684:Middlewares/ST/STM32_SPWF0xSy/wifi_module_uart_01.c ****                 WiFi_Counter_Variables.Socket_Data_Length = 0;
 2138              		.loc 1 684 0
 2139 08c8 C4F8B030 		str	r3, [r4, #176]
 685:Middlewares/ST/STM32_SPWF0xSy/wifi_module_uart_01.c ****                 WiFi_Counter_Variables.SockON_Data_Length = 0;
 2140              		.loc 1 685 0
 2141 08cc C4F8A030 		str	r3, [r4, #160]
 686:Middlewares/ST/STM32_SPWF0xSy/wifi_module_uart_01.c ****                 WiFi_Counter_Variables.pop_queue_length = 0;
 2142              		.loc 1 686 0
 2143 08d0 C4F8A430 		str	r3, [r4, #164]
 687:Middlewares/ST/STM32_SPWF0xSy/wifi_module_uart_01.c ****                 WiFi_Counter_Variables.last_process_buffer_index = 5;
 2144              		.loc 1 687 0
 2145 08d4 A4F89C30 		strh	r3, [r4, #156]	@ movhi
 688:Middlewares/ST/STM32_SPWF0xSy/wifi_module_uart_01.c ****                 WiFi_Control_Variables.Q_Contains_Message = WIFI_FALSE;
 2146              		.loc 1 688 0
 2147 08d8 0522     		movs	r2, #5
 2148 08da A4F89A20 		strh	r2, [r4, #154]	@ movhi
 689:Middlewares/ST/STM32_SPWF0xSy/wifi_module_uart_01.c ****                 WiFi_Control_Variables.enable_receive_data_chunk = WIFI_FALSE;
 2149              		.loc 1 689 0
 2150 08de 744A     		ldr	r2, .L194
 2151 08e0 D178     		ldrb	r1, [r2, #3]	@ zero_extendqisi2
 2152 08e2 63F3C301 		bfi	r1, r3, #3, #1
 2153 08e6 D170     		strb	r1, [r2, #3]
 690:Middlewares/ST/STM32_SPWF0xSy/wifi_module_uart_01.c ****                 WiFi_Counter_Variables.sockdon_id_user = -1;
 2154              		.loc 1 690 0
 2155 08e8 9178     		ldrb	r1, [r2, #2]	@ zero_extendqisi2
 2156 08ea 63F38201 		bfi	r1, r3, #2, #1
 2157 08ee 9170     		strb	r1, [r2, #2]
 691:Middlewares/ST/STM32_SPWF0xSy/wifi_module_uart_01.c **** 
 2158              		.loc 1 691 0
 2159 08f0 E378     		ldrb	r3, [r4, #3]	@ zero_extendqisi2
 2160 08f2 43F00703 		orr	r3, r3, #7
 2161 08f6 E370     		strb	r3, [r4, #3]
 693:Middlewares/ST/STM32_SPWF0xSy/wifi_module_uart_01.c ****                   {
 2162              		.loc 1 693 0
 2163 08f8 11F0080F 		tst	r1, #8
 2164 08fc 00F09881 		beq	.L127
 695:Middlewares/ST/STM32_SPWF0xSy/wifi_module_uart_01.c ****                     WiFi_Counter_Variables.sockon_id_user = 0;
ARM GAS  D:\cygwin64\tmp\ccuGdUOt.s 			page 70


 2165              		.loc 1 695 0
 2166 0900 0021     		movs	r1, #0
 2167 0902 C4F8A810 		str	r1, [r4, #168]
 696:Middlewares/ST/STM32_SPWF0xSy/wifi_module_uart_01.c ****                     if(IO_status_flag.WIND64_count>0)
 2168              		.loc 1 696 0
 2169 0906 6278     		ldrb	r2, [r4, #1]	@ zero_extendqisi2
 2170 0908 61F3C502 		bfi	r2, r1, #3, #3
 2171 090c 6270     		strb	r2, [r4, #1]
 697:Middlewares/ST/STM32_SPWF0xSy/wifi_module_uart_01.c ****                         IO_status_flag.WIND64_count--;                         //decrease the numbe
 2172              		.loc 1 697 0
 2173 090e 6E4B     		ldr	r3, .L194+24
 2174 0910 5B68     		ldr	r3, [r3, #4]
 2175 0912 1BB1     		cbz	r3, .L128
 698:Middlewares/ST/STM32_SPWF0xSy/wifi_module_uart_01.c ****                     if(IO_status_flag.WIND64_count==0) 
 2176              		.loc 1 698 0
 2177 0914 6C4A     		ldr	r2, .L194+24
 2178 0916 5368     		ldr	r3, [r2, #4]
 2179 0918 013B     		subs	r3, r3, #1
 2180 091a 5360     		str	r3, [r2, #4]
 2181              	.L128:
 699:Middlewares/ST/STM32_SPWF0xSy/wifi_module_uart_01.c ****                       {
 2182              		.loc 1 699 0
 2183 091c 6A4B     		ldr	r3, .L194+24
 2184 091e 5B68     		ldr	r3, [r3, #4]
 2185 0920 002B     		cmp	r3, #0
 2186 0922 00F07D81 		beq	.L179
 2187              	.L129:
 704:Middlewares/ST/STM32_SPWF0xSy/wifi_module_uart_01.c ****                   }
 2188              		.loc 1 704 0
 2189 0926 624B     		ldr	r3, .L194
 2190 0928 9A78     		ldrb	r2, [r3, #2]	@ zero_extendqisi2
 2191 092a 6FF38612 		bfc	r2, #6, #1
 2192 092e 9A70     		strb	r2, [r3, #2]
 2193              	.L130:
 715:Middlewares/ST/STM32_SPWF0xSy/wifi_module_uart_01.c ****                 IO_status_flag.sock_read_ongoing = WIFI_FALSE;
 2194              		.loc 1 715 0
 2195 0930 5F4C     		ldr	r4, .L194
 2196 0932 A378     		ldrb	r3, [r4, #2]	@ zero_extendqisi2
 2197 0934 6FF34513 		bfc	r3, #5, #1
 2198 0938 A370     		strb	r3, [r4, #2]
 716:Middlewares/ST/STM32_SPWF0xSy/wifi_module_uart_01.c ****                 Stop_Dequeue();                           //Stop dequeue till user callback returns
 2199              		.loc 1 716 0
 2200 093a 634A     		ldr	r2, .L194+24
 2201 093c 1378     		ldrb	r3, [r2]	@ zero_extendqisi2
 2202 093e 6FF30003 		bfc	r3, #0, #1
 2203 0942 1370     		strb	r3, [r2]
 717:Middlewares/ST/STM32_SPWF0xSy/wifi_module_uart_01.c **** 
 2204              		.loc 1 717 0
 2205 0944 FFF7FEFF 		bl	Stop_Dequeue
 2206              	.LVL155:
 719:Middlewares/ST/STM32_SPWF0xSy/wifi_module_uart_01.c ****                   {
 2207              		.loc 1 719 0
 2208 0948 A378     		ldrb	r3, [r4, #2]	@ zero_extendqisi2
 2209 094a 13F0080F 		tst	r3, #8
 2210 094e 00F08281 		beq	.L131
 721:Middlewares/ST/STM32_SPWF0xSy/wifi_module_uart_01.c ****                     WiFi_Control_Variables.stop_event_dequeue = WIFI_FALSE;
 2211              		.loc 1 721 0
ARM GAS  D:\cygwin64\tmp\ccuGdUOt.s 			page 71


 2212 0952 2279     		ldrb	r2, [r4, #4]	@ zero_extendqisi2
 2213 0954 42F02002 		orr	r2, r2, #32
 2214 0958 2271     		strb	r2, [r4, #4]
 722:Middlewares/ST/STM32_SPWF0xSy/wifi_module_uart_01.c ****                     WiFi_Control_Variables.data_pending_sockD = WIFI_FALSE;
 2215              		.loc 1 722 0
 2216 095a 2278     		ldrb	r2, [r4]	@ zero_extendqisi2
 2217 095c 6FF3C302 		bfc	r2, #3, #1
 2218 0960 2270     		strb	r2, [r4]
 723:Middlewares/ST/STM32_SPWF0xSy/wifi_module_uart_01.c ****                   }
 2219              		.loc 1 723 0
 2220 0962 A278     		ldrb	r2, [r4, #2]	@ zero_extendqisi2
 2221 0964 6FF3C302 		bfc	r2, #3, #1
 2222 0968 A270     		strb	r2, [r4, #2]
 2223              	.L132:
 729:Middlewares/ST/STM32_SPWF0xSy/wifi_module_uart_01.c ****                 return;
 2224              		.loc 1 729 0
 2225 096a 4FF40072 		mov	r2, #512
 2226 096e 0021     		movs	r1, #0
 2227 0970 5348     		ldr	r0, .L194+16
 2228 0972 FFF7FEFF 		bl	memset
 2229              	.LVL156:
 730:Middlewares/ST/STM32_SPWF0xSy/wifi_module_uart_01.c ****               }
 2230              		.loc 1 730 0
 2231 0976 BDE8F087 		pop	{r4, r5, r6, r7, r8, r9, r10, pc}
 2232              	.LVL157:
 2233              	.L173:
 489:Middlewares/ST/STM32_SPWF0xSy/wifi_module_uart_01.c ****         memset(process_buffer, 0x00, MAX_BUFFER_GLOBAL); 
 2234              		.loc 1 489 0
 2235 097a 0021     		movs	r1, #0
 2236 097c 4E4B     		ldr	r3, .L194+8
 2237 097e 1960     		str	r1, [r3]
 490:Middlewares/ST/STM32_SPWF0xSy/wifi_module_uart_01.c ****       }
 2238              		.loc 1 490 0
 2239 0980 4FF40072 		mov	r2, #512
 2240 0984 4E48     		ldr	r0, .L194+16
 2241 0986 FFF7FEFF 		bl	memset
 2242              	.LVL158:
 2243 098a 1DE7     		b	.L70
 2244              	.L174:
 2245              	.LBB101:
 499:Middlewares/ST/STM32_SPWF0xSy/wifi_module_uart_01.c ****               __disable_irq();
 2246              		.loc 1 499 0
 2247 098c A3F2FF14 		subw	r4, r3, #511
 2248              	.LVL159:
 2249              	.LBB102:
 2250              	.LBB103:
 2251              		.loc 2 142 0
 2252              		.syntax unified
 2253              	@ 142 "Drivers/CMSIS/Include/cmsis_gcc.h" 1
 2254 0990 72B6     		cpsid i
 2255              	@ 0 "" 2
 2256              		.thumb
 2257              		.syntax unified
 2258              	.LBE103:
 2259              	.LBE102:
 501:Middlewares/ST/STM32_SPWF0xSy/wifi_module_uart_01.c ****                __enable_irq();
 2260              		.loc 1 501 0
ARM GAS  D:\cygwin64\tmp\ccuGdUOt.s 			page 72


 2261 0992 2146     		mov	r1, r4
 2262 0994 4E48     		ldr	r0, .L194+32
 2263 0996 FFF7FEFF 		bl	rewind_buffer_queue
 2264              	.LVL160:
 2265              	.LBB104:
 2266              	.LBB105:
 131:Drivers/CMSIS/Include/cmsis_gcc.h **** }
 2267              		.loc 2 131 0
 2268              		.syntax unified
 2269              	@ 131 "Drivers/CMSIS/Include/cmsis_gcc.h" 1
 2270 099a 62B6     		cpsie i
 2271              	@ 0 "" 2
 2272              		.thumb
 2273              		.syntax unified
 2274              	.LBE105:
 2275              	.LBE104:
 503:Middlewares/ST/STM32_SPWF0xSy/wifi_module_uart_01.c ****                WiFi_Counter_Variables.pop_queue_length = (MAX_BUFFER_GLOBAL-1) - Fillptr;
 2276              		.loc 1 503 0
 2277 099c 464B     		ldr	r3, .L194+8
 2278 099e 1F68     		ldr	r7, [r3]
 2279 09a0 40F2FF15 		movw	r5, #511
 2280 09a4 E81B     		subs	r0, r5, r7
 2281 09a6 2246     		mov	r2, r4
 2282 09a8 0021     		movs	r1, #0
 2283 09aa 3044     		add	r0, r0, r6
 2284 09ac FFF7FEFF 		bl	memset
 2285              	.LVL161:
 504:Middlewares/ST/STM32_SPWF0xSy/wifi_module_uart_01.c ****             }
 2286              		.loc 1 504 0
 2287 09b0 ED1B     		subs	r5, r5, r7
 2288 09b2 404B     		ldr	r3, .L194+4
 2289 09b4 A3F89C50 		strh	r5, [r3, #156]	@ movhi
 2290 09b8 1CE7     		b	.L110
 2291              	.LVL162:
 2292              	.L175:
 2293              	.LBE101:
 510:Middlewares/ST/STM32_SPWF0xSy/wifi_module_uart_01.c ****               return;
 2294              		.loc 1 510 0 discriminator 1
 2295 09ba 414B     		ldr	r3, .L194+16
 2296 09bc 1B78     		ldrb	r3, [r3]	@ zero_extendqisi2
 2297 09be 0D2B     		cmp	r3, #13
 2298 09c0 7FF429AF 		bne	.L111
 2299 09c4 FDE1     		b	.L62
 2300              	.L112:
 518:Middlewares/ST/STM32_SPWF0xSy/wifi_module_uart_01.c ****             {
 2301              		.loc 1 518 0
 2302 09c6 404B     		ldr	r3, .L194+24
 2303 09c8 1B78     		ldrb	r3, [r3]	@ zero_extendqisi2
 2304 09ca 13F0010F 		tst	r3, #1
 2305 09ce 7FF432AF 		bne	.L109
 518:Middlewares/ST/STM32_SPWF0xSy/wifi_module_uart_01.c ****             {
 2306              		.loc 1 518 0 is_stmt 0 discriminator 1
 2307 09d2 374B     		ldr	r3, .L194
 2308 09d4 DB78     		ldrb	r3, [r3, #3]	@ zero_extendqisi2
 2309 09d6 13F0100F 		tst	r3, #16
 2310 09da 7FF42CAF 		bne	.L109
 520:Middlewares/ST/STM32_SPWF0xSy/wifi_module_uart_01.c ****                 {
ARM GAS  D:\cygwin64\tmp\ccuGdUOt.s 			page 73


 2311              		.loc 1 520 0 is_stmt 1
 2312 09de 384B     		ldr	r3, .L194+16
 2313 09e0 1B78     		ldrb	r3, [r3]	@ zero_extendqisi2
 2314 09e2 002B     		cmp	r3, #0
 2315 09e4 3FF427AF 		beq	.L109
 523:Middlewares/ST/STM32_SPWF0xSy/wifi_module_uart_01.c ****                   {
 2316              		.loc 1 523 0
 2317 09e8 0D2B     		cmp	r3, #13
 2318 09ea 7FF424AF 		bne	.L109
 523:Middlewares/ST/STM32_SPWF0xSy/wifi_module_uart_01.c ****                   {
 2319              		.loc 1 523 0 is_stmt 0 discriminator 1
 2320 09ee 344B     		ldr	r3, .L194+16
 2321 09f0 5B78     		ldrb	r3, [r3, #1]	@ zero_extendqisi2
 2322 09f2 0A2B     		cmp	r3, #10
 2323 09f4 7FF41FAF 		bne	.L109
 523:Middlewares/ST/STM32_SPWF0xSy/wifi_module_uart_01.c ****                   {
 2324              		.loc 1 523 0 discriminator 2
 2325 09f8 2E4B     		ldr	r3, .L194+4
 2326 09fa D3F8A430 		ldr	r3, [r3, #164]
 2327 09fe 022B     		cmp	r3, #2
 2328 0a00 3FF419AF 		beq	.L109
 525:Middlewares/ST/STM32_SPWF0xSy/wifi_module_uart_01.c ****                     if((pStr = (strstr((const char *)process_buffer+2,"\r\n"))) != NULL) 
 2329              		.loc 1 525 0 is_stmt 1
 2330 0a04 2A4A     		ldr	r2, .L194
 2331 0a06 1379     		ldrb	r3, [r2, #4]	@ zero_extendqisi2
 2332 0a08 43F00803 		orr	r3, r3, #8
 2333 0a0c 1371     		strb	r3, [r2, #4]
 526:Middlewares/ST/STM32_SPWF0xSy/wifi_module_uart_01.c ****                     {
 2334              		.loc 1 526 0
 2335 0a0e 3149     		ldr	r1, .L194+36
 2336 0a10 3148     		ldr	r0, .L194+40
 2337 0a12 FFF7FEFF 		bl	strstr
 2338              	.LVL163:
 2339 0a16 0546     		mov	r5, r0
 2340 0a18 40B3     		cbz	r0, .L113
 2341              	.LBB106:
 529:Middlewares/ST/STM32_SPWF0xSy/wifi_module_uart_01.c ****                           if(strstr((const char *)process_buffer+2,"DATALEN:")) 
 2342              		.loc 1 529 0
 2343 0a1a 294E     		ldr	r6, .L194+16
 2344 0a1c C6F10203 		rsb	r3, r6, #2
 2345 0a20 1D44     		add	r5, r5, r3
 2346              	.LVL164:
 530:Middlewares/ST/STM32_SPWF0xSy/wifi_module_uart_01.c ****                           {
 2347              		.loc 1 530 0
 2348 0a22 2E49     		ldr	r1, .L194+44
 2349 0a24 B01C     		adds	r0, r6, #2
 2350              	.LVL165:
 2351 0a26 FFF7FEFF 		bl	strstr
 2352              	.LVL166:
 2353 0a2a 40B1     		cbz	r0, .L114
 532:Middlewares/ST/STM32_SPWF0xSy/wifi_module_uart_01.c ****                                 if(pStr!=NULL)
 2354              		.loc 1 532 0
 2355 0a2c 2C49     		ldr	r1, .L194+48
 2356 0a2e 3046     		mov	r0, r6
 2357 0a30 2844     		add	r0, r0, r5
 2358 0a32 FFF7FEFF 		bl	strstr
 2359              	.LVL167:
ARM GAS  D:\cygwin64\tmp\ccuGdUOt.s 			page 74


 533:Middlewares/ST/STM32_SPWF0xSy/wifi_module_uart_01.c ****                                 {
 2360              		.loc 1 533 0
 2361 0a36 10B1     		cbz	r0, .L114
 535:Middlewares/ST/STM32_SPWF0xSy/wifi_module_uart_01.c ****                                 }
 2362              		.loc 1 535 0
 2363 0a38 C6F10605 		rsb	r5, r6, #6
 2364              	.LVL168:
 2365 0a3c 0544     		add	r5, r5, r0
 2366              	.LVL169:
 2367              	.L114:
 539:Middlewares/ST/STM32_SPWF0xSy/wifi_module_uart_01.c ****                           {
 2368              		.loc 1 539 0
 2369 0a3e AC42     		cmp	r4, r5
 2370 0a40 0FD0     		beq	.L115
 2371              	.LBB107:
 2372              	.LBB108:
 2373              		.loc 2 142 0
 2374              		.syntax unified
 2375              	@ 142 "Drivers/CMSIS/Include/cmsis_gcc.h" 1
 2376 0a42 72B6     		cpsid i
 2377              	@ 0 "" 2
 2378              		.thumb
 2379              		.syntax unified
 2380              	.LBE108:
 2381              	.LBE107:
 542:Middlewares/ST/STM32_SPWF0xSy/wifi_module_uart_01.c ****                               __enable_irq();
 2382              		.loc 1 542 0
 2383 0a44 1C4C     		ldr	r4, .L194+8
 2384 0a46 2168     		ldr	r1, [r4]
 2385 0a48 491B     		subs	r1, r1, r5
 2386 0a4a 2148     		ldr	r0, .L194+32
 2387 0a4c FFF7FEFF 		bl	rewind_buffer_queue
 2388              	.LVL170:
 2389              	.LBB109:
 2390              	.LBB110:
 131:Drivers/CMSIS/Include/cmsis_gcc.h **** }
 2391              		.loc 2 131 0
 2392              		.syntax unified
 2393              	@ 131 "Drivers/CMSIS/Include/cmsis_gcc.h" 1
 2394 0a50 62B6     		cpsie i
 2395              	@ 0 "" 2
 2396              		.thumb
 2397              		.syntax unified
 2398              	.LBE110:
 2399              	.LBE109:
 544:Middlewares/ST/STM32_SPWF0xSy/wifi_module_uart_01.c ****                               Fillptr = wind_length;
 2400              		.loc 1 544 0
 2401 0a52 2268     		ldr	r2, [r4]
 2402 0a54 521B     		subs	r2, r2, r5
 2403 0a56 0021     		movs	r1, #0
 2404 0a58 1948     		ldr	r0, .L194+16
 2405 0a5a 2844     		add	r0, r0, r5
 2406 0a5c FFF7FEFF 		bl	memset
 2407              	.LVL171:
 545:Middlewares/ST/STM32_SPWF0xSy/wifi_module_uart_01.c ****                           }
 2408              		.loc 1 545 0
 2409 0a60 2560     		str	r5, [r4]
ARM GAS  D:\cygwin64\tmp\ccuGdUOt.s 			page 75


 2410              	.L115:
 547:Middlewares/ST/STM32_SPWF0xSy/wifi_module_uart_01.c ****                       }
 2411              		.loc 1 547 0
 2412 0a62 134B     		ldr	r3, .L194
 2413 0a64 1A79     		ldrb	r2, [r3, #4]	@ zero_extendqisi2
 2414 0a66 6FF3C302 		bfc	r2, #3, #1
 2415 0a6a 1A71     		strb	r2, [r3, #4]
 2416              	.LVL172:
 2417              	.L113:
 2418              	.LBE106:
 549:Middlewares/ST/STM32_SPWF0xSy/wifi_module_uart_01.c ****                     
 2419              		.loc 1 549 0
 2420 0a6c 104A     		ldr	r2, .L194
 2421 0a6e D378     		ldrb	r3, [r2, #3]	@ zero_extendqisi2
 2422 0a70 43F00803 		orr	r3, r3, #8
 2423 0a74 D370     		strb	r3, [r2, #3]
 552:Middlewares/ST/STM32_SPWF0xSy/wifi_module_uart_01.c ****                         {
 2424              		.loc 1 552 0
 2425 0a76 104B     		ldr	r3, .L194+8
 2426 0a78 1A68     		ldr	r2, [r3]
 2427 0a7a 40F2FF13 		movw	r3, #511
 2428 0a7e 9A42     		cmp	r2, r3
 2429 0a80 7FF4D9AE 		bne	.L109
 552:Middlewares/ST/STM32_SPWF0xSy/wifi_module_uart_01.c ****                         {
 2430              		.loc 1 552 0 is_stmt 0 discriminator 1
 2431 0a84 0A4B     		ldr	r3, .L194
 2432 0a86 1B79     		ldrb	r3, [r3, #4]	@ zero_extendqisi2
 2433 0a88 13F0080F 		tst	r3, #8
 2434 0a8c 3FF4D3AE 		beq	.L109
 554:Middlewares/ST/STM32_SPWF0xSy/wifi_module_uart_01.c ****                             WiFi_Control_Variables.Q_Contains_Message = WIFI_FALSE;
 2435              		.loc 1 554 0 is_stmt 1
 2436 0a90 074B     		ldr	r3, .L194
 2437 0a92 1A79     		ldrb	r2, [r3, #4]	@ zero_extendqisi2
 2438 0a94 6FF3C302 		bfc	r2, #3, #1
 2439 0a98 1A71     		strb	r2, [r3, #4]
 555:Middlewares/ST/STM32_SPWF0xSy/wifi_module_uart_01.c ****                             WiFi_Counter_Variables.pop_queue_length   = 511;
 2440              		.loc 1 555 0
 2441 0a9a DA78     		ldrb	r2, [r3, #3]	@ zero_extendqisi2
 2442 0a9c 6FF3C302 		bfc	r2, #3, #1
 2443 0aa0 DA70     		strb	r2, [r3, #3]
 556:Middlewares/ST/STM32_SPWF0xSy/wifi_module_uart_01.c ****                         }
 2444              		.loc 1 556 0
 2445 0aa2 40F2FF12 		movw	r2, #511
 2446 0aa6 034B     		ldr	r3, .L194+4
 2447 0aa8 A3F89C20 		strh	r2, [r3, #156]	@ movhi
 2448 0aac C3E6     		b	.L109
 2449              	.L195:
 2450 0aae 00BF     		.align	2
 2451              	.L194:
 2452 0ab0 00000000 		.word	WiFi_Control_Variables
 2453 0ab4 00000000 		.word	WiFi_Counter_Variables
 2454 0ab8 00000000 		.word	.LANCHOR0
 2455 0abc 00000000 		.word	pop_buffer
 2456 0ac0 00000000 		.word	.LANCHOR1
 2457 0ac4 D0010000 		.word	.LC33
 2458 0ac8 00000000 		.word	IO_status_flag
 2459 0acc 00000000 		.word	UserDataBuff
ARM GAS  D:\cygwin64\tmp\ccuGdUOt.s 			page 76


 2460 0ad0 00000000 		.word	wifi_instances
 2461 0ad4 D8010000 		.word	.LC34
 2462 0ad8 02000000 		.word	.LANCHOR1+2
 2463 0adc DC010000 		.word	.LC35
 2464 0ae0 00000000 		.word	.LC6
 2465              	.LVL173:
 2466              	.L176:
 579:Middlewares/ST/STM32_SPWF0xSy/wifi_module_uart_01.c ****                     {
 2467              		.loc 1 579 0 discriminator 1
 2468 0ae4 6B1E     		subs	r3, r5, #1
 2469 0ae6 D35C     		ldrb	r3, [r2, r3]	@ zero_extendqisi2
 2470 0ae8 0A2B     		cmp	r3, #10
 2471 0aea 7FF4CFAE 		bne	.L117
 581:Middlewares/ST/STM32_SPWF0xSy/wifi_module_uart_01.c ****                         {
 2472              		.loc 1 581 0
 2473 0aee B649     		ldr	r1, .L196
 2474 0af0 1046     		mov	r0, r2
 2475              	.LVL174:
 2476 0af2 FFF7FEFF 		bl	strstr
 2477              	.LVL175:
 2478 0af6 0028     		cmp	r0, #0
 2479 0af8 3FD0     		beq	.L118
 587:Middlewares/ST/STM32_SPWF0xSy/wifi_module_uart_01.c ****                               {
 2480              		.loc 1 587 0
 2481 0afa C27E     		ldrb	r2, [r0, #27]	@ zero_extendqisi2
 2482 0afc 002A     		cmp	r2, #0
 2483 0afe 32D1     		bne	.L180
 2484              	.LVL176:
 2485              	.L119:
 595:Middlewares/ST/STM32_SPWF0xSy/wifi_module_uart_01.c ****                             WiFi_Counter_Variables.AT_RESPONSE = WiFi_AT_CMD_RESP_ERROR;
 2486              		.loc 1 595 0
 2487 0b00 B24A     		ldr	r2, .L196+4
 2488 0b02 5378     		ldrb	r3, [r2, #1]	@ zero_extendqisi2
 2489 0b04 43F00103 		orr	r3, r3, #1
 2490 0b08 5370     		strb	r3, [r2, #1]
 596:Middlewares/ST/STM32_SPWF0xSy/wifi_module_uart_01.c ****                         }
 2491              		.loc 1 596 0
 2492 0b0a 0D22     		movs	r2, #13
 2493 0b0c B04B     		ldr	r3, .L196+8
 2494 0b0e 83F8E820 		strb	r2, [r3, #232]
 2495              	.L120:
 634:Middlewares/ST/STM32_SPWF0xSy/wifi_module_uart_01.c ****                       WiFi_Counter_Variables.Socket_Data_Length = 0;
 2496              		.loc 1 634 0
 2497 0b12 AF4A     		ldr	r2, .L196+8
 2498 0b14 0023     		movs	r3, #0
 2499 0b16 C2F8B030 		str	r3, [r2, #176]
 635:Middlewares/ST/STM32_SPWF0xSy/wifi_module_uart_01.c ****                       WiFi_Counter_Variables.SockON_Data_Length = 0;
 2500              		.loc 1 635 0
 2501 0b1a C2F8A030 		str	r3, [r2, #160]
 636:Middlewares/ST/STM32_SPWF0xSy/wifi_module_uart_01.c ****                       WiFi_Counter_Variables.last_process_buffer_index = 5;
 2502              		.loc 1 636 0
 2503 0b1e C2F8A430 		str	r3, [r2, #164]
 637:Middlewares/ST/STM32_SPWF0xSy/wifi_module_uart_01.c ****                       WiFi_Control_Variables.enable_sock_read = WIFI_FALSE;
 2504              		.loc 1 637 0
 2505 0b22 0521     		movs	r1, #5
 2506 0b24 A2F89A10 		strh	r1, [r2, #154]	@ movhi
 638:Middlewares/ST/STM32_SPWF0xSy/wifi_module_uart_01.c ****                       WiFi_Control_Variables.stop_event_dequeue = WIFI_FALSE;
ARM GAS  D:\cygwin64\tmp\ccuGdUOt.s 			page 77


 2507              		.loc 1 638 0
 2508 0b28 AA4A     		ldr	r2, .L196+12
 2509 0b2a 9178     		ldrb	r1, [r2, #2]	@ zero_extendqisi2
 639:Middlewares/ST/STM32_SPWF0xSy/wifi_module_uart_01.c ****                       WiFi_Control_Variables.enable_receive_data_chunk = WIFI_FALSE;
 2510              		.loc 1 639 0
 2511 0b2c 1078     		ldrb	r0, [r2]	@ zero_extendqisi2
 2512 0b2e 63F3C300 		bfi	r0, r3, #3, #1
 2513 0b32 1070     		strb	r0, [r2]
 640:Middlewares/ST/STM32_SPWF0xSy/wifi_module_uart_01.c ****                       IO_status_flag.WIND64_count=0;
 2514              		.loc 1 640 0
 2515 0b34 01F0DF01 		and	r1, r1, #223
 2516 0b38 63F38201 		bfi	r1, r3, #2, #1
 2517 0b3c 9170     		strb	r1, [r2, #2]
 641:Middlewares/ST/STM32_SPWF0xSy/wifi_module_uart_01.c ****                       IO_status_flag.sock_read_ongoing = WIFI_FALSE;
 2518              		.loc 1 641 0
 2519 0b3e A348     		ldr	r0, .L196+4
 2520 0b40 4360     		str	r3, [r0, #4]
 642:Middlewares/ST/STM32_SPWF0xSy/wifi_module_uart_01.c ****                       if(WiFi_Control_Variables.data_pending_sockD)
 2521              		.loc 1 642 0
 2522 0b42 0178     		ldrb	r1, [r0]	@ zero_extendqisi2
 2523 0b44 63F30001 		bfi	r1, r3, #0, #1
 2524 0b48 0170     		strb	r1, [r0]
 643:Middlewares/ST/STM32_SPWF0xSy/wifi_module_uart_01.c ****                         {
 2525              		.loc 1 643 0
 2526 0b4a 9378     		ldrb	r3, [r2, #2]	@ zero_extendqisi2
 2527 0b4c 13F0080F 		tst	r3, #8
 2528 0b50 40D1     		bne	.L181
 2529              	.L123:
 651:Middlewares/ST/STM32_SPWF0xSy/wifi_module_uart_01.c ****                       Fillptr=0;
 2530              		.loc 1 651 0
 2531 0b52 A14C     		ldr	r4, .L196+16
 2532 0b54 2268     		ldr	r2, [r4]
 2533 0b56 0021     		movs	r1, #0
 2534 0b58 A048     		ldr	r0, .L196+20
 2535 0b5a FFF7FEFF 		bl	memset
 2536              	.LVL177:
 652:Middlewares/ST/STM32_SPWF0xSy/wifi_module_uart_01.c ****                       return;
 2537              		.loc 1 652 0
 2538 0b5e 0023     		movs	r3, #0
 2539 0b60 2360     		str	r3, [r4]
 653:Middlewares/ST/STM32_SPWF0xSy/wifi_module_uart_01.c ****                    }
 2540              		.loc 1 653 0
 2541 0b62 BDE8F087 		pop	{r4, r5, r6, r7, r8, r9, r10, pc}
 2542              	.LVL178:
 2543              	.L180:
 2544              	.LBB111:
 589:Middlewares/ST/STM32_SPWF0xSy/wifi_module_uart_01.c ****                                   int extra_bytes = Fillptr - (len+27);
 2545              		.loc 1 589 0
 2546 0b66 9D49     		ldr	r1, .L196+20
 2547 0b68 411A     		subs	r1, r0, r1
 2548              	.LVL179:
 590:Middlewares/ST/STM32_SPWF0xSy/wifi_module_uart_01.c ****                                   __disable_irq();
 2549              		.loc 1 590 0
 2550 0b6a 691A     		subs	r1, r5, r1
 2551              	.LVL180:
 2552 0b6c 1B39     		subs	r1, r1, #27
 2553              	.LVL181:
ARM GAS  D:\cygwin64\tmp\ccuGdUOt.s 			page 78


 2554              	.LBB112:
 2555              	.LBB113:
 2556              		.loc 2 142 0
 2557              		.syntax unified
 2558              	@ 142 "Drivers/CMSIS/Include/cmsis_gcc.h" 1
 2559 0b6e 72B6     		cpsid i
 2560              	@ 0 "" 2
 2561              		.thumb
 2562              		.syntax unified
 2563              	.LBE113:
 2564              	.LBE112:
 592:Middlewares/ST/STM32_SPWF0xSy/wifi_module_uart_01.c ****                                   __enable_irq();
 2565              		.loc 1 592 0
 2566 0b70 9B48     		ldr	r0, .L196+24
 2567              	.LVL182:
 2568 0b72 FFF7FEFF 		bl	rewind_buffer_queue
 2569              	.LVL183:
 2570              	.LBB114:
 2571              	.LBB115:
 131:Drivers/CMSIS/Include/cmsis_gcc.h **** }
 2572              		.loc 2 131 0
 2573              		.syntax unified
 2574              	@ 131 "Drivers/CMSIS/Include/cmsis_gcc.h" 1
 2575 0b76 62B6     		cpsie i
 2576              	@ 0 "" 2
 2577              		.thumb
 2578              		.syntax unified
 2579 0b78 C2E7     		b	.L119
 2580              	.LVL184:
 2581              	.L118:
 2582              	.LBE115:
 2583              	.LBE114:
 2584              	.LBE111:
 598:Middlewares/ST/STM32_SPWF0xSy/wifi_module_uart_01.c ****                         {
 2585              		.loc 1 598 0
 2586 0b7a 9A49     		ldr	r1, .L196+28
 2587 0b7c 9748     		ldr	r0, .L196+20
 2588              	.LVL185:
 2589 0b7e FFF7FEFF 		bl	strstr
 2590              	.LVL186:
 2591 0b82 A0B1     		cbz	r0, .L121
 604:Middlewares/ST/STM32_SPWF0xSy/wifi_module_uart_01.c ****                               {
 2592              		.loc 1 604 0
 2593 0b84 C27D     		ldrb	r2, [r0, #23]	@ zero_extendqisi2
 2594 0b86 42B9     		cbnz	r2, .L182
 2595              	.LVL187:
 2596              	.L122:
 612:Middlewares/ST/STM32_SPWF0xSy/wifi_module_uart_01.c ****                         }
 2597              		.loc 1 612 0
 2598 0b88 914B     		ldr	r3, .L196+8
 2599 0b8a 5A79     		ldrb	r2, [r3, #5]	@ zero_extendqisi2
 2600 0b8c 02F00F02 		and	r2, r2, #15
 2601 0b90 1344     		add	r3, r3, r2
 2602 0b92 0122     		movs	r2, #1
 2603 0b94 83F8E920 		strb	r2, [r3, #233]
 2604 0b98 BBE7     		b	.L120
 2605              	.LVL188:
ARM GAS  D:\cygwin64\tmp\ccuGdUOt.s 			page 79


 2606              	.L182:
 2607              	.LBB116:
 606:Middlewares/ST/STM32_SPWF0xSy/wifi_module_uart_01.c ****                                   int extra_bytes = Fillptr - (len+23);
 2608              		.loc 1 606 0
 2609 0b9a 9049     		ldr	r1, .L196+20
 2610 0b9c 411A     		subs	r1, r0, r1
 2611              	.LVL189:
 607:Middlewares/ST/STM32_SPWF0xSy/wifi_module_uart_01.c ****                                   __disable_irq();
 2612              		.loc 1 607 0
 2613 0b9e 691A     		subs	r1, r5, r1
 2614              	.LVL190:
 2615 0ba0 1739     		subs	r1, r1, #23
 2616              	.LVL191:
 2617              	.LBB117:
 2618              	.LBB118:
 2619              		.loc 2 142 0
 2620              		.syntax unified
 2621              	@ 142 "Drivers/CMSIS/Include/cmsis_gcc.h" 1
 2622 0ba2 72B6     		cpsid i
 2623              	@ 0 "" 2
 2624              		.thumb
 2625              		.syntax unified
 2626              	.LBE118:
 2627              	.LBE117:
 609:Middlewares/ST/STM32_SPWF0xSy/wifi_module_uart_01.c ****                                   __enable_irq();
 2628              		.loc 1 609 0
 2629 0ba4 8E48     		ldr	r0, .L196+24
 2630              	.LVL192:
 2631 0ba6 FFF7FEFF 		bl	rewind_buffer_queue
 2632              	.LVL193:
 2633              	.LBB119:
 2634              	.LBB120:
 131:Drivers/CMSIS/Include/cmsis_gcc.h **** }
 2635              		.loc 2 131 0
 2636              		.syntax unified
 2637              	@ 131 "Drivers/CMSIS/Include/cmsis_gcc.h" 1
 2638 0baa 62B6     		cpsie i
 2639              	@ 0 "" 2
 2640              		.thumb
 2641              		.syntax unified
 2642 0bac ECE7     		b	.L122
 2643              	.LVL194:
 2644              	.L121:
 2645              	.LBE120:
 2646              	.LBE119:
 2647              	.LBE116:
 615:Middlewares/ST/STM32_SPWF0xSy/wifi_module_uart_01.c ****                         {
 2648              		.loc 1 615 0
 2649 0bae 8E49     		ldr	r1, .L196+32
 2650 0bb0 8A48     		ldr	r0, .L196+20
 2651              	.LVL195:
 2652 0bb2 FFF7FEFF 		bl	strstr
 2653              	.LVL196:
 2654 0bb6 0028     		cmp	r0, #0
 2655 0bb8 ABD0     		beq	.L120
 621:Middlewares/ST/STM32_SPWF0xSy/wifi_module_uart_01.c ****                             {
 2656              		.loc 1 621 0
ARM GAS  D:\cygwin64\tmp\ccuGdUOt.s 			page 80


 2657 0bba C27D     		ldrb	r2, [r0, #23]	@ zero_extendqisi2
 2658 0bbc 002A     		cmp	r2, #0
 2659 0bbe A8D0     		beq	.L120
 2660              	.LBB121:
 623:Middlewares/ST/STM32_SPWF0xSy/wifi_module_uart_01.c ****                                 int extra_bytes = Fillptr - (len+23);
 2661              		.loc 1 623 0
 2662 0bc0 8649     		ldr	r1, .L196+20
 2663 0bc2 411A     		subs	r1, r0, r1
 2664              	.LVL197:
 624:Middlewares/ST/STM32_SPWF0xSy/wifi_module_uart_01.c ****                                 __disable_irq();
 2665              		.loc 1 624 0
 2666 0bc4 691A     		subs	r1, r5, r1
 2667              	.LVL198:
 2668 0bc6 1739     		subs	r1, r1, #23
 2669              	.LVL199:
 2670              	.LBB122:
 2671              	.LBB123:
 2672              		.loc 2 142 0
 2673              		.syntax unified
 2674              	@ 142 "Drivers/CMSIS/Include/cmsis_gcc.h" 1
 2675 0bc8 72B6     		cpsid i
 2676              	@ 0 "" 2
 2677              		.thumb
 2678              		.syntax unified
 2679              	.LBE123:
 2680              	.LBE122:
 626:Middlewares/ST/STM32_SPWF0xSy/wifi_module_uart_01.c ****                                 __enable_irq();
 2681              		.loc 1 626 0
 2682 0bca 8548     		ldr	r0, .L196+24
 2683              	.LVL200:
 2684 0bcc FFF7FEFF 		bl	rewind_buffer_queue
 2685              	.LVL201:
 2686              	.LBB124:
 2687              	.LBB125:
 131:Drivers/CMSIS/Include/cmsis_gcc.h **** }
 2688              		.loc 2 131 0
 2689              		.syntax unified
 2690              	@ 131 "Drivers/CMSIS/Include/cmsis_gcc.h" 1
 2691 0bd0 62B6     		cpsie i
 2692              	@ 0 "" 2
 2693              		.thumb
 2694              		.syntax unified
 2695 0bd2 9EE7     		b	.L120
 2696              	.L181:
 2697              	.LBE125:
 2698              	.LBE124:
 2699              	.LBE121:
 645:Middlewares/ST/STM32_SPWF0xSy/wifi_module_uart_01.c ****                           WiFi_Counter_Variables.number_of_bytes=0;
 2700              		.loc 1 645 0
 2701 0bd4 1346     		mov	r3, r2
 2702 0bd6 9278     		ldrb	r2, [r2, #2]	@ zero_extendqisi2
 2703 0bd8 6FF3C302 		bfc	r2, #3, #1
 2704 0bdc 9A70     		strb	r2, [r3, #2]
 646:Middlewares/ST/STM32_SPWF0xSy/wifi_module_uart_01.c ****                           WiFi_Control_Variables.switch_by_default_to_command_mode=WIFI_TRUE;
 2705              		.loc 1 646 0
 2706 0bde 0021     		movs	r1, #0
 2707 0be0 7B4A     		ldr	r2, .L196+8
ARM GAS  D:\cygwin64\tmp\ccuGdUOt.s 			page 81


 2708 0be2 C2F8A810 		str	r1, [r2, #168]
 647:Middlewares/ST/STM32_SPWF0xSy/wifi_module_uart_01.c ****                           WiFi_switch_to_command_mode(); //switch by default
 2709              		.loc 1 647 0
 2710 0be6 1A78     		ldrb	r2, [r3]	@ zero_extendqisi2
 2711 0be8 42F00102 		orr	r2, r2, #1
 2712 0bec 1A70     		strb	r2, [r3]
 648:Middlewares/ST/STM32_SPWF0xSy/wifi_module_uart_01.c ****                         }
 2713              		.loc 1 648 0
 2714 0bee FFF7FEFF 		bl	WiFi_switch_to_command_mode
 2715              	.LVL202:
 2716 0bf2 AEE7     		b	.L123
 2717              	.LVL203:
 2718              	.L177:
 659:Middlewares/ST/STM32_SPWF0xSy/wifi_module_uart_01.c **** 
 2719              		.loc 1 659 0
 2720 0bf4 764B     		ldr	r3, .L196+8
 2721 0bf6 A3F89A20 		strh	r2, [r3, #154]	@ movhi
 2722 0bfa 4EE6     		b	.L124
 2723              	.L178:
 2724              	.LBB126:
 671:Middlewares/ST/STM32_SPWF0xSy/wifi_module_uart_01.c ****                     
 2725              		.loc 1 671 0
 2726 0bfc E41A     		subs	r4, r4, r3
 2727              	.LVL204:
 2728              	.LBB127:
 2729              	.LBB128:
 2730              		.loc 2 142 0
 2731              		.syntax unified
 2732              	@ 142 "Drivers/CMSIS/Include/cmsis_gcc.h" 1
 2733 0bfe 72B6     		cpsid i
 2734              	@ 0 "" 2
 2735              		.thumb
 2736              		.syntax unified
 2737              	.LBE128:
 2738              	.LBE127:
 674:Middlewares/ST/STM32_SPWF0xSy/wifi_module_uart_01.c ****                     __enable_irq();
 2739              		.loc 1 674 0
 2740 0c00 2146     		mov	r1, r4
 2741 0c02 7748     		ldr	r0, .L196+24
 2742              	.LVL205:
 2743 0c04 FFF7FEFF 		bl	rewind_buffer_queue
 2744              	.LVL206:
 2745              	.LBB129:
 2746              	.LBB130:
 131:Drivers/CMSIS/Include/cmsis_gcc.h **** }
 2747              		.loc 2 131 0
 2748              		.syntax unified
 2749              	@ 131 "Drivers/CMSIS/Include/cmsis_gcc.h" 1
 2750 0c08 62B6     		cpsie i
 2751              	@ 0 "" 2
 2752              		.thumb
 2753              		.syntax unified
 2754              	.LBE130:
 2755              	.LBE129:
 677:Middlewares/ST/STM32_SPWF0xSy/wifi_module_uart_01.c ****                     Fillptr = Fillptr - databytes;
 2756              		.loc 1 677 0
 2757 0c0a 734E     		ldr	r6, .L196+16
ARM GAS  D:\cygwin64\tmp\ccuGdUOt.s 			page 82


 2758 0c0c 3568     		ldr	r5, [r6]
 2759 0c0e 2D1B     		subs	r5, r5, r4
 2760 0c10 2246     		mov	r2, r4
 2761 0c12 0021     		movs	r1, #0
 2762 0c14 7148     		ldr	r0, .L196+20
 2763 0c16 2844     		add	r0, r0, r5
 2764 0c18 FFF7FEFF 		bl	memset
 2765              	.LVL207:
 678:Middlewares/ST/STM32_SPWF0xSy/wifi_module_uart_01.c ****                   }
 2766              		.loc 1 678 0
 2767 0c1c 3560     		str	r5, [r6]
 2768 0c1e 44E6     		b	.L126
 2769              	.LVL208:
 2770              	.L179:
 2771              	.LBE126:
 701:Middlewares/ST/STM32_SPWF0xSy/wifi_module_uart_01.c ****                         WiFi_switch_to_command_mode();              //switch by default
 2772              		.loc 1 701 0
 2773 0c20 6C4A     		ldr	r2, .L196+12
 2774 0c22 1378     		ldrb	r3, [r2]	@ zero_extendqisi2
 2775 0c24 43F00103 		orr	r3, r3, #1
 2776 0c28 1370     		strb	r3, [r2]
 702:Middlewares/ST/STM32_SPWF0xSy/wifi_module_uart_01.c ****                       }
 2777              		.loc 1 702 0
 2778 0c2a FFF7FEFF 		bl	WiFi_switch_to_command_mode
 2779              	.LVL209:
 2780 0c2e 7AE6     		b	.L129
 2781              	.L127:
 709:Middlewares/ST/STM32_SPWF0xSy/wifi_module_uart_01.c ****                     WiFi_Counter_Variables.sockon_id_user = WiFi_Counter_Variables.sockon_query_id;
 2782              		.loc 1 709 0
 2783 0c30 684A     		ldr	r2, .L196+12
 2784 0c32 9378     		ldrb	r3, [r2, #2]	@ zero_extendqisi2
 2785 0c34 43F04003 		orr	r3, r3, #64
 2786 0c38 9370     		strb	r3, [r2, #2]
 710:Middlewares/ST/STM32_SPWF0xSy/wifi_module_uart_01.c ****                     /*@TODO: Do not need to prevent OK push in case of server socket*/
 2787              		.loc 1 710 0
 2788 0c3a 654B     		ldr	r3, .L196+8
 2789 0c3c 1A78     		ldrb	r2, [r3]	@ zero_extendqisi2
 2790 0c3e C2F3C202 		ubfx	r2, r2, #3, #3
 2791 0c42 5978     		ldrb	r1, [r3, #1]	@ zero_extendqisi2
 2792 0c44 62F3C501 		bfi	r1, r2, #3, #3
 2793 0c48 5970     		strb	r1, [r3, #1]
 712:Middlewares/ST/STM32_SPWF0xSy/wifi_module_uart_01.c ****                   }
 2794              		.loc 1 712 0
 2795 0c4a 604A     		ldr	r2, .L196+4
 2796 0c4c 1378     		ldrb	r3, [r2]	@ zero_extendqisi2
 2797 0c4e 43F00203 		orr	r3, r3, #2
 2798 0c52 1370     		strb	r3, [r2]
 2799 0c54 6CE6     		b	.L130
 2800              	.L131:
 727:Middlewares/ST/STM32_SPWF0xSy/wifi_module_uart_01.c ****                   }
 2801              		.loc 1 727 0
 2802 0c56 5F4A     		ldr	r2, .L196+12
 2803 0c58 1379     		ldrb	r3, [r2, #4]	@ zero_extendqisi2
 2804 0c5a 43F01003 		orr	r3, r3, #16
 2805 0c5e 1371     		strb	r3, [r2, #4]
 2806 0c60 83E6     		b	.L132
 2807              	.LVL210:
ARM GAS  D:\cygwin64\tmp\ccuGdUOt.s 			page 83


 2808              	.L125:
 734:Middlewares/ST/STM32_SPWF0xSy/wifi_module_uart_01.c ****               {
 2809              		.loc 1 734 0
 2810 0c62 B2F5FF7F 		cmp	r2, #510
 2811 0c66 40F2AC80 		bls	.L62
 736:Middlewares/ST/STM32_SPWF0xSy/wifi_module_uart_01.c ****                 WiFi_Counter_Variables.message_size = WiFi_Counter_Variables.SockON_Data_Length;
 2812              		.loc 1 736 0
 2813 0c6a 594C     		ldr	r4, .L196+8
 2814 0c6c 0521     		movs	r1, #5
 2815 0c6e A4F89A10 		strh	r1, [r4, #154]	@ movhi
 737:Middlewares/ST/STM32_SPWF0xSy/wifi_module_uart_01.c ****                 WiFi_Counter_Variables.chunk_size = MAX_BUFFER_GLOBAL-1;
 2816              		.loc 1 737 0
 2817 0c72 C4F8B430 		str	r3, [r4, #180]
 738:Middlewares/ST/STM32_SPWF0xSy/wifi_module_uart_01.c ****                 memcpy(UserDataBuff, process_buffer, Fillptr);
 2818              		.loc 1 738 0
 2819 0c76 40F2FF13 		movw	r3, #511
 2820 0c7a A4F89630 		strh	r3, [r4, #150]	@ movhi
 739:Middlewares/ST/STM32_SPWF0xSy/wifi_module_uart_01.c ****                 Fillptr = 0;
 2821              		.loc 1 739 0
 2822 0c7e 574D     		ldr	r5, .L196+20
 2823 0c80 2946     		mov	r1, r5
 2824 0c82 5A48     		ldr	r0, .L196+36
 2825              	.LVL211:
 2826 0c84 FFF7FEFF 		bl	memcpy
 2827              	.LVL212:
 740:Middlewares/ST/STM32_SPWF0xSy/wifi_module_uart_01.c ****                 WiFi_Counter_Variables.last_process_buffer_index = 5;
 2828              		.loc 1 740 0
 2829 0c88 0026     		movs	r6, #0
 2830 0c8a 534B     		ldr	r3, .L196+16
 2831 0c8c 1E60     		str	r6, [r3]
 742:Middlewares/ST/STM32_SPWF0xSy/wifi_module_uart_01.c ****                 Stop_Dequeue();
 2832              		.loc 1 742 0
 2833 0c8e E378     		ldrb	r3, [r4, #3]	@ zero_extendqisi2
 2834 0c90 43F00703 		orr	r3, r3, #7
 2835 0c94 E370     		strb	r3, [r4, #3]
 743:Middlewares/ST/STM32_SPWF0xSy/wifi_module_uart_01.c ****                 memset(process_buffer, 0x00, MAX_BUFFER_GLOBAL);
 2836              		.loc 1 743 0
 2837 0c96 FFF7FEFF 		bl	Stop_Dequeue
 2838              	.LVL213:
 744:Middlewares/ST/STM32_SPWF0xSy/wifi_module_uart_01.c ****                 if(WiFi_Control_Variables.data_pending_sockD)
 2839              		.loc 1 744 0
 2840 0c9a 4FF40072 		mov	r2, #512
 2841 0c9e 3146     		mov	r1, r6
 2842 0ca0 2846     		mov	r0, r5
 2843 0ca2 FFF7FEFF 		bl	memset
 2844              	.LVL214:
 745:Middlewares/ST/STM32_SPWF0xSy/wifi_module_uart_01.c ****                   {
 2845              		.loc 1 745 0
 2846 0ca6 4B4B     		ldr	r3, .L196+12
 2847 0ca8 9B78     		ldrb	r3, [r3, #2]	@ zero_extendqisi2
 2848 0caa 13F0080F 		tst	r3, #8
 2849 0cae 0AD0     		beq	.L133
 747:Middlewares/ST/STM32_SPWF0xSy/wifi_module_uart_01.c ****                     WiFi_Control_Variables.Pending_SockD_Callback = WIFI_TRUE; //callback to user w
 2850              		.loc 1 747 0
 2851 0cb0 6278     		ldrb	r2, [r4, #1]	@ zero_extendqisi2
 2852 0cb2 6FF3C502 		bfc	r2, #3, #3
 2853 0cb6 6270     		strb	r2, [r4, #1]
ARM GAS  D:\cygwin64\tmp\ccuGdUOt.s 			page 84


 748:Middlewares/ST/STM32_SPWF0xSy/wifi_module_uart_01.c ****                   }
 2854              		.loc 1 748 0
 2855 0cb8 464A     		ldr	r2, .L196+12
 2856 0cba 1379     		ldrb	r3, [r2, #4]	@ zero_extendqisi2
 2857 0cbc 43F02003 		orr	r3, r3, #32
 2858 0cc0 1371     		strb	r3, [r2, #4]
 2859 0cc2 BDE8F087 		pop	{r4, r5, r6, r7, r8, r9, r10, pc}
 2860              	.L133:
 752:Middlewares/ST/STM32_SPWF0xSy/wifi_module_uart_01.c ****                     WiFi_Control_Variables.Pending_SockON_Callback = WIFI_TRUE; //set this to callb
 2861              		.loc 1 752 0
 2862 0cc6 424B     		ldr	r3, .L196+8
 2863 0cc8 1A78     		ldrb	r2, [r3]	@ zero_extendqisi2
 2864 0cca C2F3C202 		ubfx	r2, r2, #3, #3
 2865 0cce 5978     		ldrb	r1, [r3, #1]	@ zero_extendqisi2
 2866 0cd0 62F3C501 		bfi	r1, r2, #3, #3
 2867 0cd4 5970     		strb	r1, [r3, #1]
 753:Middlewares/ST/STM32_SPWF0xSy/wifi_module_uart_01.c ****                   }
 2868              		.loc 1 753 0
 2869 0cd6 3F4A     		ldr	r2, .L196+12
 2870 0cd8 1379     		ldrb	r3, [r2, #4]	@ zero_extendqisi2
 2871 0cda 43F01003 		orr	r3, r3, #16
 2872 0cde 1371     		strb	r3, [r2, #4]
 2873 0ce0 BDE8F087 		pop	{r4, r5, r6, r7, r8, r9, r10, pc}
 2874              	.L116:
 765:Middlewares/ST/STM32_SPWF0xSy/wifi_module_uart_01.c ****         {
 2875              		.loc 1 765 0
 2876 0ce4 13F0100F 		tst	r3, #16
 2877 0ce8 00F02881 		beq	.L134
 767:Middlewares/ST/STM32_SPWF0xSy/wifi_module_uart_01.c ****             if((pStr = (strstr((const char *)process_buffer + WiFi_Counter_Variables.last_process_b
 2878              		.loc 1 767 0
 2879 0cec 374A     		ldr	r2, .L196+4
 2880 0cee 1378     		ldrb	r3, [r2]	@ zero_extendqisi2
 2881 0cf0 43F00103 		orr	r3, r3, #1
 2882 0cf4 1370     		strb	r3, [r2]
 768:Middlewares/ST/STM32_SPWF0xSy/wifi_module_uart_01.c ****               {
 2883              		.loc 1 768 0
 2884 0cf6 364B     		ldr	r3, .L196+8
 2885 0cf8 B3F89A40 		ldrh	r4, [r3, #154]
 2886 0cfc 631F     		subs	r3, r4, #5
 2887 0cfe 374C     		ldr	r4, .L196+20
 2888 0d00 1C44     		add	r4, r4, r3
 2889 0d02 3B49     		ldr	r1, .L196+40
 2890 0d04 2046     		mov	r0, r4
 2891 0d06 FFF7FEFF 		bl	strstr
 2892              	.LVL215:
 2893 0d0a 8146     		mov	r9, r0
 2894 0d0c 0028     		cmp	r0, #0
 2895 0d0e 00F08D80 		beq	.L135
 774:Middlewares/ST/STM32_SPWF0xSy/wifi_module_uart_01.c ****                     {
 2896              		.loc 1 774 0
 2897 0d12 C379     		ldrb	r3, [r0, #7]	@ zero_extendqisi2
 2898 0d14 002B     		cmp	r3, #0
 2899 0d16 6DD1     		bne	.L183
 2900              	.LVL216:
 2901              	.L136:
 786:Middlewares/ST/STM32_SPWF0xSy/wifi_module_uart_01.c ****                   memcpy(UserDataBuff, process_buffer, Fillptr);
 2902              		.loc 1 786 0
ARM GAS  D:\cygwin64\tmp\ccuGdUOt.s 			page 85


 2903 0d18 DFF8BC80 		ldr	r8, .L196+16
 2904 0d1c B8F80040 		ldrh	r4, [r8]
 2905 0d20 2B4E     		ldr	r6, .L196+8
 2906 0d22 A6F89640 		strh	r4, [r6, #150]	@ movhi
 787:Middlewares/ST/STM32_SPWF0xSy/wifi_module_uart_01.c ****                   WiFi_Counter_Variables.UserDataBuff_index = Fillptr;
 2907              		.loc 1 787 0
 2908 0d26 DFF8B4A0 		ldr	r10, .L196+20
 2909 0d2a D8F80020 		ldr	r2, [r8]
 2910 0d2e 5146     		mov	r1, r10
 2911 0d30 2E48     		ldr	r0, .L196+36
 2912 0d32 FFF7FEFF 		bl	memcpy
 2913              	.LVL217:
 788:Middlewares/ST/STM32_SPWF0xSy/wifi_module_uart_01.c ****                   IO_status_flag.AT_Response_Received = WIFI_TRUE;
 2914              		.loc 1 788 0
 2915 0d36 A6F89240 		strh	r4, [r6, #146]	@ movhi
 789:Middlewares/ST/STM32_SPWF0xSy/wifi_module_uart_01.c ****                   WiFi_Control_Variables.enable_receive_data_chunk = WIFI_FALSE;
 2916              		.loc 1 789 0
 2917 0d3a 244F     		ldr	r7, .L196+4
 2918 0d3c 7B78     		ldrb	r3, [r7, #1]	@ zero_extendqisi2
 2919 0d3e 43F00103 		orr	r3, r3, #1
 2920 0d42 7B70     		strb	r3, [r7, #1]
 790:Middlewares/ST/STM32_SPWF0xSy/wifi_module_uart_01.c ****                   WiFi_Control_Variables.enable_receive_http_response = WIFI_FALSE;
 2921              		.loc 1 790 0
 2922 0d44 234C     		ldr	r4, .L196+12
 2923 0d46 A378     		ldrb	r3, [r4, #2]	@ zero_extendqisi2
 2924 0d48 6FF38203 		bfc	r3, #2, #1
 2925 0d4c A370     		strb	r3, [r4, #2]
 791:Middlewares/ST/STM32_SPWF0xSy/wifi_module_uart_01.c ****                   Stop_Dequeue();
 2926              		.loc 1 791 0
 2927 0d4e E378     		ldrb	r3, [r4, #3]	@ zero_extendqisi2
 2928 0d50 6FF30413 		bfc	r3, #4, #1
 2929 0d54 E370     		strb	r3, [r4, #3]
 792:Middlewares/ST/STM32_SPWF0xSy/wifi_module_uart_01.c ****                   WiFi_Counter_Variables.AT_RESPONSE = WiFi_MODULE_SUCCESS;
 2930              		.loc 1 792 0
 2931 0d56 FFF7FEFF 		bl	Stop_Dequeue
 2932              	.LVL218:
 793:Middlewares/ST/STM32_SPWF0xSy/wifi_module_uart_01.c ****                   IO_status_flag.sock_read_ongoing = WIFI_FALSE;
 2933              		.loc 1 793 0
 2934 0d5a 0025     		movs	r5, #0
 2935 0d5c 86F8E850 		strb	r5, [r6, #232]
 794:Middlewares/ST/STM32_SPWF0xSy/wifi_module_uart_01.c ****                   WiFi_Control_Variables.Q_Contains_Message = WIFI_FALSE;
 2936              		.loc 1 794 0
 2937 0d60 3B78     		ldrb	r3, [r7]	@ zero_extendqisi2
 2938 0d62 65F30003 		bfi	r3, r5, #0, #1
 2939 0d66 3B70     		strb	r3, [r7]
 795:Middlewares/ST/STM32_SPWF0xSy/wifi_module_uart_01.c ****                   WiFi_Control_Variables.stop_event_dequeue = WIFI_FALSE;
 2940              		.loc 1 795 0
 2941 0d68 E378     		ldrb	r3, [r4, #3]	@ zero_extendqisi2
 2942 0d6a 65F3C303 		bfi	r3, r5, #3, #1
 2943 0d6e E370     		strb	r3, [r4, #3]
 796:Middlewares/ST/STM32_SPWF0xSy/wifi_module_uart_01.c ****                   WiFi_Counter_Variables.last_process_buffer_index = 5;
 2944              		.loc 1 796 0
 2945 0d70 2378     		ldrb	r3, [r4]	@ zero_extendqisi2
 2946 0d72 65F3C303 		bfi	r3, r5, #3, #1
 2947 0d76 2370     		strb	r3, [r4]
 797:Middlewares/ST/STM32_SPWF0xSy/wifi_module_uart_01.c ****                   memset(process_buffer, 0x00, Fillptr);
 2948              		.loc 1 797 0
ARM GAS  D:\cygwin64\tmp\ccuGdUOt.s 			page 86


 2949 0d78 0523     		movs	r3, #5
 2950 0d7a A6F89A30 		strh	r3, [r6, #154]	@ movhi
 798:Middlewares/ST/STM32_SPWF0xSy/wifi_module_uart_01.c ****                   Fillptr=0;
 2951              		.loc 1 798 0
 2952 0d7e D8F80020 		ldr	r2, [r8]
 2953 0d82 2946     		mov	r1, r5
 2954 0d84 5046     		mov	r0, r10
 2955 0d86 FFF7FEFF 		bl	memset
 2956              	.LVL219:
 799:Middlewares/ST/STM32_SPWF0xSy/wifi_module_uart_01.c **** 
 2957              		.loc 1 799 0
 2958 0d8a C8F80050 		str	r5, [r8]
 801:Middlewares/ST/STM32_SPWF0xSy/wifi_module_uart_01.c ****                     WiFi_Control_Variables.FILE_Data_available = WIFI_TRUE;
 2959              		.loc 1 801 0
 2960 0d8e E378     		ldrb	r3, [r4, #3]	@ zero_extendqisi2
 2961 0d90 13F0200F 		tst	r3, #32
 2962 0d94 44D0     		beq	.L137
 802:Middlewares/ST/STM32_SPWF0xSy/wifi_module_uart_01.c ****                   else
 2963              		.loc 1 802 0
 2964 0d96 6379     		ldrb	r3, [r4, #5]	@ zero_extendqisi2
 2965 0d98 43F00403 		orr	r3, r3, #4
 2966 0d9c 6371     		strb	r3, [r4, #5]
 2967              	.L138:
 834:Middlewares/ST/STM32_SPWF0xSy/wifi_module_uart_01.c ****                   WiFi_Counter_Variables.last_process_buffer_index = Fillptr;
 2968              		.loc 1 834 0
 2969 0d9e 0E4B     		ldr	r3, .L196+16
 2970 0da0 1A68     		ldr	r2, [r3]
 2971 0da2 052A     		cmp	r2, #5
 2972 0da4 94BF     		ite	ls
 2973 0da6 0023     		movls	r3, #0
 2974 0da8 0123     		movhi	r3, #1
 2975 0daa B9F1000F 		cmp	r9, #0
 2976 0dae 18BF     		it	ne
 2977 0db0 0023     		movne	r3, #0
 2978 0db2 13B1     		cbz	r3, .L140
 835:Middlewares/ST/STM32_SPWF0xSy/wifi_module_uart_01.c **** 
 2979              		.loc 1 835 0
 2980 0db4 064B     		ldr	r3, .L196+8
 2981 0db6 A3F89A20 		strh	r2, [r3, #154]	@ movhi
 2982              	.L140:
 837:Middlewares/ST/STM32_SPWF0xSy/wifi_module_uart_01.c ****               {
 2983              		.loc 1 837 0
 2984 0dba 40F2FF13 		movw	r3, #511
 2985 0dbe 9A42     		cmp	r2, r3
 2986 0dc0 7ED0     		beq	.L184
 2987              	.LVL220:
 2988              	.L62:
 2989 0dc2 BDE8F087 		pop	{r4, r5, r6, r7, r8, r9, r10, pc}
 2990              	.L197:
 2991 0dc6 00BF     		.align	2
 2992              	.L196:
 2993 0dc8 E8010000 		.word	.LC36
 2994 0dcc 00000000 		.word	IO_status_flag
 2995 0dd0 00000000 		.word	WiFi_Counter_Variables
 2996 0dd4 00000000 		.word	WiFi_Control_Variables
 2997 0dd8 00000000 		.word	.LANCHOR0
 2998 0ddc 00000000 		.word	.LANCHOR1
ARM GAS  D:\cygwin64\tmp\ccuGdUOt.s 			page 87


 2999 0de0 00000000 		.word	wifi_instances
 3000 0de4 28000000 		.word	.LC11
 3001 0de8 04020000 		.word	.LC37
 3002 0dec 00000000 		.word	UserDataBuff
 3003 0df0 00000000 		.word	.LC6
 3004              	.LVL221:
 3005              	.L183:
 3006              	.LBB131:
 776:Middlewares/ST/STM32_SPWF0xSy/wifi_module_uart_01.c ****                         int extra_bytes = Fillptr - (len+6);
 3007              		.loc 1 776 0
 3008 0df4 744F     		ldr	r7, .L198
 3009 0df6 C51B     		subs	r5, r0, r7
 3010              	.LVL222:
 777:Middlewares/ST/STM32_SPWF0xSy/wifi_module_uart_01.c ****                         __disable_irq();
 3011              		.loc 1 777 0
 3012 0df8 744E     		ldr	r6, .L198+4
 3013 0dfa 3468     		ldr	r4, [r6]
 3014 0dfc 641B     		subs	r4, r4, r5
 3015 0dfe 063C     		subs	r4, r4, #6
 3016              	.LVL223:
 3017              	.LBB132:
 3018              	.LBB133:
 3019              		.loc 2 142 0
 3020              		.syntax unified
 3021              	@ 142 "Drivers/CMSIS/Include/cmsis_gcc.h" 1
 3022 0e00 72B6     		cpsid i
 3023              	@ 0 "" 2
 3024              		.thumb
 3025              		.syntax unified
 3026              	.LBE133:
 3027              	.LBE132:
 779:Middlewares/ST/STM32_SPWF0xSy/wifi_module_uart_01.c ****                         __enable_irq();
 3028              		.loc 1 779 0
 3029 0e02 2146     		mov	r1, r4
 3030 0e04 7248     		ldr	r0, .L198+8
 3031              	.LVL224:
 3032 0e06 FFF7FEFF 		bl	rewind_buffer_queue
 3033              	.LVL225:
 3034              	.LBB134:
 3035              	.LBB135:
 131:Drivers/CMSIS/Include/cmsis_gcc.h **** }
 3036              		.loc 2 131 0
 3037              		.syntax unified
 3038              	@ 131 "Drivers/CMSIS/Include/cmsis_gcc.h" 1
 3039 0e0a 62B6     		cpsie i
 3040              	@ 0 "" 2
 3041              		.thumb
 3042              		.syntax unified
 3043              	.LBE135:
 3044              	.LBE134:
 782:Middlewares/ST/STM32_SPWF0xSy/wifi_module_uart_01.c ****                         Fillptr = Fillptr - extra_bytes;
 3045              		.loc 1 782 0
 3046 0e0c E81D     		adds	r0, r5, #7
 3047 0e0e 2246     		mov	r2, r4
 3048 0e10 0021     		movs	r1, #0
 3049 0e12 3844     		add	r0, r0, r7
 3050 0e14 FFF7FEFF 		bl	memset
ARM GAS  D:\cygwin64\tmp\ccuGdUOt.s 			page 88


 3051              	.LVL226:
 783:Middlewares/ST/STM32_SPWF0xSy/wifi_module_uart_01.c ****                     }
 3052              		.loc 1 783 0
 3053 0e18 3368     		ldr	r3, [r6]
 3054 0e1a 1C1B     		subs	r4, r3, r4
 3055              	.LVL227:
 3056 0e1c 3460     		str	r4, [r6]
 3057 0e1e 7BE7     		b	.L136
 3058              	.LVL228:
 3059              	.L137:
 3060              	.LBE131:
 804:Middlewares/ST/STM32_SPWF0xSy/wifi_module_uart_01.c ****               }
 3061              		.loc 1 804 0
 3062 0e20 6C4A     		ldr	r2, .L198+12
 3063 0e22 5379     		ldrb	r3, [r2, #5]	@ zero_extendqisi2
 3064 0e24 43F00203 		orr	r3, r3, #2
 3065 0e28 5371     		strb	r3, [r2, #5]
 3066 0e2a B8E7     		b	.L138
 3067              	.LVL229:
 3068              	.L135:
 807:Middlewares/ST/STM32_SPWF0xSy/wifi_module_uart_01.c ****               {
 3069              		.loc 1 807 0
 3070 0e2c 6A49     		ldr	r1, .L198+16
 3071 0e2e 2046     		mov	r0, r4
 3072              	.LVL230:
 3073 0e30 FFF7FEFF 		bl	strstr
 3074              	.LVL231:
 3075 0e34 8146     		mov	r9, r0
 3076 0e36 0028     		cmp	r0, #0
 3077 0e38 B1D0     		beq	.L138
 810:Middlewares/ST/STM32_SPWF0xSy/wifi_module_uart_01.c ****                   if((process_buffer[Fillptr-2]==0xD) && (process_buffer[Fillptr-1]==0xA))
 3078              		.loc 1 810 0
 3079 0e3a 664B     		ldr	r3, .L198+12
 3080 0e3c 9A78     		ldrb	r2, [r3, #2]	@ zero_extendqisi2
 3081 0e3e 6FF38202 		bfc	r2, #2, #1
 3082 0e42 9A70     		strb	r2, [r3, #2]
 811:Middlewares/ST/STM32_SPWF0xSy/wifi_module_uart_01.c ****                   {
 3083              		.loc 1 811 0
 3084 0e44 614B     		ldr	r3, .L198+4
 3085 0e46 1B68     		ldr	r3, [r3]
 3086 0e48 9A1E     		subs	r2, r3, #2
 3087 0e4a 5F49     		ldr	r1, .L198
 3088 0e4c 8A5C     		ldrb	r2, [r1, r2]	@ zero_extendqisi2
 3089 0e4e 0D2A     		cmp	r2, #13
 3090 0e50 A5D1     		bne	.L138
 811:Middlewares/ST/STM32_SPWF0xSy/wifi_module_uart_01.c ****                   {
 3091              		.loc 1 811 0 is_stmt 0 discriminator 1
 3092 0e52 013B     		subs	r3, r3, #1
 3093 0e54 CB5C     		ldrb	r3, [r1, r3]	@ zero_extendqisi2
 3094 0e56 0A2B     		cmp	r3, #10
 3095 0e58 A1D1     		bne	.L138
 816:Middlewares/ST/STM32_SPWF0xSy/wifi_module_uart_01.c ****                       WiFi_Counter_Variables.AT_RESPONSE = WiFi_AT_CMD_RESP_ERROR;
 3096              		.loc 1 816 0 is_stmt 1
 3097 0e5a 604B     		ldr	r3, .L198+20
 3098 0e5c 5A78     		ldrb	r2, [r3, #1]	@ zero_extendqisi2
 3099 0e5e 42F00102 		orr	r2, r2, #1
 3100 0e62 5A70     		strb	r2, [r3, #1]
ARM GAS  D:\cygwin64\tmp\ccuGdUOt.s 			page 89


 817:Middlewares/ST/STM32_SPWF0xSy/wifi_module_uart_01.c ****                       IO_status_flag.sock_read_ongoing = WIFI_FALSE;
 3101              		.loc 1 817 0
 3102 0e64 5E48     		ldr	r0, .L198+24
 3103              	.LVL232:
 3104 0e66 0D22     		movs	r2, #13
 3105 0e68 80F8E820 		strb	r2, [r0, #232]
 818:Middlewares/ST/STM32_SPWF0xSy/wifi_module_uart_01.c ****                       WiFi_Control_Variables.enable_receive_data_chunk = WIFI_FALSE;
 3106              		.loc 1 818 0
 3107 0e6c 1A78     		ldrb	r2, [r3]	@ zero_extendqisi2
 3108 0e6e 6FF30002 		bfc	r2, #0, #1
 3109 0e72 1A70     		strb	r2, [r3]
 820:Middlewares/ST/STM32_SPWF0xSy/wifi_module_uart_01.c ****                       Fillptr=0;
 3110              		.loc 1 820 0
 3111 0e74 574A     		ldr	r2, .L198+12
 3112 0e76 D378     		ldrb	r3, [r2, #3]	@ zero_extendqisi2
 821:Middlewares/ST/STM32_SPWF0xSy/wifi_module_uart_01.c ****                       WiFi_Counter_Variables.last_process_buffer_index = 5;
 3113              		.loc 1 821 0
 3114 0e78 0021     		movs	r1, #0
 3115 0e7a 544C     		ldr	r4, .L198+4
 3116 0e7c 2160     		str	r1, [r4]
 822:Middlewares/ST/STM32_SPWF0xSy/wifi_module_uart_01.c ****                       WiFi_Control_Variables.enable_receive_http_response = WIFI_FALSE;
 3117              		.loc 1 822 0
 3118 0e7e 0524     		movs	r4, #5
 3119 0e80 A0F89A40 		strh	r4, [r0, #154]	@ movhi
 823:Middlewares/ST/STM32_SPWF0xSy/wifi_module_uart_01.c ****                       WiFi_Control_Variables.stop_event_dequeue = WIFI_FALSE;
 3120              		.loc 1 823 0
 3121 0e84 03F0F703 		and	r3, r3, #247
 3122 0e88 61F30413 		bfi	r3, r1, #4, #1
 3123 0e8c 1C46     		mov	r4, r3
 3124 0e8e D370     		strb	r3, [r2, #3]
 824:Middlewares/ST/STM32_SPWF0xSy/wifi_module_uart_01.c ****                       memset(process_buffer, 0x00, MAX_BUFFER_GLOBAL);
 3125              		.loc 1 824 0
 3126 0e90 1378     		ldrb	r3, [r2]	@ zero_extendqisi2
 3127 0e92 61F3C303 		bfi	r3, r1, #3, #1
 3128 0e96 1370     		strb	r3, [r2]
 825:Middlewares/ST/STM32_SPWF0xSy/wifi_module_uart_01.c **** 
 3129              		.loc 1 825 0
 3130 0e98 4FF40072 		mov	r2, #512
 3131 0e9c 4A48     		ldr	r0, .L198
 3132 0e9e FFF7FEFF 		bl	memset
 3133              	.LVL233:
 827:Middlewares/ST/STM32_SPWF0xSy/wifi_module_uart_01.c ****                         WiFi_Control_Variables.FILE_Data_available = WIFI_FALSE;
 3134              		.loc 1 827 0
 3135 0ea2 14F0200F 		tst	r4, #32
 3136 0ea6 05D0     		beq	.L139
 828:Middlewares/ST/STM32_SPWF0xSy/wifi_module_uart_01.c ****                       else
 3137              		.loc 1 828 0
 3138 0ea8 4A4B     		ldr	r3, .L198+12
 3139 0eaa 5A79     		ldrb	r2, [r3, #5]	@ zero_extendqisi2
 3140 0eac 6FF38202 		bfc	r2, #2, #1
 3141 0eb0 5A71     		strb	r2, [r3, #5]
 3142 0eb2 74E7     		b	.L138
 3143              	.L139:
 830:Middlewares/ST/STM32_SPWF0xSy/wifi_module_uart_01.c ****                   }
 3144              		.loc 1 830 0
 3145 0eb4 474B     		ldr	r3, .L198+12
 3146 0eb6 5A79     		ldrb	r2, [r3, #5]	@ zero_extendqisi2
ARM GAS  D:\cygwin64\tmp\ccuGdUOt.s 			page 90


 3147 0eb8 6FF34102 		bfc	r2, #1, #1
 3148 0ebc 5A71     		strb	r2, [r3, #5]
 3149 0ebe 6EE7     		b	.L138
 3150              	.L184:
 839:Middlewares/ST/STM32_SPWF0xSy/wifi_module_uart_01.c ****                   memcpy(&HTTP_Runway_Buff, &UserDataBuff[505], 6); //for storing the last 6 bytes 
 3151              		.loc 1 839 0
 3152 0ec0 484F     		ldr	r7, .L198+28
 3153 0ec2 414E     		ldr	r6, .L198
 3154 0ec4 3146     		mov	r1, r6
 3155 0ec6 3846     		mov	r0, r7
 3156 0ec8 FFF7FEFF 		bl	memcpy
 3157              	.LVL234:
 840:Middlewares/ST/STM32_SPWF0xSy/wifi_module_uart_01.c ****                   memset(&UserDataBuff[505], 0x00, 6);
 3158              		.loc 1 840 0
 3159 0ecc 464C     		ldr	r4, .L198+32
 3160 0ece D7F8F901 		ldr	r0, [r7, #505]	@ unaligned
 3161 0ed2 2060     		str	r0, [r4]
 3162 0ed4 B7F8FD21 		ldrh	r2, [r7, #509]	@ unaligned
 3163 0ed8 A280     		strh	r2, [r4, #4]	@ unaligned
 841:Middlewares/ST/STM32_SPWF0xSy/wifi_module_uart_01.c ****                   memset(process_buffer, 0x00, MAX_BUFFER_GLOBAL);
 3164              		.loc 1 841 0
 3165 0eda 0025     		movs	r5, #0
 3166 0edc C7F8F951 		str	r5, [r7, #505]	@ unaligned
 3167 0ee0 A7F8FD51 		strh	r5, [r7, #509]	@ unaligned
 842:Middlewares/ST/STM32_SPWF0xSy/wifi_module_uart_01.c ****                   memcpy(&process_buffer, &HTTP_Runway_Buff, 6);
 3168              		.loc 1 842 0
 3169 0ee4 4FF40072 		mov	r2, #512
 3170 0ee8 2946     		mov	r1, r5
 3171 0eea 3046     		mov	r0, r6
 3172 0eec FFF7FEFF 		bl	memset
 3173              	.LVL235:
 843:Middlewares/ST/STM32_SPWF0xSy/wifi_module_uart_01.c ****                   memset(HTTP_Runway_Buff, 0x00, 6);
 3174              		.loc 1 843 0
 3175 0ef0 94E80300 		ldm	r4, {r0, r1}
 3176 0ef4 3060     		str	r0, [r6]
 3177 0ef6 B180     		strh	r1, [r6, #4]	@ movhi
 844:Middlewares/ST/STM32_SPWF0xSy/wifi_module_uart_01.c ****                   Fillptr = 6;
 3178              		.loc 1 844 0
 3179 0ef8 2560     		str	r5, [r4]
 3180 0efa A580     		strh	r5, [r4, #4]	@ movhi
 845:Middlewares/ST/STM32_SPWF0xSy/wifi_module_uart_01.c ****                   WiFi_Counter_Variables.last_process_buffer_index = 5;
 3181              		.loc 1 845 0
 3182 0efc 0622     		movs	r2, #6
 3183 0efe 334B     		ldr	r3, .L198+4
 3184 0f00 1A60     		str	r2, [r3]
 846:Middlewares/ST/STM32_SPWF0xSy/wifi_module_uart_01.c ****                   WiFi_Counter_Variables.UserDataBuff_index = 505;
 3185              		.loc 1 846 0
 3186 0f02 374B     		ldr	r3, .L198+24
 3187 0f04 0522     		movs	r2, #5
 3188 0f06 A3F89A20 		strh	r2, [r3, #154]	@ movhi
 847:Middlewares/ST/STM32_SPWF0xSy/wifi_module_uart_01.c ****                   Stop_Dequeue();
 3189              		.loc 1 847 0
 3190 0f0a 40F2F912 		movw	r2, #505
 3191 0f0e A3F89220 		strh	r2, [r3, #146]	@ movhi
 848:Middlewares/ST/STM32_SPWF0xSy/wifi_module_uart_01.c **** 
 3192              		.loc 1 848 0
 3193 0f12 FFF7FEFF 		bl	Stop_Dequeue
ARM GAS  D:\cygwin64\tmp\ccuGdUOt.s 			page 91


 3194              	.LVL236:
 850:Middlewares/ST/STM32_SPWF0xSy/wifi_module_uart_01.c ****                     WiFi_Control_Variables.FILE_Data_available = WIFI_TRUE;
 3195              		.loc 1 850 0
 3196 0f16 2F4B     		ldr	r3, .L198+12
 3197 0f18 DB78     		ldrb	r3, [r3, #3]	@ zero_extendqisi2
 3198 0f1a 13F0200F 		tst	r3, #32
 3199 0f1e 06D0     		beq	.L141
 851:Middlewares/ST/STM32_SPWF0xSy/wifi_module_uart_01.c ****                   else
 3200              		.loc 1 851 0
 3201 0f20 2C4A     		ldr	r2, .L198+12
 3202 0f22 5379     		ldrb	r3, [r2, #5]	@ zero_extendqisi2
 3203 0f24 43F00403 		orr	r3, r3, #4
 3204 0f28 5371     		strb	r3, [r2, #5]
 3205 0f2a BDE8F087 		pop	{r4, r5, r6, r7, r8, r9, r10, pc}
 3206              	.LVL237:
 3207              	.L141:
 853:Middlewares/ST/STM32_SPWF0xSy/wifi_module_uart_01.c ****               }
 3208              		.loc 1 853 0
 3209 0f2e 294A     		ldr	r2, .L198+12
 3210 0f30 5379     		ldrb	r3, [r2, #5]	@ zero_extendqisi2
 3211 0f32 43F00203 		orr	r3, r3, #2
 3212 0f36 5371     		strb	r3, [r2, #5]
 3213 0f38 BDE8F087 		pop	{r4, r5, r6, r7, r8, r9, r10, pc}
 3214              	.LVL238:
 3215              	.L134:
 864:Middlewares/ST/STM32_SPWF0xSy/wifi_module_uart_01.c ****       {
 3216              		.loc 1 864 0
 3217 0f3c 03F08803 		and	r3, r3, #136
 3218 0f40 802B     		cmp	r3, #128
 3219 0f42 2BD0     		beq	.L185
 3220              	.LVL239:
 3221              	.L142:
 992:Middlewares/ST/STM32_SPWF0xSy/wifi_module_uart_01.c ****       {
 3222              		.loc 1 992 0
 3223 0f44 234B     		ldr	r3, .L198+12
 3224 0f46 DB78     		ldrb	r3, [r3, #3]	@ zero_extendqisi2
 3225 0f48 03F00C03 		and	r3, r3, #12
 3226 0f4c 042B     		cmp	r3, #4
 3227 0f4e 7FF438AF 		bne	.L62
 995:Middlewares/ST/STM32_SPWF0xSy/wifi_module_uart_01.c ****             #endif
 3228              		.loc 1 995 0
 3229 0f52 2A20     		movs	r0, #42
 3230 0f54 FFF7FEFF 		bl	putchar
 3231              	.LVL240:
 998:Middlewares/ST/STM32_SPWF0xSy/wifi_module_uart_01.c ****               {
 3232              		.loc 1 998 0
 3233 0f58 2449     		ldr	r1, .L198+36
 3234 0f5a 1B48     		ldr	r0, .L198
 3235 0f5c FFF7FEFF 		bl	strstr
 3236              	.LVL241:
 3237 0f60 60B1     		cbz	r0, .L159
1001:Middlewares/ST/STM32_SPWF0xSy/wifi_module_uart_01.c ****                 if((process_buffer[Fillptr-2]==0xD) && (process_buffer[Fillptr-1]==0xA))
 3238              		.loc 1 1001 0
 3239 0f62 1C4B     		ldr	r3, .L198+12
 3240 0f64 9A78     		ldrb	r2, [r3, #2]	@ zero_extendqisi2
 3241 0f66 6FF38202 		bfc	r2, #2, #1
 3242 0f6a 9A70     		strb	r2, [r3, #2]
ARM GAS  D:\cygwin64\tmp\ccuGdUOt.s 			page 92


1002:Middlewares/ST/STM32_SPWF0xSy/wifi_module_uart_01.c ****                 {
 3243              		.loc 1 1002 0
 3244 0f6c 174B     		ldr	r3, .L198+4
 3245 0f6e 1B68     		ldr	r3, [r3]
 3246 0f70 9A1E     		subs	r2, r3, #2
 3247 0f72 1549     		ldr	r1, .L198
 3248 0f74 8A5C     		ldrb	r2, [r1, r2]	@ zero_extendqisi2
 3249 0f76 0D2A     		cmp	r2, #13
 3250 0f78 00F02D81 		beq	.L186
 3251              	.LVL242:
 3252              	.L159:
1014:Middlewares/ST/STM32_SPWF0xSy/wifi_module_uart_01.c ****               {
 3253              		.loc 1 1014 0
 3254 0f7c 134B     		ldr	r3, .L198+4
 3255 0f7e 1A68     		ldr	r2, [r3]
 3256 0f80 40F2FF13 		movw	r3, #511
 3257 0f84 9A42     		cmp	r2, r3
 3258 0f86 7FF41CAF 		bne	.L62
1016:Middlewares/ST/STM32_SPWF0xSy/wifi_module_uart_01.c ****                 memset(process_buffer, 0x00, MAX_BUFFER_GLOBAL);
 3259              		.loc 1 1016 0
 3260 0f8a 0021     		movs	r1, #0
 3261 0f8c 0F4B     		ldr	r3, .L198+4
 3262 0f8e 1960     		str	r1, [r3]
1017:Middlewares/ST/STM32_SPWF0xSy/wifi_module_uart_01.c ****               }
 3263              		.loc 1 1017 0
 3264 0f90 4FF40072 		mov	r2, #512
 3265 0f94 0C48     		ldr	r0, .L198
 3266 0f96 FFF7FEFF 		bl	memset
 3267              	.LVL243:
 3268 0f9a 12E7     		b	.L62
 3269              	.LVL244:
 3270              	.L185:
 867:Middlewares/ST/STM32_SPWF0xSy/wifi_module_uart_01.c ****               {
 3271              		.loc 1 867 0
 3272 0f9c 0B4B     		ldr	r3, .L198+4
 3273 0f9e 1B68     		ldr	r3, [r3]
 3274 0fa0 9A1E     		subs	r2, r3, #2
 3275 0fa2 0949     		ldr	r1, .L198
 3276 0fa4 8A5C     		ldrb	r2, [r1, r2]	@ zero_extendqisi2
 3277 0fa6 0D2A     		cmp	r2, #13
 3278 0fa8 22D0     		beq	.L187
 3279              	.LVL245:
 3280              	.L143:
 975:Middlewares/ST/STM32_SPWF0xSy/wifi_module_uart_01.c ****               {
 3281              		.loc 1 975 0
 3282 0faa 084B     		ldr	r3, .L198+4
 3283 0fac 1B68     		ldr	r3, [r3]
 3284 0fae B3F5FF7F 		cmp	r3, #510
 3285 0fb2 C7D9     		bls	.L142
 980:Middlewares/ST/STM32_SPWF0xSy/wifi_module_uart_01.c ****                 memset(process_buffer, 0x00, MAX_BUFFER_GLOBAL); 
 3286              		.loc 1 980 0
 3287 0fb4 0021     		movs	r1, #0
 3288 0fb6 054B     		ldr	r3, .L198+4
 3289 0fb8 1960     		str	r1, [r3]
 981:Middlewares/ST/STM32_SPWF0xSy/wifi_module_uart_01.c ****               }
 3290              		.loc 1 981 0
 3291 0fba 4FF40072 		mov	r2, #512
ARM GAS  D:\cygwin64\tmp\ccuGdUOt.s 			page 93


 3292 0fbe 0248     		ldr	r0, .L198
 3293 0fc0 FFF7FEFF 		bl	memset
 3294              	.LVL246:
 3295 0fc4 BEE7     		b	.L142
 3296              	.L199:
 3297 0fc6 00BF     		.align	2
 3298              	.L198:
 3299 0fc8 00000000 		.word	.LANCHOR1
 3300 0fcc 00000000 		.word	.LANCHOR0
 3301 0fd0 00000000 		.word	wifi_instances
 3302 0fd4 00000000 		.word	WiFi_Control_Variables
 3303 0fd8 20000000 		.word	.LC10
 3304 0fdc 00000000 		.word	IO_status_flag
 3305 0fe0 00000000 		.word	WiFi_Counter_Variables
 3306 0fe4 00000000 		.word	UserDataBuff
 3307 0fe8 00000000 		.word	.LANCHOR2
 3308 0fec 54020000 		.word	.LC45
 3309              	.LVL247:
 3310              	.L187:
 867:Middlewares/ST/STM32_SPWF0xSy/wifi_module_uart_01.c ****               {
 3311              		.loc 1 867 0 discriminator 1
 3312 0ff0 013B     		subs	r3, r3, #1
 3313 0ff2 CB5C     		ldrb	r3, [r1, r3]	@ zero_extendqisi2
 3314 0ff4 0A2B     		cmp	r3, #10
 3315 0ff6 D8D1     		bne	.L143
 872:Middlewares/ST/STM32_SPWF0xSy/wifi_module_uart_01.c ****                 
 3316              		.loc 1 872 0
 3317 0ff8 824B     		ldr	r3, .L200
 3318 0ffa 1B68     		ldr	r3, [r3]
 3319 0ffc 9868     		ldr	r0, [r3, #8]
 3320 0ffe FFF7FEFF 		bl	fflush
 3321              	.LVL248:
 874:Middlewares/ST/STM32_SPWF0xSy/wifi_module_uart_01.c ****                   {
 3322              		.loc 1 874 0
 3323 1002 814A     		ldr	r2, .L200+4
 3324 1004 537B     		ldrb	r3, [r2, #13]	@ zero_extendqisi2
 3325 1006 DBB2     		uxtb	r3, r3
 3326 1008 127B     		ldrb	r2, [r2, #12]	@ zero_extendqisi2
 3327 100a 9342     		cmp	r3, r2
 3328 100c 79D2     		bcs	.L144
 876:Middlewares/ST/STM32_SPWF0xSy/wifi_module_uart_01.c ****                       if(pStr != NULL)
 3329              		.loc 1 876 0
 3330 100e 7F49     		ldr	r1, .L200+8
 3331 1010 7F48     		ldr	r0, .L200+12
 3332 1012 FFF7FEFF 		bl	strstr
 3333              	.LVL249:
 877:Middlewares/ST/STM32_SPWF0xSy/wifi_module_uart_01.c ****                           {
 3334              		.loc 1 877 0
 3335 1016 48B1     		cbz	r0, .L145
 879:Middlewares/ST/STM32_SPWF0xSy/wifi_module_uart_01.c ****                               databytes_No[1] = *(pStr + 7) ;
 3336              		.loc 1 879 0
 3337 1018 8379     		ldrb	r3, [r0, #6]	@ zero_extendqisi2
 880:Middlewares/ST/STM32_SPWF0xSy/wifi_module_uart_01.c ****                     
 3338              		.loc 1 880 0
 3339 101a C279     		ldrb	r2, [r0, #7]	@ zero_extendqisi2
 882:Middlewares/ST/STM32_SPWF0xSy/wifi_module_uart_01.c ****                           }
 3340              		.loc 1 882 0
ARM GAS  D:\cygwin64\tmp\ccuGdUOt.s 			page 94


 3341 101c 303B     		subs	r3, r3, #48
 3342 101e 03EB8303 		add	r3, r3, r3, lsl #2
 3343 1022 02EB4303 		add	r3, r2, r3, lsl #1
 3344 1026 303B     		subs	r3, r3, #48
 3345 1028 7A4A     		ldr	r2, .L200+16
 3346 102a 1370     		strb	r3, [r2]
 3347              	.L145:
 885:Middlewares/ST/STM32_SPWF0xSy/wifi_module_uart_01.c **** 
 3348              		.loc 1 885 0
 3349 102c 764B     		ldr	r3, .L200+4
 3350 102e 5B7B     		ldrb	r3, [r3, #13]	@ zero_extendqisi2
 3351 1030 2C22     		movs	r2, #44
 3352 1032 03FB02F3 		mul	r3, r3, r2
 3353 1036 784A     		ldr	r2, .L200+20
 3354 1038 1268     		ldr	r2, [r2]
 3355 103a 7649     		ldr	r1, .L200+16
 3356 103c 0978     		ldrb	r1, [r1]	@ zero_extendqisi2
 3357 103e D154     		strb	r1, [r2, r3]
 887:Middlewares/ST/STM32_SPWF0xSy/wifi_module_uart_01.c ****                       if(pStr != NULL)
 3358              		.loc 1 887 0
 3359 1040 7649     		ldr	r1, .L200+24
 3360 1042 7348     		ldr	r0, .L200+12
 3361              	.LVL250:
 3362 1044 FFF7FEFF 		bl	strstr
 3363              	.LVL251:
 888:Middlewares/ST/STM32_SPWF0xSy/wifi_module_uart_01.c ****                           {
 3364              		.loc 1 888 0
 3365 1048 0028     		cmp	r0, #0
 3366 104a 7DD0     		beq	.L161
 890:Middlewares/ST/STM32_SPWF0xSy/wifi_module_uart_01.c ****                               databytes_No[1] = *(pStr + 8) ;
 3367              		.loc 1 890 0
 3368 104c C379     		ldrb	r3, [r0, #7]	@ zero_extendqisi2
 891:Middlewares/ST/STM32_SPWF0xSy/wifi_module_uart_01.c ****                     
 3369              		.loc 1 891 0
 3370 104e 027A     		ldrb	r2, [r0, #8]	@ zero_extendqisi2
 893:Middlewares/ST/STM32_SPWF0xSy/wifi_module_uart_01.c ****                           }
 3371              		.loc 1 893 0
 3372 1050 303B     		subs	r3, r3, #48
 3373 1052 303A     		subs	r2, r2, #48
 3374 1054 0A21     		movs	r1, #10
 3375 1056 01FB0323 		mla	r3, r1, r3, r2
 3376              	.LVL252:
 3377              	.L146:
 896:Middlewares/ST/STM32_SPWF0xSy/wifi_module_uart_01.c **** 
 3378              		.loc 1 896 0
 3379 105a 6F4A     		ldr	r2, .L200+20
 3380 105c 1468     		ldr	r4, [r2]
 3381 105e 6A4A     		ldr	r2, .L200+4
 3382 1060 517B     		ldrb	r1, [r2, #13]	@ zero_extendqisi2
 3383 1062 2C22     		movs	r2, #44
 3384 1064 01FB0242 		mla	r2, r1, r2, r4
 3385 1068 5B42     		negs	r3, r3
 3386              	.LVL253:
 3387 106a 5360     		str	r3, [r2, #4]
 898:Middlewares/ST/STM32_SPWF0xSy/wifi_module_uart_01.c ****                       if(pStr != NULL)
 3388              		.loc 1 898 0
 3389 106c 6C49     		ldr	r1, .L200+28
ARM GAS  D:\cygwin64\tmp\ccuGdUOt.s 			page 95


 3390 106e 6848     		ldr	r0, .L200+12
 3391              	.LVL254:
 3392 1070 FFF7FEFF 		bl	strstr
 3393              	.LVL255:
 899:Middlewares/ST/STM32_SPWF0xSy/wifi_module_uart_01.c ****                           {
 3394              		.loc 1 899 0
 3395 1074 0546     		mov	r5, r0
 3396 1076 A8B1     		cbz	r0, .L147
 901:Middlewares/ST/STM32_SPWF0xSy/wifi_module_uart_01.c ****                               while(*(pStr + index) != 0x27)
 3397              		.loc 1 901 0
 3398 1078 0722     		movs	r2, #7
 3399 107a 6A4B     		ldr	r3, .L200+32
 3400 107c 1A70     		strb	r2, [r3]
 3401              	.LVL256:
 3402              	.L148:
 902:Middlewares/ST/STM32_SPWF0xSy/wifi_module_uart_01.c ****                                   {
 3403              		.loc 1 902 0
 3404 107e 694B     		ldr	r3, .L200+32
 3405 1080 1B78     		ldrb	r3, [r3]	@ zero_extendqisi2
 3406 1082 E95C     		ldrb	r1, [r5, r3]	@ zero_extendqisi2
 3407 1084 2729     		cmp	r1, #39
 3408 1086 0DD0     		beq	.L147
 904:Middlewares/ST/STM32_SPWF0xSy/wifi_module_uart_01.c ****                                       index++;
 3409              		.loc 1 904 0
 3410 1088 5F4A     		ldr	r2, .L200+4
 3411 108a 507B     		ldrb	r0, [r2, #13]	@ zero_extendqisi2
 3412 108c 2C22     		movs	r2, #44
 3413 108e 00FB0242 		mla	r2, r0, r2, r4
 3414 1092 D81F     		subs	r0, r3, #7
 3415 1094 0244     		add	r2, r2, r0
 3416 1096 1172     		strb	r1, [r2, #8]
 905:Middlewares/ST/STM32_SPWF0xSy/wifi_module_uart_01.c ****                                       if(index==35) break; //max ssid lenght is 30 characters
 3417              		.loc 1 905 0
 3418 1098 0133     		adds	r3, r3, #1
 3419 109a DBB2     		uxtb	r3, r3
 3420 109c 614A     		ldr	r2, .L200+32
 3421 109e 1370     		strb	r3, [r2]
 906:Middlewares/ST/STM32_SPWF0xSy/wifi_module_uart_01.c ****                                   }                                
 3422              		.loc 1 906 0
 3423 10a0 232B     		cmp	r3, #35
 3424 10a2 ECD1     		bne	.L148
 3425              	.L147:
 910:Middlewares/ST/STM32_SPWF0xSy/wifi_module_uart_01.c ****                       if(pStr != NULL)
 3426              		.loc 1 910 0
 3427 10a4 6049     		ldr	r1, .L200+36
 3428 10a6 5A48     		ldr	r0, .L200+12
 3429 10a8 FFF7FEFF 		bl	strstr
 3430              	.LVL257:
 911:Middlewares/ST/STM32_SPWF0xSy/wifi_module_uart_01.c ****                           {
 3431              		.loc 1 911 0
 3432 10ac 0028     		cmp	r0, #0
 3433 10ae 4DD0     		beq	.L150
 913:Middlewares/ST/STM32_SPWF0xSy/wifi_module_uart_01.c ****                           } else
 3434              		.loc 1 913 0
 3435 10b0 554B     		ldr	r3, .L200+4
 3436 10b2 5A7B     		ldrb	r2, [r3, #13]	@ zero_extendqisi2
 3437 10b4 2C23     		movs	r3, #44
ARM GAS  D:\cygwin64\tmp\ccuGdUOt.s 			page 96


 3438 10b6 02FB0343 		mla	r3, r2, r3, r4
 3439 10ba 0122     		movs	r2, #1
 3440 10bc 83F82620 		strb	r2, [r3, #38]
 3441              	.L151:
 917:Middlewares/ST/STM32_SPWF0xSy/wifi_module_uart_01.c ****                       if(pStr != NULL)
 3442              		.loc 1 917 0
 3443 10c0 5A49     		ldr	r1, .L200+40
 3444 10c2 5348     		ldr	r0, .L200+12
 3445              	.LVL258:
 3446 10c4 FFF7FEFF 		bl	strstr
 3447              	.LVL259:
 918:Middlewares/ST/STM32_SPWF0xSy/wifi_module_uart_01.c ****                           {
 3448              		.loc 1 918 0
 3449 10c8 0028     		cmp	r0, #0
 3450 10ca 48D0     		beq	.L152
 920:Middlewares/ST/STM32_SPWF0xSy/wifi_module_uart_01.c ****                           } else
 3451              		.loc 1 920 0
 3452 10cc 4E4B     		ldr	r3, .L200+4
 3453 10ce 5A7B     		ldrb	r2, [r3, #13]	@ zero_extendqisi2
 3454 10d0 2C23     		movs	r3, #44
 3455 10d2 02FB0343 		mla	r3, r2, r3, r4
 3456 10d6 0122     		movs	r2, #1
 3457 10d8 83F82720 		strb	r2, [r3, #39]
 3458              	.L153:
 924:Middlewares/ST/STM32_SPWF0xSy/wifi_module_uart_01.c ****                       if(pStr != NULL)
 3459              		.loc 1 924 0
 3460 10dc 5449     		ldr	r1, .L200+44
 3461 10de 4C48     		ldr	r0, .L200+12
 3462              	.LVL260:
 3463 10e0 FFF7FEFF 		bl	strstr
 3464              	.LVL261:
 925:Middlewares/ST/STM32_SPWF0xSy/wifi_module_uart_01.c ****                           {
 3465              		.loc 1 925 0
 3466 10e4 0028     		cmp	r0, #0
 3467 10e6 43D0     		beq	.L154
 927:Middlewares/ST/STM32_SPWF0xSy/wifi_module_uart_01.c ****                           } else
 3468              		.loc 1 927 0
 3469 10e8 474B     		ldr	r3, .L200+4
 3470 10ea 5A7B     		ldrb	r2, [r3, #13]	@ zero_extendqisi2
 3471 10ec 2C23     		movs	r3, #44
 3472 10ee 02FB0344 		mla	r4, r2, r3, r4
 3473 10f2 0123     		movs	r3, #1
 3474 10f4 84F82830 		strb	r3, [r4, #40]
 3475              	.L155:
 931:Middlewares/ST/STM32_SPWF0xSy/wifi_module_uart_01.c ****                   }
 3476              		.loc 1 931 0
 3477 10f8 434A     		ldr	r2, .L200+4
 3478 10fa 537B     		ldrb	r3, [r2, #13]	@ zero_extendqisi2
 3479 10fc 0133     		adds	r3, r3, #1
 3480 10fe DBB2     		uxtb	r3, r3
 3481 1100 5373     		strb	r3, [r2, #13]
 3482              	.LVL262:
 3483              	.L144:
 935:Middlewares/ST/STM32_SPWF0xSy/wifi_module_uart_01.c ****                 if(pStr != NULL)
 3484              		.loc 1 935 0
 3485 1102 4C49     		ldr	r1, .L200+48
 3486 1104 4248     		ldr	r0, .L200+12
ARM GAS  D:\cygwin64\tmp\ccuGdUOt.s 			page 97


 3487 1106 FFF7FEFF 		bl	strstr
 3488              	.LVL263:
 936:Middlewares/ST/STM32_SPWF0xSy/wifi_module_uart_01.c ****                   {
 3489              		.loc 1 936 0
 3490 110a 0028     		cmp	r0, #0
 3491 110c 39D0     		beq	.L156
 941:Middlewares/ST/STM32_SPWF0xSy/wifi_module_uart_01.c ****                       Fillptr=0;
 3492              		.loc 1 941 0
 3493 110e 4FF40072 		mov	r2, #512
 3494 1112 0021     		movs	r1, #0
 3495 1114 3E48     		ldr	r0, .L200+12
 3496              	.LVL264:
 3497 1116 FFF7FEFF 		bl	memset
 3498              	.LVL265:
 942:Middlewares/ST/STM32_SPWF0xSy/wifi_module_uart_01.c ****                       IO_status_flag.AT_Response_Received = WIFI_TRUE;
 3499              		.loc 1 942 0
 3500 111a 0022     		movs	r2, #0
 3501 111c 464B     		ldr	r3, .L200+52
 3502 111e 1A60     		str	r2, [r3]
 943:Middlewares/ST/STM32_SPWF0xSy/wifi_module_uart_01.c ****                       WiFi_Control_Variables.enable_receive_wifi_scan_response = WIFI_FALSE;
 3503              		.loc 1 943 0
 3504 1120 4649     		ldr	r1, .L200+56
 3505 1122 4B78     		ldrb	r3, [r1, #1]	@ zero_extendqisi2
 3506 1124 43F00103 		orr	r3, r3, #1
 3507 1128 4B70     		strb	r3, [r1, #1]
 944:Middlewares/ST/STM32_SPWF0xSy/wifi_module_uart_01.c ****                       WiFi_Control_Variables.Scan_Ongoing = WIFI_FALSE; //Enable next scan
 3508              		.loc 1 944 0
 3509 112a 454B     		ldr	r3, .L200+60
 3510 112c D978     		ldrb	r1, [r3, #3]	@ zero_extendqisi2
 3511 112e 62F3C711 		bfi	r1, r2, #7, #1
 3512 1132 D970     		strb	r1, [r3, #3]
 945:Middlewares/ST/STM32_SPWF0xSy/wifi_module_uart_01.c ****                       WiFi_Counter_Variables.AT_RESPONSE = WiFi_AT_CMD_RESP_ERROR;     
 3513              		.loc 1 945 0
 3514 1134 5978     		ldrb	r1, [r3, #1]	@ zero_extendqisi2
 3515 1136 62F34101 		bfi	r1, r2, #1, #1
 3516 113a 5970     		strb	r1, [r3, #1]
 946:Middlewares/ST/STM32_SPWF0xSy/wifi_module_uart_01.c ****                       return;
 3517              		.loc 1 946 0
 3518 113c 0D22     		movs	r2, #13
 3519 113e 324B     		ldr	r3, .L200+4
 3520 1140 83F8E820 		strb	r2, [r3, #232]
 947:Middlewares/ST/STM32_SPWF0xSy/wifi_module_uart_01.c ****                   }
 3521              		.loc 1 947 0
 3522 1144 BDE8F087 		pop	{r4, r5, r6, r7, r8, r9, r10, pc}
 3523              	.LVL266:
 3524              	.L161:
 113:Middlewares/ST/STM32_SPWF0xSy/wifi_module_uart_01.c ****   char SocketId_No[2];
 3525              		.loc 1 113 0
 3526 1148 0023     		movs	r3, #0
 3527 114a 86E7     		b	.L146
 3528              	.LVL267:
 3529              	.L150:
 915:Middlewares/ST/STM32_SPWF0xSy/wifi_module_uart_01.c ****                       
 3530              		.loc 1 915 0
 3531 114c 2E4B     		ldr	r3, .L200+4
 3532 114e 5A7B     		ldrb	r2, [r3, #13]	@ zero_extendqisi2
 3533 1150 2C23     		movs	r3, #44
ARM GAS  D:\cygwin64\tmp\ccuGdUOt.s 			page 98


 3534 1152 02FB0343 		mla	r3, r2, r3, r4
 3535 1156 0022     		movs	r2, #0
 3536 1158 83F82620 		strb	r2, [r3, #38]
 3537 115c B0E7     		b	.L151
 3538              	.L152:
 922:Middlewares/ST/STM32_SPWF0xSy/wifi_module_uart_01.c ****                       
 3539              		.loc 1 922 0
 3540 115e 2A4B     		ldr	r3, .L200+4
 3541 1160 5A7B     		ldrb	r2, [r3, #13]	@ zero_extendqisi2
 3542 1162 2C23     		movs	r3, #44
 3543 1164 02FB0343 		mla	r3, r2, r3, r4
 3544 1168 0022     		movs	r2, #0
 3545 116a 83F82720 		strb	r2, [r3, #39]
 3546 116e B5E7     		b	.L153
 3547              	.L154:
 929:Middlewares/ST/STM32_SPWF0xSy/wifi_module_uart_01.c **** 
 3548              		.loc 1 929 0
 3549 1170 254B     		ldr	r3, .L200+4
 3550 1172 5A7B     		ldrb	r2, [r3, #13]	@ zero_extendqisi2
 3551 1174 2C23     		movs	r3, #44
 3552 1176 02FB0344 		mla	r4, r2, r3, r4
 3553 117a 0023     		movs	r3, #0
 3554 117c 84F82830 		strb	r3, [r4, #40]
 3555 1180 BAE7     		b	.L155
 3556              	.L156:
 954:Middlewares/ST/STM32_SPWF0xSy/wifi_module_uart_01.c ****                   {
 3557              		.loc 1 954 0
 3558 1182 3049     		ldr	r1, .L200+64
 3559 1184 2248     		ldr	r0, .L200+12
 3560              	.LVL268:
 3561 1186 FFF7FEFF 		bl	strstr
 3562              	.LVL269:
 3563 118a D8B1     		cbz	r0, .L157
 961:Middlewares/ST/STM32_SPWF0xSy/wifi_module_uart_01.c ****                       WiFi_Counter_Variables.scanned_ssids=0;                       
 3564              		.loc 1 961 0
 3565 118c 2C4B     		ldr	r3, .L200+60
 3566 118e 5A78     		ldrb	r2, [r3, #1]	@ zero_extendqisi2
 3567 1190 6FF34102 		bfc	r2, #1, #1
 3568 1194 5A70     		strb	r2, [r3, #1]
 962:Middlewares/ST/STM32_SPWF0xSy/wifi_module_uart_01.c ****                       Fillptr=0;
 3569              		.loc 1 962 0
 3570 1196 1C48     		ldr	r0, .L200+4
 3571 1198 0021     		movs	r1, #0
 3572 119a 4173     		strb	r1, [r0, #13]
 963:Middlewares/ST/STM32_SPWF0xSy/wifi_module_uart_01.c ****                       IO_status_flag.AT_Response_Received = WIFI_TRUE;
 3573              		.loc 1 963 0
 3574 119c 264A     		ldr	r2, .L200+52
 3575 119e 1160     		str	r1, [r2]
 964:Middlewares/ST/STM32_SPWF0xSy/wifi_module_uart_01.c ****                       WiFi_Control_Variables.enable_receive_wifi_scan_response = WIFI_FALSE;
 3576              		.loc 1 964 0
 3577 11a0 264C     		ldr	r4, .L200+56
 3578 11a2 6278     		ldrb	r2, [r4, #1]	@ zero_extendqisi2
 3579 11a4 42F00102 		orr	r2, r2, #1
 3580 11a8 6270     		strb	r2, [r4, #1]
 965:Middlewares/ST/STM32_SPWF0xSy/wifi_module_uart_01.c ****                       WiFi_Counter_Variables.AT_RESPONSE = WiFi_MODULE_SUCCESS;
 3581              		.loc 1 965 0
 3582 11aa DA78     		ldrb	r2, [r3, #3]	@ zero_extendqisi2
ARM GAS  D:\cygwin64\tmp\ccuGdUOt.s 			page 99


 3583 11ac 61F3C712 		bfi	r2, r1, #7, #1
 3584 11b0 DA70     		strb	r2, [r3, #3]
 966:Middlewares/ST/STM32_SPWF0xSy/wifi_module_uart_01.c ****                       memset(process_buffer, 0x00, MAX_BUFFER_GLOBAL);    
 3585              		.loc 1 966 0
 3586 11b2 80F8E810 		strb	r1, [r0, #232]
 967:Middlewares/ST/STM32_SPWF0xSy/wifi_module_uart_01.c ****                       return;
 3587              		.loc 1 967 0
 3588 11b6 4FF40072 		mov	r2, #512
 3589 11ba 1548     		ldr	r0, .L200+12
 3590 11bc FFF7FEFF 		bl	memset
 3591              	.LVL270:
 968:Middlewares/ST/STM32_SPWF0xSy/wifi_module_uart_01.c ****                   }
 3592              		.loc 1 968 0
 3593 11c0 BDE8F087 		pop	{r4, r5, r6, r7, r8, r9, r10, pc}
 3594              	.L157:
 971:Middlewares/ST/STM32_SPWF0xSy/wifi_module_uart_01.c ****                 memset(process_buffer, 0x00, MAX_BUFFER_GLOBAL);          
 3595              		.loc 1 971 0
 3596 11c4 0021     		movs	r1, #0
 3597 11c6 1C4B     		ldr	r3, .L200+52
 3598 11c8 1960     		str	r1, [r3]
 972:Middlewares/ST/STM32_SPWF0xSy/wifi_module_uart_01.c ****               }
 3599              		.loc 1 972 0
 3600 11ca 4FF40072 		mov	r2, #512
 3601 11ce 1048     		ldr	r0, .L200+12
 3602 11d0 FFF7FEFF 		bl	memset
 3603              	.LVL271:
 3604 11d4 E9E6     		b	.L143
 3605              	.LVL272:
 3606              	.L186:
1002:Middlewares/ST/STM32_SPWF0xSy/wifi_module_uart_01.c ****                 {
 3607              		.loc 1 1002 0 discriminator 1
 3608 11d6 013B     		subs	r3, r3, #1
 3609 11d8 CB5C     		ldrb	r3, [r1, r3]	@ zero_extendqisi2
 3610 11da 0A2B     		cmp	r3, #10
 3611 11dc 7FF4CEAE 		bne	.L159
1005:Middlewares/ST/STM32_SPWF0xSy/wifi_module_uart_01.c ****                   #endif
 3612              		.loc 1 1005 0
 3613 11e0 1948     		ldr	r0, .L200+68
 3614              	.LVL273:
 3615 11e2 FFF7FEFF 		bl	puts
 3616              	.LVL274:
1009:Middlewares/ST/STM32_SPWF0xSy/wifi_module_uart_01.c ****                   Fillptr=0;
 3617              		.loc 1 1009 0
 3618 11e6 164B     		ldr	r3, .L200+60
 3619 11e8 DA78     		ldrb	r2, [r3, #3]	@ zero_extendqisi2
 3620 11ea 6FF38202 		bfc	r2, #2, #1
 3621 11ee DA70     		strb	r2, [r3, #3]
1010:Middlewares/ST/STM32_SPWF0xSy/wifi_module_uart_01.c ****                   memset(process_buffer, 0x00, MAX_BUFFER_GLOBAL);
 3622              		.loc 1 1010 0
 3623 11f0 0021     		movs	r1, #0
 3624 11f2 114B     		ldr	r3, .L200+52
 3625 11f4 1960     		str	r1, [r3]
1011:Middlewares/ST/STM32_SPWF0xSy/wifi_module_uart_01.c ****                 }
 3626              		.loc 1 1011 0
 3627 11f6 4FF40072 		mov	r2, #512
 3628 11fa 0548     		ldr	r0, .L200+12
 3629 11fc FFF7FEFF 		bl	memset
ARM GAS  D:\cygwin64\tmp\ccuGdUOt.s 			page 100


 3630              	.LVL275:
 3631 1200 BCE6     		b	.L159
 3632              	.L201:
 3633 1202 00BF     		.align	2
 3634              	.L200:
 3635 1204 00000000 		.word	_impure_ptr
 3636 1208 00000000 		.word	WiFi_Counter_Variables
 3637 120c 1C020000 		.word	.LC38
 3638 1210 00000000 		.word	.LANCHOR1
 3639 1214 00000000 		.word	.LANCHOR3
 3640 1218 00000000 		.word	wifi_scanned_list
 3641 121c 24020000 		.word	.LC39
 3642 1220 2C020000 		.word	.LC40
 3643 1224 00000000 		.word	.LANCHOR4
 3644 1228 34020000 		.word	.LC41
 3645 122c 3C020000 		.word	.LC42
 3646 1230 44020000 		.word	.LC43
 3647 1234 20000000 		.word	.LC10
 3648 1238 00000000 		.word	.LANCHOR0
 3649 123c 00000000 		.word	IO_status_flag
 3650 1240 00000000 		.word	WiFi_Control_Variables
 3651 1244 4C020000 		.word	.LC44
 3652 1248 60020000 		.word	.LC46
 3653              		.cfi_endproc
 3654              	.LFE276:
 3656              		.section	.bss.Fillptr.11198,"aw",%nobits
 3657              		.align	2
 3658              		.set	.LANCHOR0,. + 0
 3661              	Fillptr.11198:
 3662 0000 00000000 		.space	4
 3663              		.section	.bss.HTTP_Runway_Buff.11206,"aw",%nobits
 3664              		.align	2
 3665              		.set	.LANCHOR2,. + 0
 3668              	HTTP_Runway_Buff.11206:
 3669 0000 00000000 		.space	6
 3669      0000
 3670              		.section	.bss.chan_value.11200,"aw",%nobits
 3671              		.set	.LANCHOR3,. + 0
 3674              	chan_value.11200:
 3675 0000 00       		.space	1
 3676              		.section	.bss.index.11199,"aw",%nobits
 3677              		.set	.LANCHOR4,. + 0
 3680              	index.11199:
 3681 0000 00       		.space	1
 3682              		.section	.bss.process_buffer.11207,"aw",%nobits
 3683              		.align	2
 3684              		.set	.LANCHOR1,. + 0
 3687              	process_buffer.11207:
 3688 0000 00000000 		.space	512
 3688      00000000 
 3688      00000000 
 3688      00000000 
 3688      00000000 
 3689              		.section	.rodata.Process_Buffer.str1.4,"aMS",%progbits,1
 3690              		.align	2
 3691              	.LC6:
 3692 0000 0D0A4F4B 		.ascii	"\015\012OK\015\012\000"
ARM GAS  D:\cygwin64\tmp\ccuGdUOt.s 			page 101


 3692      0D0A00
 3693 0007 00       		.space	1
 3694              	.LC7:
 3695 0008 49443A20 		.ascii	"ID: \000"
 3695      00
 3696 000d 000000   		.space	3
 3697              	.LC8:
 3698 0010 44415441 		.ascii	"DATALEN: \000"
 3698      4C454E3A 
 3698      2000
 3699 001a 0000     		.space	2
 3700              	.LC9:
 3701 001c 203D2000 		.ascii	" = \000"
 3702              	.LC10:
 3703 0020 4552524F 		.ascii	"ERROR\000"
 3703      5200
 3704 0026 0000     		.space	2
 3705              	.LC11:
 3706 0028 0D0A4552 		.ascii	"\015\012ERROR: Pending data\015\012\000"
 3706      524F523A 
 3706      2050656E 
 3706      64696E67 
 3706      20646174 
 3707              	.LC12:
 3708 0040 0D0A4552 		.ascii	"\015\012ERROR: Socket could not be closed..PENDING "
 3708      524F523A 
 3708      20536F63 
 3708      6B657420 
 3708      636F756C 
 3709 006d 44415441 		.ascii	"DATA\015\000"
 3709      0D00
 3710 0073 00       		.space	1
 3711              	.LC13:
 3712 0074 0D0A4552 		.ascii	"\015\012ERROR: Data mode not available\015\012\000"
 3712      524F523A 
 3712      20446174 
 3712      61206D6F 
 3712      6465206E 
 3713 0097 00       		.space	1
 3714              	.LC14:
 3715 0098 0D0A4552 		.ascii	"\015\012ERROR: Command mode not available\015\012\000"
 3715      524F523A 
 3715      20436F6D 
 3715      6D616E64 
 3715      206D6F64 
 3716 00be 0000     		.space	2
 3717              	.LC15:
 3718 00c0 496C6C65 		.ascii	"Illegal\000"
 3718      67616C00 
 3719              	.LC16:
 3720 00c8 0D0A2045 		.ascii	"\015\012 Error: Illegal socket ID \015\000"
 3720      72726F72 
 3720      3A20496C 
 3720      6C656761 
 3720      6C20736F 
 3721 00e6 0000     		.space	2
 3722              	.LC17:
ARM GAS  D:\cygwin64\tmp\ccuGdUOt.s 			page 102


 3723 00e8 4750494F 		.ascii	"GPIO \000"
 3723      2000
 3724 00ee 0000     		.space	2
 3725              	.LC18:
 3726 00f0 3D20302C 		.ascii	"= 0,\000"
 3726      00
 3727 00f5 000000   		.space	3
 3728              	.LC19:
 3729 00f8 6F757400 		.ascii	"out\000"
 3730              	.LC20:
 3731 00fc 0D0A2B57 		.ascii	"\015\012+WIND:56:\000"
 3731      494E443A 
 3731      35363A00 
 3732              	.LC21:
 3733 0108 636C6965 		.ascii	"client:\000"
 3733      6E743A00 
 3734              	.LC22:
 3735 0110 32303020 		.ascii	"200 OK\015\000"
 3735      4F4B0D00 
 3736              	.LC23:
 3737 0118 32303020 		.ascii	"200 \015\000"
 3737      0D00
 3738 011e 0000     		.space	2
 3739              	.LC24:
 3740 0120 34303020 		.ascii	"400 Bad Request\015\000"
 3740      42616420 
 3740      52657175 
 3740      6573740D 
 3740      00
 3741 0131 000000   		.space	3
 3742              	.LC25:
 3743 0134 34303020 		.ascii	"400 \015\000"
 3743      0D00
 3744 013a 0000     		.space	2
 3745              	.LC26:
 3746 013c 34303120 		.ascii	"401 Unauthorized\015\000"
 3746      556E6175 
 3746      74686F72 
 3746      697A6564 
 3746      0D00
 3747 014e 0000     		.space	2
 3748              	.LC27:
 3749 0150 34303320 		.ascii	"403 Forbidden\015\000"
 3749      466F7262 
 3749      69646465 
 3749      6E0D00
 3750 015f 00       		.space	1
 3751              	.LC28:
 3752 0160 34303420 		.ascii	"404 Not Found\015\000"
 3752      4E6F7420 
 3752      466F756E 
 3752      640D00
 3753 016f 00       		.space	1
 3754              	.LC29:
 3755 0170 34303820 		.ascii	"408 Request Timeout\015\000"
 3755      52657175 
 3755      65737420 
ARM GAS  D:\cygwin64\tmp\ccuGdUOt.s 			page 103


 3755      54696D65 
 3755      6F75740D 
 3756 0185 000000   		.space	3
 3757              	.LC30:
 3758 0188 35303020 		.ascii	"500 Internal Server Error\015\000"
 3758      496E7465 
 3758      726E616C 
 3758      20536572 
 3758      76657220 
 3759 01a3 00       		.space	1
 3760              	.LC31:
 3761 01a4 35303220 		.ascii	"502 Bad Gateway\015\000"
 3761      42616420 
 3761      47617465 
 3761      7761790D 
 3761      00
 3762 01b5 000000   		.space	3
 3763              	.LC32:
 3764 01b8 35303420 		.ascii	"504 Gateway Timeout\015\000"
 3764      47617465 
 3764      77617920 
 3764      54696D65 
 3764      6F75740D 
 3765 01cd 000000   		.space	3
 3766              	.LC33:
 3767 01d0 4552524F 		.ascii	"ERROR: \000"
 3767      523A2000 
 3768              	.LC34:
 3769 01d8 0D0A00   		.ascii	"\015\012\000"
 3770 01db 00       		.space	1
 3771              	.LC35:
 3772 01dc 44415441 		.ascii	"DATALEN:\000"
 3772      4C454E3A 
 3772      00
 3773 01e5 000000   		.space	3
 3774              	.LC36:
 3775 01e8 0D0A4552 		.ascii	"\015\012ERROR: Too many sockets\015\012\000"
 3775      524F523A 
 3775      20546F6F 
 3775      206D616E 
 3775      7920736F 
 3776              	.LC37:
 3777 0204 0D0A4552 		.ascii	"\015\012ERROR: Socket error\015\012\000"
 3777      524F523A 
 3777      20536F63 
 3777      6B657420 
 3777      6572726F 
 3778              	.LC38:
 3779 021c 4348414E 		.ascii	"CHAN:\000"
 3779      3A00
 3780 0222 0000     		.space	2
 3781              	.LC39:
 3782 0224 52535349 		.ascii	"RSSI:\000"
 3782      3A00
 3783 022a 0000     		.space	2
 3784              	.LC40:
 3785 022c 53534944 		.ascii	"SSID:\000"
ARM GAS  D:\cygwin64\tmp\ccuGdUOt.s 			page 104


 3785      3A00
 3786 0232 0000     		.space	2
 3787              	.LC41:
 3788 0234 57504120 		.ascii	"WPA \000"
 3788      00
 3789 0239 000000   		.space	3
 3790              	.LC42:
 3791 023c 57504132 		.ascii	"WPA2 \000"
 3791      2000
 3792 0242 0000     		.space	2
 3793              	.LC43:
 3794 0244 57505320 		.ascii	"WPS \000"
 3794      00
 3795 0249 000000   		.space	3
 3796              	.LC44:
 3797 024c 4F4B0D0A 		.ascii	"OK\015\012\000"
 3797      00
 3798 0251 000000   		.space	3
 3799              	.LC45:
 3800 0254 436F6D70 		.ascii	"Complete!\000"
 3800      6C657465 
 3800      2100
 3801 025e 0000     		.space	2
 3802              	.LC46:
 3803 0260 0D0A5570 		.ascii	"\015\012Update complete\015\000"
 3803      64617465 
 3803      20636F6D 
 3803      706C6574 
 3803      650D00
 3804              		.section	.rodata.Process_Wind_Indication.str1.4,"aMS",%progbits,1
 3805              		.align	2
 3806              	.LC1:
 3807 0000 57494E44 		.ascii	"WIND:\000"
 3807      3A00
 3808 0006 0000     		.space	2
 3809              	.LC2:
 3810 0008 44617461 		.ascii	"Data:\000"
 3810      3A00
 3811 000e 0000     		.space	2
 3812              	.LC3:
 3813 0010 3E3E4947 		.ascii	">>IG\015\000"
 3813      0D00
 3814 0016 0000     		.space	2
 3815              	.LC4:
 3816 0018 2B57494E 		.ascii	"+WIND:28\000"
 3816      443A3238 
 3816      00
 3817 0021 000000   		.space	3
 3818              	.LC5:
 3819 0024 2B57494E 		.ascii	"+WIND:72\000"
 3819      443A3732 
 3819      00
 3820              		.section	.rodata.SET_Power_State.str1.4,"aMS",%progbits,1
 3821              		.align	2
 3822              	.LC0:
 3823 0000 41542B43 		.ascii	"AT+CFUN=%d\015\000"
 3823      46554E3D 
ARM GAS  D:\cygwin64\tmp\ccuGdUOt.s 			page 105


 3823      25640D00 
 3824              		.text
 3825              	.Letext0:
 3826              		.file 3 "c:\\program files (x86)\\gnu tools arm embedded\\6 2017-q2-update\\arm-none-eabi\\include
 3827              		.file 4 "c:\\program files (x86)\\gnu tools arm embedded\\6 2017-q2-update\\arm-none-eabi\\include
 3828              		.file 5 "Drivers/CMSIS/Include/core_cm4.h"
 3829              		.file 6 "Drivers/CMSIS/Device/ST/STM32F4xx/Include/system_stm32f4xx.h"
 3830              		.file 7 "Drivers/CMSIS/Device/ST/STM32F4xx/Include/stm32f401xe.h"
 3831              		.file 8 "Drivers/CMSIS/Device/ST/STM32F4xx/Include/stm32f4xx.h"
 3832              		.file 9 "Drivers/STM32F4xx_HAL_Driver/Inc/stm32f4xx_hal_def.h"
 3833              		.file 10 "Drivers/STM32F4xx_HAL_Driver/Inc/stm32f4xx_hal_gpio.h"
 3834              		.file 11 "Drivers/STM32F4xx_HAL_Driver/Inc/stm32f4xx_hal_dma.h"
 3835              		.file 12 "Drivers/STM32F4xx_HAL_Driver/Inc/stm32f4xx_hal_tim.h"
 3836              		.file 13 "Drivers/STM32F4xx_HAL_Driver/Inc/stm32f4xx_hal_uart.h"
 3837              		.file 14 "Drivers/STM32F4xx_HAL_Driver/Inc/stm32f4xx_hal.h"
 3838              		.file 15 "Drivers/STM32F4xx_HAL_Driver/Inc/stm32f4xx_hal_spi.h"
 3839              		.file 16 "Middlewares/ST/STM32_SPWF0xSy/Inc/wifi_interface.h"
 3840              		.file 17 "c:\\program files (x86)\\gnu tools arm embedded\\6 2017-q2-update\\arm-none-eabi\\includ
 3841              		.file 18 "c:\\program files (x86)\\gnu tools arm embedded\\6 2017-q2-update\\arm-none-eabi\\includ
 3842              		.file 19 "c:\\program files (x86)\\gnu tools arm embedded\\6 2017-q2-update\\lib\\gcc\\arm-none-ea
 3843              		.file 20 "c:\\program files (x86)\\gnu tools arm embedded\\6 2017-q2-update\\arm-none-eabi\\includ
 3844              		.file 21 "c:\\program files (x86)\\gnu tools arm embedded\\6 2017-q2-update\\arm-none-eabi\\includ
 3845              		.file 22 "Middlewares/ST/STM32_SPWF0xSy/Utils/event_buffer.h"
 3846              		.file 23 "Middlewares/ST/STM32_SPWF0xSy/Utils/ring_buffer.h"
 3847              		.file 24 "c:\\program files (x86)\\gnu tools arm embedded\\6 2017-q2-update\\arm-none-eabi\\includ
 3848              		.file 25 "Middlewares/ST/STM32_SPWF0xSy/Inc/wifi_module.h"
 3849              		.file 26 "Middlewares/ST/STM32_SPWF0xSy/Utils/wifi_globals.h"
 3850              		.file 27 "Drivers/STM32F4xx_HAL_Driver/Inc/stm32f4xx_ll_dma.h"
 3851              		.file 28 "c:\\program files (x86)\\gnu tools arm embedded\\6 2017-q2-update\\arm-none-eabi\\includ
 3852              		.file 29 "Drivers/STM32F4xx_HAL_Driver/Inc/stm32f4xx_hal_cortex.h"
 3853              		.file 30 "<built-in>"
 3854              		.file 31 "c:\\program files (x86)\\gnu tools arm embedded\\6 2017-q2-update\\arm-none-eabi\\includ
ARM GAS  D:\cygwin64\tmp\ccuGdUOt.s 			page 106


DEFINED SYMBOLS
                            *ABS*:00000000 wifi_module_uart_01.c
D:\cygwin64\tmp\ccuGdUOt.s:18     .text.SET_Power_State:00000000 $t
D:\cygwin64\tmp\ccuGdUOt.s:25     .text.SET_Power_State:00000000 SET_Power_State
D:\cygwin64\tmp\ccuGdUOt.s:98     .text.SET_Power_State:00000044 $d
D:\cygwin64\tmp\ccuGdUOt.s:106    .text.Process_Wind_Indication:00000000 $t
D:\cygwin64\tmp\ccuGdUOt.s:113    .text.Process_Wind_Indication:00000000 Process_Wind_Indication
D:\cygwin64\tmp\ccuGdUOt.s:168    .text.Process_Wind_Indication:00000040 $d
D:\cygwin64\tmp\ccuGdUOt.s:244    .text.Process_Wind_Indication:000000d6 $t
D:\cygwin64\tmp\ccuGdUOt.s:517    .text.Process_Wind_Indication:00000294 $d
D:\cygwin64\tmp\ccuGdUOt.s:527    .text.Process_Wind_Indication:000002b0 $t
D:\cygwin64\tmp\ccuGdUOt.s:745    .text.Process_Wind_Indication:000003e8 $d
D:\cygwin64\tmp\ccuGdUOt.s:756    .text.Process_Buffer:00000000 $t
D:\cygwin64\tmp\ccuGdUOt.s:763    .text.Process_Buffer:00000000 Process_Buffer
D:\cygwin64\tmp\ccuGdUOt.s:1270   .text.Process_Buffer:000002dc $d
D:\cygwin64\tmp\ccuGdUOt.s:1289   .text.Process_Buffer:0000031c $t
D:\cygwin64\tmp\ccuGdUOt.s:1704   .text.Process_Buffer:00000590 $d
D:\cygwin64\tmp\ccuGdUOt.s:1724   .text.Process_Buffer:000005d4 $t
D:\cygwin64\tmp\ccuGdUOt.s:1984   .text.Process_Buffer:0000077c $d
D:\cygwin64\tmp\ccuGdUOt.s:2003   .text.Process_Buffer:000007c0 $t
D:\cygwin64\tmp\ccuGdUOt.s:2452   .text.Process_Buffer:00000ab0 $d
D:\cygwin64\tmp\ccuGdUOt.s:2468   .text.Process_Buffer:00000ae4 $t
D:\cygwin64\tmp\ccuGdUOt.s:2993   .text.Process_Buffer:00000dc8 $d
D:\cygwin64\tmp\ccuGdUOt.s:3008   .text.Process_Buffer:00000df4 $t
D:\cygwin64\tmp\ccuGdUOt.s:3299   .text.Process_Buffer:00000fc8 $d
D:\cygwin64\tmp\ccuGdUOt.s:3312   .text.Process_Buffer:00000ff0 $t
D:\cygwin64\tmp\ccuGdUOt.s:3635   .text.Process_Buffer:00001204 $d
D:\cygwin64\tmp\ccuGdUOt.s:3657   .bss.Fillptr.11198:00000000 $d
D:\cygwin64\tmp\ccuGdUOt.s:3661   .bss.Fillptr.11198:00000000 Fillptr.11198
D:\cygwin64\tmp\ccuGdUOt.s:3664   .bss.HTTP_Runway_Buff.11206:00000000 $d
D:\cygwin64\tmp\ccuGdUOt.s:3668   .bss.HTTP_Runway_Buff.11206:00000000 HTTP_Runway_Buff.11206
D:\cygwin64\tmp\ccuGdUOt.s:3674   .bss.chan_value.11200:00000000 chan_value.11200
D:\cygwin64\tmp\ccuGdUOt.s:3675   .bss.chan_value.11200:00000000 $d
D:\cygwin64\tmp\ccuGdUOt.s:3680   .bss.index.11199:00000000 index.11199
D:\cygwin64\tmp\ccuGdUOt.s:3681   .bss.index.11199:00000000 $d
D:\cygwin64\tmp\ccuGdUOt.s:3683   .bss.process_buffer.11207:00000000 $d
D:\cygwin64\tmp\ccuGdUOt.s:3687   .bss.process_buffer.11207:00000000 process_buffer.11207
D:\cygwin64\tmp\ccuGdUOt.s:3690   .rodata.Process_Buffer.str1.4:00000000 $d
D:\cygwin64\tmp\ccuGdUOt.s:3805   .rodata.Process_Wind_Indication.str1.4:00000000 $d
D:\cygwin64\tmp\ccuGdUOt.s:3821   .rodata.SET_Power_State.str1.4:00000000 $d
                     .debug_frame:00000010 $d

UNDEFINED SYMBOLS
Reset_AT_CMD_Buffer
sprintf
strlen
USART_Transmit_AT_Cmd
WiFi_AT_Cmd_Buff
IO_status_flag
strstr
memset
puts
wifi_instances
WiFi_Control_Variables
WiFi_Counter_Variables
WiFi_switch_to_command_mode
wifi_connected
ARM GAS  D:\cygwin64\tmp\ccuGdUOt.s 			page 107


reset_event
HAL_NVIC_DisableIRQ
ind_wifi_inputssi_callback
Stop_Timer
Start_Timer
push_eventbuffer_queue
Queue_Client_Close_Event
memcpy
open_sockets
rewind_buffer_queue
Stop_Dequeue
pop_buffer
UserDataBuff
putchar
fflush
_impure_ptr
wifi_scanned_list
